
uart.elf:     file format elf32-littlearm


Disassembly of section .text:

20008000 <main>:
20008000:	e92d4800 	push	{fp, lr}
20008004:	e28db004 	add	fp, sp, #4
20008008:	eb00000c 	bl	20008040 <uart_init>
2000800c:	e59f0020 	ldr	r0, [pc, #32]	; 20008034 <main+0x34>
20008010:	eb000049 	bl	2000813c <uart_puts>
20008014:	e59f001c 	ldr	r0, [pc, #28]	; 20008038 <main+0x38>
20008018:	e3a01020 	mov	r1, #32
2000801c:	eb000068 	bl	200081c4 <uart_gets>
20008020:	e59f0014 	ldr	r0, [pc, #20]	; 2000803c <main+0x3c>
20008024:	eb000044 	bl	2000813c <uart_puts>
20008028:	e59f0008 	ldr	r0, [pc, #8]	; 20008038 <main+0x38>
2000802c:	eb000042 	bl	2000813c <uart_puts>
20008030:	eafffff5 	b	2000800c <main+0xc>
20008034:	20008268 	andcs	r8, r0, r8, ror #4
20008038:	20008294 	mulcs	r0, r4, r2
2000803c:	20008280 	andcs	r8, r0, r0, lsl #5

20008040 <uart_init>:
20008040:	e52db004 	push	{fp}		; (str fp, [sp, #-4]!)
20008044:	e28db000 	add	fp, sp, #0
20008048:	e59f307c 	ldr	r3, [pc, #124]	; 200080cc <uart_init+0x8c>
2000804c:	e59f2078 	ldr	r2, [pc, #120]	; 200080cc <uart_init+0x8c>
20008050:	e5922000 	ldr	r2, [r2]
20008054:	e3c220ff 	bic	r2, r2, #255	; 0xff
20008058:	e5832000 	str	r2, [r3]
2000805c:	e59f3068 	ldr	r3, [pc, #104]	; 200080cc <uart_init+0x8c>
20008060:	e59f2064 	ldr	r2, [pc, #100]	; 200080cc <uart_init+0x8c>
20008064:	e5922000 	ldr	r2, [r2]
20008068:	e3822022 	orr	r2, r2, #34	; 0x22
2000806c:	e5832000 	str	r2, [r3]
20008070:	e59f3058 	ldr	r3, [pc, #88]	; 200080d0 <uart_init+0x90>
20008074:	e59f2054 	ldr	r2, [pc, #84]	; 200080d0 <uart_init+0x90>
20008078:	e5922000 	ldr	r2, [r2]
2000807c:	e3c2200f 	bic	r2, r2, #15
20008080:	e5832000 	str	r2, [r3]
20008084:	e59f3048 	ldr	r3, [pc, #72]	; 200080d4 <uart_init+0x94>
20008088:	e3a02003 	mov	r2, #3
2000808c:	e5832000 	str	r2, [r3]
20008090:	e59f303c 	ldr	r3, [pc, #60]	; 200080d4 <uart_init+0x94>
20008094:	e3a02003 	mov	r2, #3
20008098:	e5832000 	str	r2, [r3]
2000809c:	e59f3034 	ldr	r3, [pc, #52]	; 200080d8 <uart_init+0x98>
200080a0:	e3a02005 	mov	r2, #5
200080a4:	e5832000 	str	r2, [r3]
200080a8:	e59f302c 	ldr	r3, [pc, #44]	; 200080dc <uart_init+0x9c>
200080ac:	e3a02023 	mov	r2, #35	; 0x23
200080b0:	e5832000 	str	r2, [r3]
200080b4:	e59f3024 	ldr	r3, [pc, #36]	; 200080e0 <uart_init+0xa0>
200080b8:	e3a02080 	mov	r2, #128	; 0x80
200080bc:	e5832000 	str	r2, [r3]
200080c0:	e28bd000 	add	sp, fp, #0
200080c4:	e8bd0800 	pop	{fp}
200080c8:	e12fff1e 	bx	lr
200080cc:	e0200000 	eor	r0, r0, r0
200080d0:	e0200008 	eor	r0, r0, r8
200080d4:	e2900000 	adds	r0, r0, #0
200080d8:	e2900004 	adds	r0, r0, #4
200080dc:	e2900028 	adds	r0, r0, #40	; 0x28
200080e0:	e290002c 	adds	r0, r0, #44	; 0x2c

200080e4 <uart_putc>:
200080e4:	e92d4800 	push	{fp, lr}
200080e8:	e28db004 	add	fp, sp, #4
200080ec:	e24dd008 	sub	sp, sp, #8
200080f0:	e1a03000 	mov	r3, r0
200080f4:	e54b3005 	strb	r3, [fp, #-5]
200080f8:	e59f3034 	ldr	r3, [pc, #52]	; 20008134 <uart_putc+0x50>
200080fc:	e5933000 	ldr	r3, [r3]
20008100:	e2033002 	and	r3, r3, #2
20008104:	e3530000 	cmp	r3, #0
20008108:	0afffffa 	beq	200080f8 <uart_putc+0x14>
2000810c:	e59f3024 	ldr	r3, [pc, #36]	; 20008138 <uart_putc+0x54>
20008110:	e55b2005 	ldrb	r2, [fp, #-5]
20008114:	e5832000 	str	r2, [r3]
20008118:	e55b3005 	ldrb	r3, [fp, #-5]
2000811c:	e353000a 	cmp	r3, #10
20008120:	1a000001 	bne	2000812c <uart_putc+0x48>
20008124:	e3a0000d 	mov	r0, #13
20008128:	ebffffed 	bl	200080e4 <uart_putc>
2000812c:	e24bd004 	sub	sp, fp, #4
20008130:	e8bd8800 	pop	{fp, pc}
20008134:	e2900010 	adds	r0, r0, #16
20008138:	e2900020 	adds	r0, r0, #32

2000813c <uart_puts>:
2000813c:	e92d4800 	push	{fp, lr}
20008140:	e28db004 	add	fp, sp, #4
20008144:	e24dd008 	sub	sp, sp, #8
20008148:	e50b0008 	str	r0, [fp, #-8]
2000814c:	ea000006 	b	2000816c <uart_puts+0x30>
20008150:	e51b3008 	ldr	r3, [fp, #-8]
20008154:	e5d33000 	ldrb	r3, [r3]
20008158:	e1a00003 	mov	r0, r3
2000815c:	ebffffe0 	bl	200080e4 <uart_putc>
20008160:	e51b3008 	ldr	r3, [fp, #-8]
20008164:	e2833001 	add	r3, r3, #1
20008168:	e50b3008 	str	r3, [fp, #-8]
2000816c:	e51b3008 	ldr	r3, [fp, #-8]
20008170:	e5d33000 	ldrb	r3, [r3]
20008174:	e3530000 	cmp	r3, #0
20008178:	1afffff4 	bne	20008150 <uart_puts+0x14>
2000817c:	e24bd004 	sub	sp, fp, #4
20008180:	e8bd8800 	pop	{fp, pc}

20008184 <uart_getc>:
20008184:	e52db004 	push	{fp}		; (str fp, [sp, #-4]!)
20008188:	e28db000 	add	fp, sp, #0
2000818c:	e59f3028 	ldr	r3, [pc, #40]	; 200081bc <uart_getc+0x38>
20008190:	e5933000 	ldr	r3, [r3]
20008194:	e2033001 	and	r3, r3, #1
20008198:	e3530000 	cmp	r3, #0
2000819c:	0afffffa 	beq	2000818c <uart_getc+0x8>
200081a0:	e59f3018 	ldr	r3, [pc, #24]	; 200081c0 <uart_getc+0x3c>
200081a4:	e5933000 	ldr	r3, [r3]
200081a8:	e20330ff 	and	r3, r3, #255	; 0xff
200081ac:	e1a00003 	mov	r0, r3
200081b0:	e28bd000 	add	sp, fp, #0
200081b4:	e8bd0800 	pop	{fp}
200081b8:	e12fff1e 	bx	lr
200081bc:	e2900010 	adds	r0, r0, #16
200081c0:	e2900024 	adds	r0, r0, #36	; 0x24

200081c4 <uart_gets>:
200081c4:	e92d4800 	push	{fp, lr}
200081c8:	e28db004 	add	fp, sp, #4
200081cc:	e24dd010 	sub	sp, sp, #16
200081d0:	e50b0010 	str	r0, [fp, #-16]
200081d4:	e50b1014 	str	r1, [fp, #-20]
200081d8:	e3a03000 	mov	r3, #0
200081dc:	e50b300c 	str	r3, [fp, #-12]
200081e0:	e3a03000 	mov	r3, #0
200081e4:	e54b3005 	strb	r3, [fp, #-5]
200081e8:	ea000010 	b	20008230 <uart_gets+0x6c>
200081ec:	ebffffe4 	bl	20008184 <uart_getc>
200081f0:	e1a03000 	mov	r3, r0
200081f4:	e54b3005 	strb	r3, [fp, #-5]
200081f8:	e55b3005 	ldrb	r3, [fp, #-5]
200081fc:	e1a00003 	mov	r0, r3
20008200:	ebffffb7 	bl	200080e4 <uart_putc>
20008204:	e51b200c 	ldr	r2, [fp, #-12]
20008208:	e51b3010 	ldr	r3, [fp, #-16]
2000820c:	e0823003 	add	r3, r2, r3
20008210:	e55b2005 	ldrb	r2, [fp, #-5]
20008214:	e5c32000 	strb	r2, [r3]
20008218:	e55b3005 	ldrb	r3, [fp, #-5]
2000821c:	e353000d 	cmp	r3, #13
20008220:	0a000008 	beq	20008248 <uart_gets+0x84>
20008224:	e51b300c 	ldr	r3, [fp, #-12]
20008228:	e2833001 	add	r3, r3, #1
2000822c:	e50b300c 	str	r3, [fp, #-12]
20008230:	e51b3014 	ldr	r3, [fp, #-20]
20008234:	e2432001 	sub	r2, r3, #1
20008238:	e51b300c 	ldr	r3, [fp, #-12]
2000823c:	e1520003 	cmp	r2, r3
20008240:	caffffe9 	bgt	200081ec <uart_gets+0x28>
20008244:	ea000000 	b	2000824c <uart_gets+0x88>
20008248:	e1a00000 	nop			; (mov r0, r0)
2000824c:	e51b200c 	ldr	r2, [fp, #-12]
20008250:	e51b3010 	ldr	r3, [fp, #-16]
20008254:	e0823003 	add	r3, r2, r3
20008258:	e3a02000 	mov	r2, #0
2000825c:	e5c32000 	strb	r2, [r3]
20008260:	e24bd004 	sub	sp, fp, #4
20008264:	e8bd8800 	pop	{fp, pc}

Disassembly of section .rodata:

20008268 <.rodata>:
20008268:	6c50200a 	mrrcvs	0, 0, r2, r0, cr10
2000826c:	65736165 	ldrbvs	r6, [r3, #-357]!	; 0x165
20008270:	706e6920 	rsbvc	r6, lr, r0, lsr #18
20008274:	73207475 	teqvc	r0, #1962934272	; 0x75000000
20008278:	6e697274 	mcrvs	2, 3, r7, cr9, cr4, {3}
2000827c:	000a3a67 	andeq	r3, sl, r7, ror #20
20008280:	6f79200a 	svcvs	0x0079200a
20008284:	6e692075 	mcrvs	0, 3, r2, cr9, cr5, {3}
20008288:	20747570 	rsbscs	r7, r4, r0, ror r5
2000828c:	69727473 	ldmdbvs	r2!, {r0, r1, r4, r5, r6, sl, ip, sp, lr}^
20008290:	003a676e 	eorseq	r6, sl, lr, ror #14

Disassembly of section .bss:

20008294 <buf>:
	...

Disassembly of section .comment:

00000000 <.comment>:
   0:	43434700 	movtmi	r4, #14080	; 0x3700
   4:	5328203a 	teqpl	r8, #58	; 0x3a
   8:	6372756f 	cmnvs	r2, #465567744	; 0x1bc00000
   c:	20797265 	rsbscs	r7, r9, r5, ror #4
  10:	202b2b47 	eorcs	r2, fp, r7, asr #22
  14:	6574694c 	ldrbvs	r6, [r4, #-2380]!	; 0x94c
  18:	30303220 	eorscc	r3, r0, r0, lsr #4
  1c:	2d337139 	ldfcss	f7, [r3, #-228]!	; 0xffffff1c
  20:	20293736 	eorcs	r3, r9, r6, lsr r7
  24:	2e342e34 	mrccs	14, 1, r2, cr4, cr4, {1}
  28:	47000031 	smladxmi	r0, r1, r0, r0
  2c:	203a4343 	eorscs	r4, sl, r3, asr #6
  30:	756f5328 	strbvc	r5, [pc, #-808]!	; fffffd10 <buf+0xdfff7a7c>
  34:	72656372 	rsbvc	r6, r5, #-939524095	; 0xc8000001
  38:	2b472079 	blcs	11c8224 <main-0x1ee3fddc>
  3c:	694c202b 	stmdbvs	ip, {r0, r1, r3, r5, sp}^
  40:	32206574 	eorcc	r6, r0, #486539264	; 0x1d000000
  44:	71393030 	teqvc	r9, r0, lsr r0
  48:	37362d33 	undefined instruction 0x37362d33
  4c:	2e342029 	cdpcs	0, 3, cr2, cr4, cr9, {1}
  50:	00312e34 	eorseq	r2, r1, r4, lsr lr

Disassembly of section .ARM.attributes:

00000000 <.ARM.attributes>:
   0:	00002a41 	andeq	r2, r0, r1, asr #20
   4:	61656100 	cmnvs	r5, r0, lsl #2
   8:	01006962 	tsteq	r0, r2, ror #18
   c:	00000020 	andeq	r0, r0, r0, lsr #32
  10:	45543505 	ldrbmi	r3, [r4, #-1285]	; 0x505
  14:	08040600 	stmdaeq	r4, {r9, sl}
  18:	12010901 	andne	r0, r1, #16384	; 0x4000
  1c:	15011404 	strne	r1, [r1, #-1028]	; 0x404
  20:	18031701 	stmdane	r3, {r0, r8, r9, sl, ip}
  24:	1a011901 	bne	46430 <main-0x1ffc1bd0>
  28:	Address 0x00000028 is out of bounds.

