
uart.elf:     file format elf32-littlearm


Disassembly of section .text:

23000000 <main>:
23000000:	e92d4800 	push	{fp, lr}
23000004:	e28db004 	add	fp, sp, #4
23000008:	eb00000c 	bl	23000040 <uart_init>
2300000c:	e59f0020 	ldr	r0, [pc, #32]	; 23000034 <main+0x34>
23000010:	eb000049 	bl	2300013c <uart_puts>
23000014:	e59f001c 	ldr	r0, [pc, #28]	; 23000038 <main+0x38>
23000018:	e3a01020 	mov	r1, #32
2300001c:	eb000068 	bl	230001c4 <uart_gets>
23000020:	e59f0014 	ldr	r0, [pc, #20]	; 2300003c <main+0x3c>
23000024:	eb000044 	bl	2300013c <uart_puts>
23000028:	e59f0008 	ldr	r0, [pc, #8]	; 23000038 <main+0x38>
2300002c:	eb000042 	bl	2300013c <uart_puts>
23000030:	eafffff5 	b	2300000c <main+0xc>
23000034:	23000268 	movwcs	r0, #616	; 0x268
23000038:	23000294 	movwcs	r0, #660	; 0x294
2300003c:	23000280 	movwcs	r0, #640	; 0x280

23000040 <uart_init>:
23000040:	e52db004 	push	{fp}		; (str fp, [sp, #-4]!)
23000044:	e28db000 	add	fp, sp, #0
23000048:	e59f307c 	ldr	r3, [pc, #124]	; 230000cc <uart_init+0x8c>
2300004c:	e59f2078 	ldr	r2, [pc, #120]	; 230000cc <uart_init+0x8c>
23000050:	e5922000 	ldr	r2, [r2]
23000054:	e3c220ff 	bic	r2, r2, #255	; 0xff
23000058:	e5832000 	str	r2, [r3]
2300005c:	e59f3068 	ldr	r3, [pc, #104]	; 230000cc <uart_init+0x8c>
23000060:	e59f2064 	ldr	r2, [pc, #100]	; 230000cc <uart_init+0x8c>
23000064:	e5922000 	ldr	r2, [r2]
23000068:	e3822022 	orr	r2, r2, #34	; 0x22
2300006c:	e5832000 	str	r2, [r3]
23000070:	e59f3058 	ldr	r3, [pc, #88]	; 230000d0 <uart_init+0x90>
23000074:	e59f2054 	ldr	r2, [pc, #84]	; 230000d0 <uart_init+0x90>
23000078:	e5922000 	ldr	r2, [r2]
2300007c:	e3c2200f 	bic	r2, r2, #15
23000080:	e5832000 	str	r2, [r3]
23000084:	e59f3048 	ldr	r3, [pc, #72]	; 230000d4 <uart_init+0x94>
23000088:	e3a02003 	mov	r2, #3
2300008c:	e5832000 	str	r2, [r3]
23000090:	e59f303c 	ldr	r3, [pc, #60]	; 230000d4 <uart_init+0x94>
23000094:	e3a02003 	mov	r2, #3
23000098:	e5832000 	str	r2, [r3]
2300009c:	e59f3034 	ldr	r3, [pc, #52]	; 230000d8 <uart_init+0x98>
230000a0:	e3a02005 	mov	r2, #5
230000a4:	e5832000 	str	r2, [r3]
230000a8:	e59f302c 	ldr	r3, [pc, #44]	; 230000dc <uart_init+0x9c>
230000ac:	e3a02023 	mov	r2, #35	; 0x23
230000b0:	e5832000 	str	r2, [r3]
230000b4:	e59f3024 	ldr	r3, [pc, #36]	; 230000e0 <uart_init+0xa0>
230000b8:	e3a02080 	mov	r2, #128	; 0x80
230000bc:	e5832000 	str	r2, [r3]
230000c0:	e28bd000 	add	sp, fp, #0
230000c4:	e8bd0800 	pop	{fp}
230000c8:	e12fff1e 	bx	lr
230000cc:	e0200000 	eor	r0, r0, r0
230000d0:	e0200008 	eor	r0, r0, r8
230000d4:	e2900000 	adds	r0, r0, #0
230000d8:	e2900004 	adds	r0, r0, #4
230000dc:	e2900028 	adds	r0, r0, #40	; 0x28
230000e0:	e290002c 	adds	r0, r0, #44	; 0x2c

230000e4 <uart_putc>:
230000e4:	e92d4800 	push	{fp, lr}
230000e8:	e28db004 	add	fp, sp, #4
230000ec:	e24dd008 	sub	sp, sp, #8
230000f0:	e1a03000 	mov	r3, r0
230000f4:	e54b3005 	strb	r3, [fp, #-5]
230000f8:	e59f3034 	ldr	r3, [pc, #52]	; 23000134 <uart_putc+0x50>
230000fc:	e5933000 	ldr	r3, [r3]
23000100:	e2033002 	and	r3, r3, #2
23000104:	e3530000 	cmp	r3, #0
23000108:	0afffffa 	beq	230000f8 <uart_putc+0x14>
2300010c:	e59f3024 	ldr	r3, [pc, #36]	; 23000138 <uart_putc+0x54>
23000110:	e55b2005 	ldrb	r2, [fp, #-5]
23000114:	e5832000 	str	r2, [r3]
23000118:	e55b3005 	ldrb	r3, [fp, #-5]
2300011c:	e353000a 	cmp	r3, #10
23000120:	1a000001 	bne	2300012c <uart_putc+0x48>
23000124:	e3a0000d 	mov	r0, #13
23000128:	ebffffed 	bl	230000e4 <uart_putc>
2300012c:	e24bd004 	sub	sp, fp, #4
23000130:	e8bd8800 	pop	{fp, pc}
23000134:	e2900010 	adds	r0, r0, #16
23000138:	e2900020 	adds	r0, r0, #32

2300013c <uart_puts>:
2300013c:	e92d4800 	push	{fp, lr}
23000140:	e28db004 	add	fp, sp, #4
23000144:	e24dd008 	sub	sp, sp, #8
23000148:	e50b0008 	str	r0, [fp, #-8]
2300014c:	ea000006 	b	2300016c <uart_puts+0x30>
23000150:	e51b3008 	ldr	r3, [fp, #-8]
23000154:	e5d33000 	ldrb	r3, [r3]
23000158:	e1a00003 	mov	r0, r3
2300015c:	ebffffe0 	bl	230000e4 <uart_putc>
23000160:	e51b3008 	ldr	r3, [fp, #-8]
23000164:	e2833001 	add	r3, r3, #1
23000168:	e50b3008 	str	r3, [fp, #-8]
2300016c:	e51b3008 	ldr	r3, [fp, #-8]
23000170:	e5d33000 	ldrb	r3, [r3]
23000174:	e3530000 	cmp	r3, #0
23000178:	1afffff4 	bne	23000150 <uart_puts+0x14>
2300017c:	e24bd004 	sub	sp, fp, #4
23000180:	e8bd8800 	pop	{fp, pc}

23000184 <uart_getc>:
23000184:	e52db004 	push	{fp}		; (str fp, [sp, #-4]!)
23000188:	e28db000 	add	fp, sp, #0
2300018c:	e59f3028 	ldr	r3, [pc, #40]	; 230001bc <uart_getc+0x38>
23000190:	e5933000 	ldr	r3, [r3]
23000194:	e2033001 	and	r3, r3, #1
23000198:	e3530000 	cmp	r3, #0
2300019c:	0afffffa 	beq	2300018c <uart_getc+0x8>
230001a0:	e59f3018 	ldr	r3, [pc, #24]	; 230001c0 <uart_getc+0x3c>
230001a4:	e5933000 	ldr	r3, [r3]
230001a8:	e20330ff 	and	r3, r3, #255	; 0xff
230001ac:	e1a00003 	mov	r0, r3
230001b0:	e28bd000 	add	sp, fp, #0
230001b4:	e8bd0800 	pop	{fp}
230001b8:	e12fff1e 	bx	lr
230001bc:	e2900010 	adds	r0, r0, #16
230001c0:	e2900024 	adds	r0, r0, #36	; 0x24

230001c4 <uart_gets>:
230001c4:	e92d4800 	push	{fp, lr}
230001c8:	e28db004 	add	fp, sp, #4
230001cc:	e24dd010 	sub	sp, sp, #16
230001d0:	e50b0010 	str	r0, [fp, #-16]
230001d4:	e50b1014 	str	r1, [fp, #-20]
230001d8:	e3a03000 	mov	r3, #0
230001dc:	e50b300c 	str	r3, [fp, #-12]
230001e0:	e3a03000 	mov	r3, #0
230001e4:	e54b3005 	strb	r3, [fp, #-5]
230001e8:	ea000010 	b	23000230 <uart_gets+0x6c>
230001ec:	ebffffe4 	bl	23000184 <uart_getc>
230001f0:	e1a03000 	mov	r3, r0
230001f4:	e54b3005 	strb	r3, [fp, #-5]
230001f8:	e55b3005 	ldrb	r3, [fp, #-5]
230001fc:	e1a00003 	mov	r0, r3
23000200:	ebffffb7 	bl	230000e4 <uart_putc>
23000204:	e51b200c 	ldr	r2, [fp, #-12]
23000208:	e51b3010 	ldr	r3, [fp, #-16]
2300020c:	e0823003 	add	r3, r2, r3
23000210:	e55b2005 	ldrb	r2, [fp, #-5]
23000214:	e5c32000 	strb	r2, [r3]
23000218:	e55b3005 	ldrb	r3, [fp, #-5]
2300021c:	e353000d 	cmp	r3, #13
23000220:	0a000008 	beq	23000248 <uart_gets+0x84>
23000224:	e51b300c 	ldr	r3, [fp, #-12]
23000228:	e2833001 	add	r3, r3, #1
2300022c:	e50b300c 	str	r3, [fp, #-12]
23000230:	e51b3014 	ldr	r3, [fp, #-20]
23000234:	e2432001 	sub	r2, r3, #1
23000238:	e51b300c 	ldr	r3, [fp, #-12]
2300023c:	e1520003 	cmp	r2, r3
23000240:	caffffe9 	bgt	230001ec <uart_gets+0x28>
23000244:	ea000000 	b	2300024c <uart_gets+0x88>
23000248:	e1a00000 	nop			; (mov r0, r0)
2300024c:	e51b200c 	ldr	r2, [fp, #-12]
23000250:	e51b3010 	ldr	r3, [fp, #-16]
23000254:	e0823003 	add	r3, r2, r3
23000258:	e3a02000 	mov	r2, #0
2300025c:	e5c32000 	strb	r2, [r3]
23000260:	e24bd004 	sub	sp, fp, #4
23000264:	e8bd8800 	pop	{fp, pc}

Disassembly of section .rodata:

23000268 <.rodata>:
23000268:	6c50200a 	mrrcvs	0, 0, r2, r0, cr10
2300026c:	65736165 	ldrbvs	r6, [r3, #-357]!	; 0x165
23000270:	706e6920 	rsbvc	r6, lr, r0, lsr #18
23000274:	73207475 	teqvc	r0, #1962934272	; 0x75000000
23000278:	6e697274 	mcrvs	2, 3, r7, cr9, cr4, {3}
2300027c:	000a3a67 	andeq	r3, sl, r7, ror #20
23000280:	6f79200a 	svcvs	0x0079200a
23000284:	6e692075 	mcrvs	0, 3, r2, cr9, cr5, {3}
23000288:	20747570 	rsbscs	r7, r4, r0, ror r5
2300028c:	69727473 	ldmdbvs	r2!, {r0, r1, r4, r5, r6, sl, ip, sp, lr}^
23000290:	003a676e 	eorseq	r6, sl, lr, ror #14

Disassembly of section .bss:

23000294 <buf>:
	...

Disassembly of section .comment:

00000000 <.comment>:
   0:	43434700 	movtmi	r4, #14080	; 0x3700
   4:	5328203a 	teqpl	r8, #58	; 0x3a
   8:	6372756f 	cmnvs	r2, #465567744	; 0x1bc00000
   c:	20797265 	rsbscs	r7, r9, r5, ror #4
  10:	202b2b47 	eorcs	r2, fp, r7, asr #22
  14:	6574694c 	ldrbvs	r6, [r4, #-2380]!	; 0x94c
  18:	30303220 	eorscc	r3, r0, r0, lsr #4
  1c:	2d337139 	ldfcss	f7, [r3, #-228]!	; 0xffffff1c
  20:	20293736 	eorcs	r3, r9, r6, lsr r7
  24:	2e342e34 	mrccs	14, 1, r2, cr4, cr4, {1}
  28:	47000031 	smladxmi	r0, r1, r0, r0
  2c:	203a4343 	eorscs	r4, sl, r3, asr #6
  30:	756f5328 	strbvc	r5, [pc, #-808]!	; fffffd10 <buf+0xdcfffa7c>
  34:	72656372 	rsbvc	r6, r5, #-939524095	; 0xc8000001
  38:	2b472079 	blcs	11c8224 <main-0x21e37ddc>
  3c:	694c202b 	stmdbvs	ip, {r0, r1, r3, r5, sp}^
  40:	32206574 	eorcc	r6, r0, #486539264	; 0x1d000000
  44:	71393030 	teqvc	r9, r0, lsr r0
  48:	37362d33 	undefined instruction 0x37362d33
  4c:	2e342029 	cdpcs	0, 3, cr2, cr4, cr9, {1}
  50:	00312e34 	eorseq	r2, r1, r4, lsr lr

Disassembly of section .ARM.attributes:

00000000 <.ARM.attributes>:
   0:	00002a41 	andeq	r2, r0, r1, asr #20
   4:	61656100 	cmnvs	r5, r0, lsl #2
   8:	01006962 	tsteq	r0, r2, ror #18
   c:	00000020 	andeq	r0, r0, r0, lsr #32
  10:	45543505 	ldrbmi	r3, [r4, #-1285]	; 0x505
  14:	08040600 	stmdaeq	r4, {r9, sl}
  18:	12010901 	andne	r0, r1, #16384	; 0x4000
  1c:	15011404 	strne	r1, [r1, #-1028]	; 0x404
  20:	18031701 	stmdane	r3, {r0, r8, r9, sl, ip}
  24:	1a011901 	bne	46430 <main-0x22fb9bd0>
  28:	Address 0x00000028 is out of bounds.

