
iic.elf:     file format elf32-littlearm


Disassembly of section .text:

40008000 <_start>:
40008000:	ea00000d 	b	4000803c <reset>
40008004:	e59ff014 	ldr	pc, [pc, #20]	; 40008020 <_undefined_instruction>
40008008:	e59ff014 	ldr	pc, [pc, #20]	; 40008024 <_software_interrupt>
4000800c:	e59ff014 	ldr	pc, [pc, #20]	; 40008028 <_prefetch_abort>
40008010:	e59ff014 	ldr	pc, [pc, #20]	; 4000802c <_data_abort>
40008014:	e59ff014 	ldr	pc, [pc, #20]	; 40008030 <_not_used>
40008018:	e59ff014 	ldr	pc, [pc, #20]	; 40008034 <_irq>
4000801c:	e59ff014 	ldr	pc, [pc, #20]	; 40008038 <_fiq>

40008020 <_undefined_instruction>:
40008020:	40008020 	andmi	r8, r0, r0, lsr #32

40008024 <_software_interrupt>:
40008024:	40008024 	andmi	r8, r0, r4, lsr #32

40008028 <_prefetch_abort>:
40008028:	40008028 	andmi	r8, r0, r8, lsr #32

4000802c <_data_abort>:
4000802c:	4000802c 	andmi	r8, r0, ip, lsr #32

40008030 <_not_used>:
40008030:	40008030 	andmi	r8, r0, r0, lsr r0

40008034 <_irq>:
40008034:	40008110 	andmi	r8, r0, r0, lsl r1

40008038 <_fiq>:
40008038:	40008038 	andmi	r8, r0, r8, lsr r0

4000803c <reset>:
4000803c:	e59f00e0 	ldr	r0, [pc, #224]	; 40008124 <stacktop+0x4>
40008040:	ee0c0f10 	mcr	15, 0, r0, cr12, cr0, {0}
40008044:	e10f0000 	mrs	r0, CPSR
40008048:	e3c0001f 	bic	r0, r0, #31
4000804c:	e38000d3 	orr	r0, r0, #211	; 0xd3
40008050:	e129f000 	msr	CPSR_fc, r0
40008054:	e3e0020f 	mvn	r0, #-268435456	; 0xf0000000
40008058:	ee010f50 	mcr	15, 0, r0, cr1, cr0, {2}
4000805c:	e3a00000 	mov	r0, #0
40008060:	ee080f17 	mcr	15, 0, r0, cr8, cr7, {0}
40008064:	ee070f15 	mcr	15, 0, r0, cr7, cr5, {0}
40008068:	e3a03101 	mov	r3, #1073741824	; 0x40000000
4000806c:	eee83a10 	vmsr	fpexc, r3
40008070:	ee110f10 	mrc	15, 0, r0, cr1, cr0, {0}
40008074:	e3c00a02 	bic	r0, r0, #8192	; 0x2000
40008078:	e3c00007 	bic	r0, r0, #7
4000807c:	e3800a01 	orr	r0, r0, #4096	; 0x1000
40008080:	e3800002 	orr	r0, r0, #2
40008084:	e3800b02 	orr	r0, r0, #2048	; 0x800
40008088:	ee010f10 	mcr	15, 0, r0, cr1, cr0, {0}
4000808c:	e59f0094 	ldr	r0, [pc, #148]	; 40008128 <stacktop+0x8>
40008090:	e5901000 	ldr	r1, [r0]
40008094:	e3c1180f 	bic	r1, r1, #983040	; 0xf0000
40008098:	e3811801 	orr	r1, r1, #65536	; 0x10000
4000809c:	e5801000 	str	r1, [r0]
400080a0:	e59f0084 	ldr	r0, [pc, #132]	; 4000812c <stacktop+0xc>
400080a4:	e5901000 	ldr	r1, [r0]
400080a8:	e3c11c03 	bic	r1, r1, #768	; 0x300
400080ac:	e5801000 	str	r1, [r0]
400080b0:	e59f0078 	ldr	r0, [pc, #120]	; 40008130 <stacktop+0x10>
400080b4:	e5901000 	ldr	r1, [r0]
400080b8:	e3811010 	orr	r1, r1, #16
400080bc:	e5801000 	str	r1, [r0]

400080c0 <init_stack>:
400080c0:	e59f0058 	ldr	r0, [pc, #88]	; 40008120 <stacktop>
400080c4:	e1a0d000 	mov	sp, r0
400080c8:	e2400c02 	sub	r0, r0, #512	; 0x200
400080cc:	e329f0d2 	msr	CPSR_fc, #210	; 0xd2
400080d0:	e1a0d000 	mov	sp, r0
400080d4:	e2400c02 	sub	r0, r0, #512	; 0x200
400080d8:	e329f0d1 	msr	CPSR_fc, #209	; 0xd1
400080dc:	e1a0d000 	mov	sp, r0
400080e0:	e2400000 	sub	r0, r0, #0
400080e4:	e329f0d7 	msr	CPSR_fc, #215	; 0xd7
400080e8:	e1a0d000 	mov	sp, r0
400080ec:	e2400000 	sub	r0, r0, #0
400080f0:	e329f0db 	msr	CPSR_fc, #219	; 0xdb
400080f4:	e1a0d000 	mov	sp, r0
400080f8:	e2400000 	sub	r0, r0, #0
400080fc:	e329f010 	msr	CPSR_fc, #16
40008100:	e1a0d000 	mov	sp, r0
40008104:	ea00063f 	b	40009a08 <main>
40008108:	e1a00000 	nop			; (mov r0, r0)
4000810c:	e1a00000 	nop			; (mov r0, r0)

40008110 <irq_handler>:
40008110:	e24ee004 	sub	lr, lr, #4
40008114:	e92d5fff 	push	{r0, r1, r2, r3, r4, r5, r6, r7, r8, r9, sl, fp, ip, lr}
40008118:	e1a00000 	nop			; (mov r0, r0)
4000811c:	e8fd9fff 	ldm	sp!, {r0, r1, r2, r3, r4, r5, r6, r7, r8, r9, sl, fp, ip, pc}^

40008120 <stacktop>:
40008120:	4000a36c 	andmi	sl, r0, ip, ror #6
40008124:	40008000 	andmi	r8, r0, r0
40008128:	114001e0 	smlalttne	r0, r0, r0, r1	; <UNPREDICTABLE>
4000812c:	114001e8 	smlalttne	r0, r0, r8, r1	; <UNPREDICTABLE>
40008130:	114001e4 	smlalttne	r0, r0, r4, r1	; <UNPREDICTABLE>
40008134:	e1a00000 	nop			; (mov r0, r0)
40008138:	e1a00000 	nop			; (mov r0, r0)
4000813c:	e1a00000 	nop			; (mov r0, r0)

40008140 <__toupper>:
40008140:	e52db004 	push	{fp}		; (str fp, [sp, #-4]!)
40008144:	e28db000 	add	fp, sp, #0
40008148:	e24dd004 	sub	sp, sp, #4
4000814c:	e1a03000 	mov	r3, r0
40008150:	e54b3004 	strb	r3, [fp, #-4]
40008154:	e55b3004 	ldrb	r3, [fp, #-4]
40008158:	e59f202c 	ldr	r2, [pc, #44]	; 4000818c <__toupper+0x4c>
4000815c:	e7d23003 	ldrb	r3, [r2, r3]
40008160:	e2033002 	and	r3, r3, #2
40008164:	e3530000 	cmp	r3, #0
40008168:	0a000002 	beq	40008178 <__toupper+0x38>
4000816c:	e55b3004 	ldrb	r3, [fp, #-4]
40008170:	e2433020 	sub	r3, r3, #32
40008174:	e54b3004 	strb	r3, [fp, #-4]
40008178:	e55b3004 	ldrb	r3, [fp, #-4]
4000817c:	e1a00003 	mov	r0, r3
40008180:	e28bd000 	add	sp, fp, #0
40008184:	e8bd0800 	ldmfd	sp!, {fp}
40008188:	e12fff1e 	bx	lr
4000818c:	4000a36c 	andmi	sl, r0, ip, ror #6

40008190 <simple_strtoul>:
40008190:	e92d4800 	push	{fp, lr}
40008194:	e28db004 	add	fp, sp, #4
40008198:	e24dd014 	sub	sp, sp, #20
4000819c:	e50b0010 	str	r0, [fp, #-16]
400081a0:	e50b1014 	str	r1, [fp, #-20]	; 0xffffffec
400081a4:	e50b2018 	str	r2, [fp, #-24]	; 0xffffffe8
400081a8:	e3a03000 	mov	r3, #0
400081ac:	e50b3008 	str	r3, [fp, #-8]
400081b0:	e51b3010 	ldr	r3, [fp, #-16]
400081b4:	e5d33000 	ldrb	r3, [r3]
400081b8:	e3530030 	cmp	r3, #48	; 0x30
400081bc:	1a000018 	bne	40008224 <simple_strtoul+0x94>
400081c0:	e51b3010 	ldr	r3, [fp, #-16]
400081c4:	e2833001 	add	r3, r3, #1
400081c8:	e50b3010 	str	r3, [fp, #-16]
400081cc:	e51b3010 	ldr	r3, [fp, #-16]
400081d0:	e5d33000 	ldrb	r3, [r3]
400081d4:	e3530078 	cmp	r3, #120	; 0x78
400081d8:	1a00000c 	bne	40008210 <simple_strtoul+0x80>
400081dc:	e51b3010 	ldr	r3, [fp, #-16]
400081e0:	e2833001 	add	r3, r3, #1
400081e4:	e5d33000 	ldrb	r3, [r3]
400081e8:	e59f2140 	ldr	r2, [pc, #320]	; 40008330 <simple_strtoul+0x1a0>
400081ec:	e7d23003 	ldrb	r3, [r2, r3]
400081f0:	e2033044 	and	r3, r3, #68	; 0x44
400081f4:	e3530000 	cmp	r3, #0
400081f8:	0a000004 	beq	40008210 <simple_strtoul+0x80>
400081fc:	e3a03010 	mov	r3, #16
40008200:	e50b3018 	str	r3, [fp, #-24]	; 0xffffffe8
40008204:	e51b3010 	ldr	r3, [fp, #-16]
40008208:	e2833001 	add	r3, r3, #1
4000820c:	e50b3010 	str	r3, [fp, #-16]
40008210:	e51b3018 	ldr	r3, [fp, #-24]	; 0xffffffe8
40008214:	e3530000 	cmp	r3, #0
40008218:	1a000001 	bne	40008224 <simple_strtoul+0x94>
4000821c:	e3a03008 	mov	r3, #8
40008220:	e50b3018 	str	r3, [fp, #-24]	; 0xffffffe8
40008224:	e51b3018 	ldr	r3, [fp, #-24]	; 0xffffffe8
40008228:	e3530000 	cmp	r3, #0
4000822c:	1a00000c 	bne	40008264 <simple_strtoul+0xd4>
40008230:	e3a0300a 	mov	r3, #10
40008234:	e50b3018 	str	r3, [fp, #-24]	; 0xffffffe8
40008238:	ea000009 	b	40008264 <simple_strtoul+0xd4>
4000823c:	e51b3008 	ldr	r3, [fp, #-8]
40008240:	e51b2018 	ldr	r2, [fp, #-24]	; 0xffffffe8
40008244:	e0020293 	mul	r2, r3, r2
40008248:	e51b300c 	ldr	r3, [fp, #-12]
4000824c:	e0823003 	add	r3, r2, r3
40008250:	e50b3008 	str	r3, [fp, #-8]
40008254:	e51b3010 	ldr	r3, [fp, #-16]
40008258:	e2833001 	add	r3, r3, #1
4000825c:	e50b3010 	str	r3, [fp, #-16]
40008260:	ea000000 	b	40008268 <simple_strtoul+0xd8>
40008264:	e1a00000 	nop			; (mov r0, r0)
40008268:	e51b3010 	ldr	r3, [fp, #-16]
4000826c:	e5d33000 	ldrb	r3, [r3]
40008270:	e59f20b8 	ldr	r2, [pc, #184]	; 40008330 <simple_strtoul+0x1a0>
40008274:	e7d23003 	ldrb	r3, [r2, r3]
40008278:	e2033044 	and	r3, r3, #68	; 0x44
4000827c:	e3530000 	cmp	r3, #0
40008280:	0a000020 	beq	40008308 <simple_strtoul+0x178>
40008284:	e51b3010 	ldr	r3, [fp, #-16]
40008288:	e5d33000 	ldrb	r3, [r3]
4000828c:	e59f209c 	ldr	r2, [pc, #156]	; 40008330 <simple_strtoul+0x1a0>
40008290:	e7d23003 	ldrb	r3, [r2, r3]
40008294:	e2033004 	and	r3, r3, #4
40008298:	e3530000 	cmp	r3, #0
4000829c:	0a000003 	beq	400082b0 <simple_strtoul+0x120>
400082a0:	e51b3010 	ldr	r3, [fp, #-16]
400082a4:	e5d33000 	ldrb	r3, [r3]
400082a8:	e2433030 	sub	r3, r3, #48	; 0x30
400082ac:	ea000010 	b	400082f4 <simple_strtoul+0x164>
400082b0:	e51b3010 	ldr	r3, [fp, #-16]
400082b4:	e5d33000 	ldrb	r3, [r3]
400082b8:	e59f2070 	ldr	r2, [pc, #112]	; 40008330 <simple_strtoul+0x1a0>
400082bc:	e7d23003 	ldrb	r3, [r2, r3]
400082c0:	e2033002 	and	r3, r3, #2
400082c4:	e3530000 	cmp	r3, #0
400082c8:	0a000006 	beq	400082e8 <simple_strtoul+0x158>
400082cc:	e51b3010 	ldr	r3, [fp, #-16]
400082d0:	e5d33000 	ldrb	r3, [r3]
400082d4:	e1a00003 	mov	r0, r3
400082d8:	ebffff98 	bl	40008140 <__toupper>
400082dc:	e1a03000 	mov	r3, r0
400082e0:	e2433037 	sub	r3, r3, #55	; 0x37
400082e4:	ea000002 	b	400082f4 <simple_strtoul+0x164>
400082e8:	e51b3010 	ldr	r3, [fp, #-16]
400082ec:	e5d33000 	ldrb	r3, [r3]
400082f0:	e2433037 	sub	r3, r3, #55	; 0x37
400082f4:	e50b300c 	str	r3, [fp, #-12]
400082f8:	e51b200c 	ldr	r2, [fp, #-12]
400082fc:	e51b3018 	ldr	r3, [fp, #-24]	; 0xffffffe8
40008300:	e1520003 	cmp	r2, r3
40008304:	3affffcc 	bcc	4000823c <simple_strtoul+0xac>
40008308:	e51b3014 	ldr	r3, [fp, #-20]	; 0xffffffec
4000830c:	e3530000 	cmp	r3, #0
40008310:	0a000002 	beq	40008320 <simple_strtoul+0x190>
40008314:	e51b3014 	ldr	r3, [fp, #-20]	; 0xffffffec
40008318:	e51b2010 	ldr	r2, [fp, #-16]
4000831c:	e5832000 	str	r2, [r3]
40008320:	e51b3008 	ldr	r3, [fp, #-8]
40008324:	e1a00003 	mov	r0, r3
40008328:	e24bd004 	sub	sp, fp, #4
4000832c:	e8bd8800 	pop	{fp, pc}
40008330:	4000a36c 	andmi	sl, r0, ip, ror #6

40008334 <simple_strtol>:
40008334:	e92d4800 	push	{fp, lr}
40008338:	e28db004 	add	fp, sp, #4
4000833c:	e24dd00c 	sub	sp, sp, #12
40008340:	e50b0008 	str	r0, [fp, #-8]
40008344:	e50b100c 	str	r1, [fp, #-12]
40008348:	e50b2010 	str	r2, [fp, #-16]
4000834c:	e51b3008 	ldr	r3, [fp, #-8]
40008350:	e5d33000 	ldrb	r3, [r3]
40008354:	e353002d 	cmp	r3, #45	; 0x2d
40008358:	1a000008 	bne	40008380 <simple_strtol+0x4c>
4000835c:	e51b3008 	ldr	r3, [fp, #-8]
40008360:	e2833001 	add	r3, r3, #1
40008364:	e1a00003 	mov	r0, r3
40008368:	e51b100c 	ldr	r1, [fp, #-12]
4000836c:	e51b2010 	ldr	r2, [fp, #-16]
40008370:	ebffff86 	bl	40008190 <simple_strtoul>
40008374:	e1a03000 	mov	r3, r0
40008378:	e2633000 	rsb	r3, r3, #0
4000837c:	ea000004 	b	40008394 <simple_strtol+0x60>
40008380:	e51b0008 	ldr	r0, [fp, #-8]
40008384:	e51b100c 	ldr	r1, [fp, #-12]
40008388:	e51b2010 	ldr	r2, [fp, #-16]
4000838c:	ebffff7f 	bl	40008190 <simple_strtoul>
40008390:	e1a03000 	mov	r3, r0
40008394:	e1a00003 	mov	r0, r3
40008398:	e24bd004 	sub	sp, fp, #4
4000839c:	e8bd8800 	pop	{fp, pc}

400083a0 <skip_atoi>:
400083a0:	e52db004 	push	{fp}		; (str fp, [sp, #-4]!)
400083a4:	e28db000 	add	fp, sp, #0
400083a8:	e24dd008 	sub	sp, sp, #8
400083ac:	e50b0008 	str	r0, [fp, #-8]
400083b0:	e3a03000 	mov	r3, #0
400083b4:	e50b3004 	str	r3, [fp, #-4]
400083b8:	ea00000e 	b	400083f8 <skip_atoi+0x58>
400083bc:	e51b2004 	ldr	r2, [fp, #-4]
400083c0:	e1a03002 	mov	r3, r2
400083c4:	e1a03103 	lsl	r3, r3, #2
400083c8:	e0833002 	add	r3, r3, r2
400083cc:	e1a03083 	lsl	r3, r3, #1
400083d0:	e1a01003 	mov	r1, r3
400083d4:	e51b3008 	ldr	r3, [fp, #-8]
400083d8:	e5933000 	ldr	r3, [r3]
400083dc:	e5d32000 	ldrb	r2, [r3]
400083e0:	e0812002 	add	r2, r1, r2
400083e4:	e2422030 	sub	r2, r2, #48	; 0x30
400083e8:	e50b2004 	str	r2, [fp, #-4]
400083ec:	e2832001 	add	r2, r3, #1
400083f0:	e51b3008 	ldr	r3, [fp, #-8]
400083f4:	e5832000 	str	r2, [r3]
400083f8:	e51b3008 	ldr	r3, [fp, #-8]
400083fc:	e5933000 	ldr	r3, [r3]
40008400:	e5d33000 	ldrb	r3, [r3]
40008404:	e353002f 	cmp	r3, #47	; 0x2f
40008408:	9a000004 	bls	40008420 <skip_atoi+0x80>
4000840c:	e51b3008 	ldr	r3, [fp, #-8]
40008410:	e5933000 	ldr	r3, [r3]
40008414:	e5d33000 	ldrb	r3, [r3]
40008418:	e3530039 	cmp	r3, #57	; 0x39
4000841c:	9affffe6 	bls	400083bc <skip_atoi+0x1c>
40008420:	e51b3004 	ldr	r3, [fp, #-4]
40008424:	e1a00003 	mov	r0, r3
40008428:	e28bd000 	add	sp, fp, #0
4000842c:	e8bd0800 	ldmfd	sp!, {fp}
40008430:	e12fff1e 	bx	lr

40008434 <number>:
40008434:	e92d4800 	push	{fp, lr}
40008438:	e28db004 	add	fp, sp, #4
4000843c:	e24dd068 	sub	sp, sp, #104	; 0x68
40008440:	e50b0060 	str	r0, [fp, #-96]	; 0xffffffa0
40008444:	e50b1064 	str	r1, [fp, #-100]	; 0xffffff9c
40008448:	e50b2068 	str	r2, [fp, #-104]	; 0xffffff98
4000844c:	e50b306c 	str	r3, [fp, #-108]	; 0xffffff94
40008450:	e59f3464 	ldr	r3, [pc, #1124]	; 400088bc <number+0x488>
40008454:	e50b300c 	str	r3, [fp, #-12]
40008458:	e59b3008 	ldr	r3, [fp, #8]
4000845c:	e2033040 	and	r3, r3, #64	; 0x40
40008460:	e3530000 	cmp	r3, #0
40008464:	0a000001 	beq	40008470 <number+0x3c>
40008468:	e59f3450 	ldr	r3, [pc, #1104]	; 400088c0 <number+0x48c>
4000846c:	e50b300c 	str	r3, [fp, #-12]
40008470:	e59b3008 	ldr	r3, [fp, #8]
40008474:	e2033010 	and	r3, r3, #16
40008478:	e3530000 	cmp	r3, #0
4000847c:	0a000002 	beq	4000848c <number+0x58>
40008480:	e59b3008 	ldr	r3, [fp, #8]
40008484:	e3c33001 	bic	r3, r3, #1
40008488:	e58b3008 	str	r3, [fp, #8]
4000848c:	e51b3068 	ldr	r3, [fp, #-104]	; 0xffffff98
40008490:	e3530001 	cmp	r3, #1
40008494:	9a000002 	bls	400084a4 <number+0x70>
40008498:	e51b3068 	ldr	r3, [fp, #-104]	; 0xffffff98
4000849c:	e3530024 	cmp	r3, #36	; 0x24
400084a0:	9a000001 	bls	400084ac <number+0x78>
400084a4:	e3a03000 	mov	r3, #0
400084a8:	ea000100 	b	400088b0 <number+0x47c>
400084ac:	e59b3008 	ldr	r3, [fp, #8]
400084b0:	e2033001 	and	r3, r3, #1
400084b4:	e3530000 	cmp	r3, #0
400084b8:	0a000001 	beq	400084c4 <number+0x90>
400084bc:	e3a03030 	mov	r3, #48	; 0x30
400084c0:	ea000000 	b	400084c8 <number+0x94>
400084c4:	e3a03020 	mov	r3, #32
400084c8:	e54b3011 	strb	r3, [fp, #-17]	; 0xffffffef
400084cc:	e3a03000 	mov	r3, #0
400084d0:	e54b3005 	strb	r3, [fp, #-5]
400084d4:	e59b3008 	ldr	r3, [fp, #8]
400084d8:	e2033002 	and	r3, r3, #2
400084dc:	e3530000 	cmp	r3, #0
400084e0:	0a00001e 	beq	40008560 <number+0x12c>
400084e4:	e51b3064 	ldr	r3, [fp, #-100]	; 0xffffff9c
400084e8:	e3530000 	cmp	r3, #0
400084ec:	aa000008 	bge	40008514 <number+0xe0>
400084f0:	e3a0302d 	mov	r3, #45	; 0x2d
400084f4:	e54b3005 	strb	r3, [fp, #-5]
400084f8:	e51b3064 	ldr	r3, [fp, #-100]	; 0xffffff9c
400084fc:	e2633000 	rsb	r3, r3, #0
40008500:	e50b3064 	str	r3, [fp, #-100]	; 0xffffff9c
40008504:	e51b306c 	ldr	r3, [fp, #-108]	; 0xffffff94
40008508:	e2433001 	sub	r3, r3, #1
4000850c:	e50b306c 	str	r3, [fp, #-108]	; 0xffffff94
40008510:	ea000012 	b	40008560 <number+0x12c>
40008514:	e59b3008 	ldr	r3, [fp, #8]
40008518:	e2033004 	and	r3, r3, #4
4000851c:	e3530000 	cmp	r3, #0
40008520:	0a000005 	beq	4000853c <number+0x108>
40008524:	e3a0302b 	mov	r3, #43	; 0x2b
40008528:	e54b3005 	strb	r3, [fp, #-5]
4000852c:	e51b306c 	ldr	r3, [fp, #-108]	; 0xffffff94
40008530:	e2433001 	sub	r3, r3, #1
40008534:	e50b306c 	str	r3, [fp, #-108]	; 0xffffff94
40008538:	ea000008 	b	40008560 <number+0x12c>
4000853c:	e59b3008 	ldr	r3, [fp, #8]
40008540:	e2033008 	and	r3, r3, #8
40008544:	e3530000 	cmp	r3, #0
40008548:	0a000004 	beq	40008560 <number+0x12c>
4000854c:	e3a03020 	mov	r3, #32
40008550:	e54b3005 	strb	r3, [fp, #-5]
40008554:	e51b306c 	ldr	r3, [fp, #-108]	; 0xffffff94
40008558:	e2433001 	sub	r3, r3, #1
4000855c:	e50b306c 	str	r3, [fp, #-108]	; 0xffffff94
40008560:	e59b3008 	ldr	r3, [fp, #8]
40008564:	e2033020 	and	r3, r3, #32
40008568:	e3530000 	cmp	r3, #0
4000856c:	0a00000c 	beq	400085a4 <number+0x170>
40008570:	e51b3068 	ldr	r3, [fp, #-104]	; 0xffffff98
40008574:	e3530010 	cmp	r3, #16
40008578:	1a000003 	bne	4000858c <number+0x158>
4000857c:	e51b306c 	ldr	r3, [fp, #-108]	; 0xffffff94
40008580:	e2433002 	sub	r3, r3, #2
40008584:	e50b306c 	str	r3, [fp, #-108]	; 0xffffff94
40008588:	ea000005 	b	400085a4 <number+0x170>
4000858c:	e51b3068 	ldr	r3, [fp, #-104]	; 0xffffff98
40008590:	e3530008 	cmp	r3, #8
40008594:	1a000002 	bne	400085a4 <number+0x170>
40008598:	e51b306c 	ldr	r3, [fp, #-108]	; 0xffffff94
4000859c:	e2433001 	sub	r3, r3, #1
400085a0:	e50b306c 	str	r3, [fp, #-108]	; 0xffffff94
400085a4:	e3a03000 	mov	r3, #0
400085a8:	e50b3010 	str	r3, [fp, #-16]
400085ac:	e51b3064 	ldr	r3, [fp, #-100]	; 0xffffff9c
400085b0:	e3530000 	cmp	r3, #0
400085b4:	1a000027 	bne	40008658 <number+0x224>
400085b8:	e3e03057 	mvn	r3, #87	; 0x57
400085bc:	e51b2010 	ldr	r2, [fp, #-16]
400085c0:	e24b0004 	sub	r0, fp, #4
400085c4:	e0802002 	add	r2, r0, r2
400085c8:	e0823003 	add	r3, r2, r3
400085cc:	e3a02030 	mov	r2, #48	; 0x30
400085d0:	e5c32000 	strb	r2, [r3]
400085d4:	e51b3010 	ldr	r3, [fp, #-16]
400085d8:	e2833001 	add	r3, r3, #1
400085dc:	e50b3010 	str	r3, [fp, #-16]
400085e0:	ea00001f 	b	40008664 <number+0x230>
400085e4:	e51b2010 	ldr	r2, [fp, #-16]
400085e8:	e59b3004 	ldr	r3, [fp, #4]
400085ec:	e1520003 	cmp	r2, r3
400085f0:	da000018 	ble	40008658 <number+0x224>
400085f4:	e51b3064 	ldr	r3, [fp, #-100]	; 0xffffff9c
400085f8:	e1a00003 	mov	r0, r3
400085fc:	e51b1068 	ldr	r1, [fp, #-104]	; 0xffffff98
40008600:	eb0003cb 	bl	40009534 <__umodsi3>
40008604:	e1a03000 	mov	r3, r0
40008608:	e50b3018 	str	r3, [fp, #-24]	; 0xffffffe8
4000860c:	e51b3064 	ldr	r3, [fp, #-100]	; 0xffffff9c
40008610:	e1a00003 	mov	r0, r3
40008614:	e51b1068 	ldr	r1, [fp, #-104]	; 0xffffff98
40008618:	eb0003f1 	bl	400095e4 <__udivsi3>
4000861c:	e1a03000 	mov	r3, r0
40008620:	e50b3064 	str	r3, [fp, #-100]	; 0xffffff9c
40008624:	e51b3018 	ldr	r3, [fp, #-24]	; 0xffffffe8
40008628:	e51b200c 	ldr	r2, [fp, #-12]
4000862c:	e0823003 	add	r3, r2, r3
40008630:	e5d32000 	ldrb	r2, [r3]
40008634:	e3e03057 	mvn	r3, #87	; 0x57
40008638:	e51b1010 	ldr	r1, [fp, #-16]
4000863c:	e24b0004 	sub	r0, fp, #4
40008640:	e0801001 	add	r1, r0, r1
40008644:	e0813003 	add	r3, r1, r3
40008648:	e5c32000 	strb	r2, [r3]
4000864c:	e51b3010 	ldr	r3, [fp, #-16]
40008650:	e2833001 	add	r3, r3, #1
40008654:	e50b3010 	str	r3, [fp, #-16]
40008658:	e51b3064 	ldr	r3, [fp, #-100]	; 0xffffff9c
4000865c:	e3530000 	cmp	r3, #0
40008660:	1affffdf 	bne	400085e4 <number+0x1b0>
40008664:	e51b3010 	ldr	r3, [fp, #-16]
40008668:	e58b3004 	str	r3, [fp, #4]
4000866c:	e51b206c 	ldr	r2, [fp, #-108]	; 0xffffff94
40008670:	e59b3004 	ldr	r3, [fp, #4]
40008674:	e0633002 	rsb	r3, r3, r2
40008678:	e50b306c 	str	r3, [fp, #-108]	; 0xffffff94
4000867c:	e59b3008 	ldr	r3, [fp, #8]
40008680:	e2033011 	and	r3, r3, #17
40008684:	e3530000 	cmp	r3, #0
40008688:	1a000010 	bne	400086d0 <number+0x29c>
4000868c:	ea000005 	b	400086a8 <number+0x274>
40008690:	e51b3060 	ldr	r3, [fp, #-96]	; 0xffffffa0
40008694:	e3a02020 	mov	r2, #32
40008698:	e5c32000 	strb	r2, [r3]
4000869c:	e51b3060 	ldr	r3, [fp, #-96]	; 0xffffffa0
400086a0:	e2833001 	add	r3, r3, #1
400086a4:	e50b3060 	str	r3, [fp, #-96]	; 0xffffffa0
400086a8:	e51b306c 	ldr	r3, [fp, #-108]	; 0xffffff94
400086ac:	e3530000 	cmp	r3, #0
400086b0:	d3a03000 	movle	r3, #0
400086b4:	c3a03001 	movgt	r3, #1
400086b8:	e20330ff 	and	r3, r3, #255	; 0xff
400086bc:	e51b206c 	ldr	r2, [fp, #-108]	; 0xffffff94
400086c0:	e2422001 	sub	r2, r2, #1
400086c4:	e50b206c 	str	r2, [fp, #-108]	; 0xffffff94
400086c8:	e3530000 	cmp	r3, #0
400086cc:	1affffef 	bne	40008690 <number+0x25c>
400086d0:	e55b3005 	ldrb	r3, [fp, #-5]
400086d4:	e3530000 	cmp	r3, #0
400086d8:	0a000005 	beq	400086f4 <number+0x2c0>
400086dc:	e51b3060 	ldr	r3, [fp, #-96]	; 0xffffffa0
400086e0:	e55b2005 	ldrb	r2, [fp, #-5]
400086e4:	e5c32000 	strb	r2, [r3]
400086e8:	e51b3060 	ldr	r3, [fp, #-96]	; 0xffffffa0
400086ec:	e2833001 	add	r3, r3, #1
400086f0:	e50b3060 	str	r3, [fp, #-96]	; 0xffffffa0
400086f4:	e59b3008 	ldr	r3, [fp, #8]
400086f8:	e2033020 	and	r3, r3, #32
400086fc:	e3530000 	cmp	r3, #0
40008700:	0a000019 	beq	4000876c <number+0x338>
40008704:	e51b3068 	ldr	r3, [fp, #-104]	; 0xffffff98
40008708:	e3530008 	cmp	r3, #8
4000870c:	1a000006 	bne	4000872c <number+0x2f8>
40008710:	e51b3060 	ldr	r3, [fp, #-96]	; 0xffffffa0
40008714:	e3a02030 	mov	r2, #48	; 0x30
40008718:	e5c32000 	strb	r2, [r3]
4000871c:	e51b3060 	ldr	r3, [fp, #-96]	; 0xffffffa0
40008720:	e2833001 	add	r3, r3, #1
40008724:	e50b3060 	str	r3, [fp, #-96]	; 0xffffffa0
40008728:	ea00000f 	b	4000876c <number+0x338>
4000872c:	e51b3068 	ldr	r3, [fp, #-104]	; 0xffffff98
40008730:	e3530010 	cmp	r3, #16
40008734:	1a00000c 	bne	4000876c <number+0x338>
40008738:	e51b3060 	ldr	r3, [fp, #-96]	; 0xffffffa0
4000873c:	e3a02030 	mov	r2, #48	; 0x30
40008740:	e5c32000 	strb	r2, [r3]
40008744:	e51b3060 	ldr	r3, [fp, #-96]	; 0xffffffa0
40008748:	e2833001 	add	r3, r3, #1
4000874c:	e50b3060 	str	r3, [fp, #-96]	; 0xffffffa0
40008750:	e51b300c 	ldr	r3, [fp, #-12]
40008754:	e5d32021 	ldrb	r2, [r3, #33]	; 0x21
40008758:	e51b3060 	ldr	r3, [fp, #-96]	; 0xffffffa0
4000875c:	e5c32000 	strb	r2, [r3]
40008760:	e51b3060 	ldr	r3, [fp, #-96]	; 0xffffffa0
40008764:	e2833001 	add	r3, r3, #1
40008768:	e50b3060 	str	r3, [fp, #-96]	; 0xffffffa0
4000876c:	e59b3008 	ldr	r3, [fp, #8]
40008770:	e2033010 	and	r3, r3, #16
40008774:	e3530000 	cmp	r3, #0
40008778:	1a000018 	bne	400087e0 <number+0x3ac>
4000877c:	ea000005 	b	40008798 <number+0x364>
40008780:	e51b3060 	ldr	r3, [fp, #-96]	; 0xffffffa0
40008784:	e55b2011 	ldrb	r2, [fp, #-17]	; 0xffffffef
40008788:	e5c32000 	strb	r2, [r3]
4000878c:	e51b3060 	ldr	r3, [fp, #-96]	; 0xffffffa0
40008790:	e2833001 	add	r3, r3, #1
40008794:	e50b3060 	str	r3, [fp, #-96]	; 0xffffffa0
40008798:	e51b306c 	ldr	r3, [fp, #-108]	; 0xffffff94
4000879c:	e3530000 	cmp	r3, #0
400087a0:	d3a03000 	movle	r3, #0
400087a4:	c3a03001 	movgt	r3, #1
400087a8:	e20330ff 	and	r3, r3, #255	; 0xff
400087ac:	e51b206c 	ldr	r2, [fp, #-108]	; 0xffffff94
400087b0:	e2422001 	sub	r2, r2, #1
400087b4:	e50b206c 	str	r2, [fp, #-108]	; 0xffffff94
400087b8:	e3530000 	cmp	r3, #0
400087bc:	1affffef 	bne	40008780 <number+0x34c>
400087c0:	ea000006 	b	400087e0 <number+0x3ac>
400087c4:	e51b3060 	ldr	r3, [fp, #-96]	; 0xffffffa0
400087c8:	e3a02030 	mov	r2, #48	; 0x30
400087cc:	e5c32000 	strb	r2, [r3]
400087d0:	e51b3060 	ldr	r3, [fp, #-96]	; 0xffffffa0
400087d4:	e2833001 	add	r3, r3, #1
400087d8:	e50b3060 	str	r3, [fp, #-96]	; 0xffffffa0
400087dc:	ea000000 	b	400087e4 <number+0x3b0>
400087e0:	e1a00000 	nop			; (mov r0, r0)
400087e4:	e59b2004 	ldr	r2, [fp, #4]
400087e8:	e51b3010 	ldr	r3, [fp, #-16]
400087ec:	e1520003 	cmp	r2, r3
400087f0:	d3a03000 	movle	r3, #0
400087f4:	c3a03001 	movgt	r3, #1
400087f8:	e20330ff 	and	r3, r3, #255	; 0xff
400087fc:	e59b2004 	ldr	r2, [fp, #4]
40008800:	e2422001 	sub	r2, r2, #1
40008804:	e58b2004 	str	r2, [fp, #4]
40008808:	e3530000 	cmp	r3, #0
4000880c:	1affffec 	bne	400087c4 <number+0x390>
40008810:	ea00000a 	b	40008840 <number+0x40c>
40008814:	e3e03057 	mvn	r3, #87	; 0x57
40008818:	e51b2010 	ldr	r2, [fp, #-16]
4000881c:	e24b1004 	sub	r1, fp, #4
40008820:	e0812002 	add	r2, r1, r2
40008824:	e0823003 	add	r3, r2, r3
40008828:	e5d32000 	ldrb	r2, [r3]
4000882c:	e51b3060 	ldr	r3, [fp, #-96]	; 0xffffffa0
40008830:	e5c32000 	strb	r2, [r3]
40008834:	e51b3060 	ldr	r3, [fp, #-96]	; 0xffffffa0
40008838:	e2833001 	add	r3, r3, #1
4000883c:	e50b3060 	str	r3, [fp, #-96]	; 0xffffffa0
40008840:	e51b3010 	ldr	r3, [fp, #-16]
40008844:	e3530000 	cmp	r3, #0
40008848:	d3a03000 	movle	r3, #0
4000884c:	c3a03001 	movgt	r3, #1
40008850:	e20330ff 	and	r3, r3, #255	; 0xff
40008854:	e51b2010 	ldr	r2, [fp, #-16]
40008858:	e2422001 	sub	r2, r2, #1
4000885c:	e50b2010 	str	r2, [fp, #-16]
40008860:	e3530000 	cmp	r3, #0
40008864:	1affffea 	bne	40008814 <number+0x3e0>
40008868:	ea000005 	b	40008884 <number+0x450>
4000886c:	e51b3060 	ldr	r3, [fp, #-96]	; 0xffffffa0
40008870:	e3a02020 	mov	r2, #32
40008874:	e5c32000 	strb	r2, [r3]
40008878:	e51b3060 	ldr	r3, [fp, #-96]	; 0xffffffa0
4000887c:	e2833001 	add	r3, r3, #1
40008880:	e50b3060 	str	r3, [fp, #-96]	; 0xffffffa0
40008884:	e51b306c 	ldr	r3, [fp, #-108]	; 0xffffff94
40008888:	e3530000 	cmp	r3, #0
4000888c:	d3a03000 	movle	r3, #0
40008890:	c3a03001 	movgt	r3, #1
40008894:	e20330ff 	and	r3, r3, #255	; 0xff
40008898:	e51b206c 	ldr	r2, [fp, #-108]	; 0xffffff94
4000889c:	e2422001 	sub	r2, r2, #1
400088a0:	e50b206c 	str	r2, [fp, #-108]	; 0xffffff94
400088a4:	e3530000 	cmp	r3, #0
400088a8:	1affffef 	bne	4000886c <number+0x438>
400088ac:	e51b3060 	ldr	r3, [fp, #-96]	; 0xffffffa0
400088b0:	e1a00003 	mov	r0, r3
400088b4:	e24bd004 	sub	sp, fp, #4
400088b8:	e8bd8800 	pop	{fp, pc}
400088bc:	40009ac8 	andmi	r9, r0, r8, asr #21
400088c0:	40009af0 	strdmi	r9, [r0], -r0

400088c4 <strnlen>:
400088c4:	e52db004 	push	{fp}		; (str fp, [sp, #-4]!)
400088c8:	e28db000 	add	fp, sp, #0
400088cc:	e24dd00c 	sub	sp, sp, #12
400088d0:	e50b0008 	str	r0, [fp, #-8]
400088d4:	e50b100c 	str	r1, [fp, #-12]
400088d8:	e51b3008 	ldr	r3, [fp, #-8]
400088dc:	e50b3004 	str	r3, [fp, #-4]
400088e0:	ea000002 	b	400088f0 <strnlen+0x2c>
400088e4:	e51b3004 	ldr	r3, [fp, #-4]
400088e8:	e2833001 	add	r3, r3, #1
400088ec:	e50b3004 	str	r3, [fp, #-4]
400088f0:	e51b300c 	ldr	r3, [fp, #-12]
400088f4:	e3530000 	cmp	r3, #0
400088f8:	03a03000 	moveq	r3, #0
400088fc:	13a03001 	movne	r3, #1
40008900:	e20330ff 	and	r3, r3, #255	; 0xff
40008904:	e51b200c 	ldr	r2, [fp, #-12]
40008908:	e2422001 	sub	r2, r2, #1
4000890c:	e50b200c 	str	r2, [fp, #-12]
40008910:	e3530000 	cmp	r3, #0
40008914:	0a000003 	beq	40008928 <strnlen+0x64>
40008918:	e51b3004 	ldr	r3, [fp, #-4]
4000891c:	e5d33000 	ldrb	r3, [r3]
40008920:	e3530000 	cmp	r3, #0
40008924:	1affffee 	bne	400088e4 <strnlen+0x20>
40008928:	e51b2004 	ldr	r2, [fp, #-4]
4000892c:	e51b3008 	ldr	r3, [fp, #-8]
40008930:	e0633002 	rsb	r3, r3, r2
40008934:	e1a00003 	mov	r0, r3
40008938:	e28bd000 	add	sp, fp, #0
4000893c:	e8bd0800 	ldmfd	sp!, {fp}
40008940:	e12fff1e 	bx	lr

40008944 <vsprintf>:
40008944:	e92d4800 	push	{fp, lr}
40008948:	e28db004 	add	fp, sp, #4
4000894c:	e24dd044 	sub	sp, sp, #68	; 0x44
40008950:	e50b0038 	str	r0, [fp, #-56]	; 0xffffffc8
40008954:	e50b103c 	str	r1, [fp, #-60]	; 0xffffffc4
40008958:	e50b2040 	str	r2, [fp, #-64]	; 0xffffffc0
4000895c:	e51b3038 	ldr	r3, [fp, #-56]	; 0xffffffc8
40008960:	e50b3014 	str	r3, [fp, #-20]	; 0xffffffec
40008964:	ea000235 	b	40009240 <vsprintf+0x8fc>
40008968:	e51b303c 	ldr	r3, [fp, #-60]	; 0xffffffc4
4000896c:	e5d33000 	ldrb	r3, [r3]
40008970:	e3530025 	cmp	r3, #37	; 0x25
40008974:	0a000007 	beq	40008998 <vsprintf+0x54>
40008978:	e51b303c 	ldr	r3, [fp, #-60]	; 0xffffffc4
4000897c:	e5d32000 	ldrb	r2, [r3]
40008980:	e51b3014 	ldr	r3, [fp, #-20]	; 0xffffffec
40008984:	e5c32000 	strb	r2, [r3]
40008988:	e51b3014 	ldr	r3, [fp, #-20]	; 0xffffffec
4000898c:	e2833001 	add	r3, r3, #1
40008990:	e50b3014 	str	r3, [fp, #-20]	; 0xffffffec
40008994:	ea000226 	b	40009234 <vsprintf+0x8f0>
40008998:	e3a03000 	mov	r3, #0
4000899c:	e50b301c 	str	r3, [fp, #-28]	; 0xffffffe4
400089a0:	e51b303c 	ldr	r3, [fp, #-60]	; 0xffffffc4
400089a4:	e2833001 	add	r3, r3, #1
400089a8:	e50b303c 	str	r3, [fp, #-60]	; 0xffffffc4
400089ac:	e51b303c 	ldr	r3, [fp, #-60]	; 0xffffffc4
400089b0:	e5d33000 	ldrb	r3, [r3]
400089b4:	e2433020 	sub	r3, r3, #32
400089b8:	e3530010 	cmp	r3, #16
400089bc:	979ff103 	ldrls	pc, [pc, r3, lsl #2]
400089c0:	ea000024 	b	40008a58 <vsprintf+0x114>
400089c4:	40008a28 	andmi	r8, r0, r8, lsr #20
400089c8:	40008a58 	andmi	r8, r0, r8, asr sl
400089cc:	40008a58 	andmi	r8, r0, r8, asr sl
400089d0:	40008a38 	andmi	r8, r0, r8, lsr sl
400089d4:	40008a58 	andmi	r8, r0, r8, asr sl
400089d8:	40008a58 	andmi	r8, r0, r8, asr sl
400089dc:	40008a58 	andmi	r8, r0, r8, asr sl
400089e0:	40008a58 	andmi	r8, r0, r8, asr sl
400089e4:	40008a58 	andmi	r8, r0, r8, asr sl
400089e8:	40008a58 	andmi	r8, r0, r8, asr sl
400089ec:	40008a58 	andmi	r8, r0, r8, asr sl
400089f0:	40008a18 	andmi	r8, r0, r8, lsl sl
400089f4:	40008a58 	andmi	r8, r0, r8, asr sl
400089f8:	40008a08 	andmi	r8, r0, r8, lsl #20
400089fc:	40008a58 	andmi	r8, r0, r8, asr sl
40008a00:	40008a58 	andmi	r8, r0, r8, asr sl
40008a04:	40008a48 	andmi	r8, r0, r8, asr #20
40008a08:	e51b301c 	ldr	r3, [fp, #-28]	; 0xffffffe4
40008a0c:	e3833010 	orr	r3, r3, #16
40008a10:	e50b301c 	str	r3, [fp, #-28]	; 0xffffffe4
40008a14:	eaffffe1 	b	400089a0 <vsprintf+0x5c>
40008a18:	e51b301c 	ldr	r3, [fp, #-28]	; 0xffffffe4
40008a1c:	e3833004 	orr	r3, r3, #4
40008a20:	e50b301c 	str	r3, [fp, #-28]	; 0xffffffe4
40008a24:	eaffffdd 	b	400089a0 <vsprintf+0x5c>
40008a28:	e51b301c 	ldr	r3, [fp, #-28]	; 0xffffffe4
40008a2c:	e3833008 	orr	r3, r3, #8
40008a30:	e50b301c 	str	r3, [fp, #-28]	; 0xffffffe4
40008a34:	eaffffd9 	b	400089a0 <vsprintf+0x5c>
40008a38:	e51b301c 	ldr	r3, [fp, #-28]	; 0xffffffe4
40008a3c:	e3833020 	orr	r3, r3, #32
40008a40:	e50b301c 	str	r3, [fp, #-28]	; 0xffffffe4
40008a44:	eaffffd5 	b	400089a0 <vsprintf+0x5c>
40008a48:	e51b301c 	ldr	r3, [fp, #-28]	; 0xffffffe4
40008a4c:	e3833001 	orr	r3, r3, #1
40008a50:	e50b301c 	str	r3, [fp, #-28]	; 0xffffffe4
40008a54:	eaffffd1 	b	400089a0 <vsprintf+0x5c>
40008a58:	e3e03000 	mvn	r3, #0
40008a5c:	e50b3020 	str	r3, [fp, #-32]	; 0xffffffe0
40008a60:	e51b303c 	ldr	r3, [fp, #-60]	; 0xffffffc4
40008a64:	e5d33000 	ldrb	r3, [r3]
40008a68:	e353002f 	cmp	r3, #47	; 0x2f
40008a6c:	9a000008 	bls	40008a94 <vsprintf+0x150>
40008a70:	e51b303c 	ldr	r3, [fp, #-60]	; 0xffffffc4
40008a74:	e5d33000 	ldrb	r3, [r3]
40008a78:	e3530039 	cmp	r3, #57	; 0x39
40008a7c:	8a000004 	bhi	40008a94 <vsprintf+0x150>
40008a80:	e24b303c 	sub	r3, fp, #60	; 0x3c
40008a84:	e1a00003 	mov	r0, r3
40008a88:	ebfffe44 	bl	400083a0 <skip_atoi>
40008a8c:	e50b0020 	str	r0, [fp, #-32]	; 0xffffffe0
40008a90:	ea000014 	b	40008ae8 <vsprintf+0x1a4>
40008a94:	e51b303c 	ldr	r3, [fp, #-60]	; 0xffffffc4
40008a98:	e5d33000 	ldrb	r3, [r3]
40008a9c:	e353002a 	cmp	r3, #42	; 0x2a
40008aa0:	1a000010 	bne	40008ae8 <vsprintf+0x1a4>
40008aa4:	e51b303c 	ldr	r3, [fp, #-60]	; 0xffffffc4
40008aa8:	e2833001 	add	r3, r3, #1
40008aac:	e50b303c 	str	r3, [fp, #-60]	; 0xffffffc4
40008ab0:	e51b3040 	ldr	r3, [fp, #-64]	; 0xffffffc0
40008ab4:	e2832004 	add	r2, r3, #4
40008ab8:	e50b2040 	str	r2, [fp, #-64]	; 0xffffffc0
40008abc:	e5933000 	ldr	r3, [r3]
40008ac0:	e50b3020 	str	r3, [fp, #-32]	; 0xffffffe0
40008ac4:	e51b3020 	ldr	r3, [fp, #-32]	; 0xffffffe0
40008ac8:	e3530000 	cmp	r3, #0
40008acc:	aa000005 	bge	40008ae8 <vsprintf+0x1a4>
40008ad0:	e51b3020 	ldr	r3, [fp, #-32]	; 0xffffffe0
40008ad4:	e2633000 	rsb	r3, r3, #0
40008ad8:	e50b3020 	str	r3, [fp, #-32]	; 0xffffffe0
40008adc:	e51b301c 	ldr	r3, [fp, #-28]	; 0xffffffe4
40008ae0:	e3833010 	orr	r3, r3, #16
40008ae4:	e50b301c 	str	r3, [fp, #-28]	; 0xffffffe4
40008ae8:	e3e03000 	mvn	r3, #0
40008aec:	e50b3024 	str	r3, [fp, #-36]	; 0xffffffdc
40008af0:	e51b303c 	ldr	r3, [fp, #-60]	; 0xffffffc4
40008af4:	e5d33000 	ldrb	r3, [r3]
40008af8:	e353002e 	cmp	r3, #46	; 0x2e
40008afc:	1a000020 	bne	40008b84 <vsprintf+0x240>
40008b00:	e51b303c 	ldr	r3, [fp, #-60]	; 0xffffffc4
40008b04:	e2833001 	add	r3, r3, #1
40008b08:	e50b303c 	str	r3, [fp, #-60]	; 0xffffffc4
40008b0c:	e51b303c 	ldr	r3, [fp, #-60]	; 0xffffffc4
40008b10:	e5d33000 	ldrb	r3, [r3]
40008b14:	e353002f 	cmp	r3, #47	; 0x2f
40008b18:	9a000008 	bls	40008b40 <vsprintf+0x1fc>
40008b1c:	e51b303c 	ldr	r3, [fp, #-60]	; 0xffffffc4
40008b20:	e5d33000 	ldrb	r3, [r3]
40008b24:	e3530039 	cmp	r3, #57	; 0x39
40008b28:	8a000004 	bhi	40008b40 <vsprintf+0x1fc>
40008b2c:	e24b303c 	sub	r3, fp, #60	; 0x3c
40008b30:	e1a00003 	mov	r0, r3
40008b34:	ebfffe19 	bl	400083a0 <skip_atoi>
40008b38:	e50b0024 	str	r0, [fp, #-36]	; 0xffffffdc
40008b3c:	ea00000b 	b	40008b70 <vsprintf+0x22c>
40008b40:	e51b303c 	ldr	r3, [fp, #-60]	; 0xffffffc4
40008b44:	e5d33000 	ldrb	r3, [r3]
40008b48:	e353002a 	cmp	r3, #42	; 0x2a
40008b4c:	1a000007 	bne	40008b70 <vsprintf+0x22c>
40008b50:	e51b303c 	ldr	r3, [fp, #-60]	; 0xffffffc4
40008b54:	e2833001 	add	r3, r3, #1
40008b58:	e50b303c 	str	r3, [fp, #-60]	; 0xffffffc4
40008b5c:	e51b3040 	ldr	r3, [fp, #-64]	; 0xffffffc0
40008b60:	e2832004 	add	r2, r3, #4
40008b64:	e50b2040 	str	r2, [fp, #-64]	; 0xffffffc0
40008b68:	e5933000 	ldr	r3, [r3]
40008b6c:	e50b3024 	str	r3, [fp, #-36]	; 0xffffffdc
40008b70:	e51b3024 	ldr	r3, [fp, #-36]	; 0xffffffdc
40008b74:	e3530000 	cmp	r3, #0
40008b78:	aa000001 	bge	40008b84 <vsprintf+0x240>
40008b7c:	e3a03000 	mov	r3, #0
40008b80:	e50b3024 	str	r3, [fp, #-36]	; 0xffffffdc
40008b84:	e3e03000 	mvn	r3, #0
40008b88:	e50b3028 	str	r3, [fp, #-40]	; 0xffffffd8
40008b8c:	e51b303c 	ldr	r3, [fp, #-60]	; 0xffffffc4
40008b90:	e5d33000 	ldrb	r3, [r3]
40008b94:	e3530068 	cmp	r3, #104	; 0x68
40008b98:	0a000017 	beq	40008bfc <vsprintf+0x2b8>
40008b9c:	e51b303c 	ldr	r3, [fp, #-60]	; 0xffffffc4
40008ba0:	e5d33000 	ldrb	r3, [r3]
40008ba4:	e353006c 	cmp	r3, #108	; 0x6c
40008ba8:	0a000013 	beq	40008bfc <vsprintf+0x2b8>
40008bac:	e51b303c 	ldr	r3, [fp, #-60]	; 0xffffffc4
40008bb0:	e5d33000 	ldrb	r3, [r3]
40008bb4:	e353004c 	cmp	r3, #76	; 0x4c
40008bb8:	0a00000f 	beq	40008bfc <vsprintf+0x2b8>
40008bbc:	e51b303c 	ldr	r3, [fp, #-60]	; 0xffffffc4
40008bc0:	e5d33000 	ldrb	r3, [r3]
40008bc4:	e353005a 	cmp	r3, #90	; 0x5a
40008bc8:	0a00000b 	beq	40008bfc <vsprintf+0x2b8>
40008bcc:	e51b303c 	ldr	r3, [fp, #-60]	; 0xffffffc4
40008bd0:	e5d33000 	ldrb	r3, [r3]
40008bd4:	e353007a 	cmp	r3, #122	; 0x7a
40008bd8:	0a000007 	beq	40008bfc <vsprintf+0x2b8>
40008bdc:	e51b303c 	ldr	r3, [fp, #-60]	; 0xffffffc4
40008be0:	e5d33000 	ldrb	r3, [r3]
40008be4:	e3530074 	cmp	r3, #116	; 0x74
40008be8:	0a000003 	beq	40008bfc <vsprintf+0x2b8>
40008bec:	e51b303c 	ldr	r3, [fp, #-60]	; 0xffffffc4
40008bf0:	e5d33000 	ldrb	r3, [r3]
40008bf4:	e3530071 	cmp	r3, #113	; 0x71
40008bf8:	1a000012 	bne	40008c48 <vsprintf+0x304>
40008bfc:	e51b303c 	ldr	r3, [fp, #-60]	; 0xffffffc4
40008c00:	e5d33000 	ldrb	r3, [r3]
40008c04:	e50b3028 	str	r3, [fp, #-40]	; 0xffffffd8
40008c08:	e51b3028 	ldr	r3, [fp, #-40]	; 0xffffffd8
40008c0c:	e353006c 	cmp	r3, #108	; 0x6c
40008c10:	1a000009 	bne	40008c3c <vsprintf+0x2f8>
40008c14:	e51b303c 	ldr	r3, [fp, #-60]	; 0xffffffc4
40008c18:	e2833001 	add	r3, r3, #1
40008c1c:	e5d33000 	ldrb	r3, [r3]
40008c20:	e353006c 	cmp	r3, #108	; 0x6c
40008c24:	1a000004 	bne	40008c3c <vsprintf+0x2f8>
40008c28:	e3a03071 	mov	r3, #113	; 0x71
40008c2c:	e50b3028 	str	r3, [fp, #-40]	; 0xffffffd8
40008c30:	e51b303c 	ldr	r3, [fp, #-60]	; 0xffffffc4
40008c34:	e2833001 	add	r3, r3, #1
40008c38:	e50b303c 	str	r3, [fp, #-60]	; 0xffffffc4
40008c3c:	e51b303c 	ldr	r3, [fp, #-60]	; 0xffffffc4
40008c40:	e2833001 	add	r3, r3, #1
40008c44:	e50b303c 	str	r3, [fp, #-60]	; 0xffffffc4
40008c48:	e3a0300a 	mov	r3, #10
40008c4c:	e50b3010 	str	r3, [fp, #-16]
40008c50:	e51b303c 	ldr	r3, [fp, #-60]	; 0xffffffc4
40008c54:	e5d33000 	ldrb	r3, [r3]
40008c58:	e2433025 	sub	r3, r3, #37	; 0x25
40008c5c:	e3530053 	cmp	r3, #83	; 0x53
40008c60:	979ff103 	ldrls	pc, [pc, r3, lsl #2]
40008c64:	ea00010d 	b	400090a0 <vsprintf+0x75c>
40008c68:	40009050 	andmi	r9, r0, r0, asr r0
40008c6c:	400090a0 	andmi	r9, r0, r0, lsr #1
40008c70:	400090a0 	andmi	r9, r0, r0, lsr #1
40008c74:	400090a0 	andmi	r9, r0, r0, lsr #1
40008c78:	400090a0 	andmi	r9, r0, r0, lsr #1
40008c7c:	400090a0 	andmi	r9, r0, r0, lsr #1
40008c80:	400090a0 	andmi	r9, r0, r0, lsr #1
40008c84:	400090a0 	andmi	r9, r0, r0, lsr #1
40008c88:	400090a0 	andmi	r9, r0, r0, lsr #1
40008c8c:	400090a0 	andmi	r9, r0, r0, lsr #1
40008c90:	400090a0 	andmi	r9, r0, r0, lsr #1
40008c94:	400090a0 	andmi	r9, r0, r0, lsr #1
40008c98:	400090a0 	andmi	r9, r0, r0, lsr #1
40008c9c:	400090a0 	andmi	r9, r0, r0, lsr #1
40008ca0:	400090a0 	andmi	r9, r0, r0, lsr #1
40008ca4:	400090a0 	andmi	r9, r0, r0, lsr #1
40008ca8:	400090a0 	andmi	r9, r0, r0, lsr #1
40008cac:	400090a0 	andmi	r9, r0, r0, lsr #1
40008cb0:	400090a0 	andmi	r9, r0, r0, lsr #1
40008cb4:	400090a0 	andmi	r9, r0, r0, lsr #1
40008cb8:	400090a0 	andmi	r9, r0, r0, lsr #1
40008cbc:	400090a0 	andmi	r9, r0, r0, lsr #1
40008cc0:	400090a0 	andmi	r9, r0, r0, lsr #1
40008cc4:	400090a0 	andmi	r9, r0, r0, lsr #1
40008cc8:	400090a0 	andmi	r9, r0, r0, lsr #1
40008ccc:	400090a0 	andmi	r9, r0, r0, lsr #1
40008cd0:	400090a0 	andmi	r9, r0, r0, lsr #1
40008cd4:	400090a0 	andmi	r9, r0, r0, lsr #1
40008cd8:	400090a0 	andmi	r9, r0, r0, lsr #1
40008cdc:	400090a0 	andmi	r9, r0, r0, lsr #1
40008ce0:	400090a0 	andmi	r9, r0, r0, lsr #1
40008ce4:	400090a0 	andmi	r9, r0, r0, lsr #1
40008ce8:	400090a0 	andmi	r9, r0, r0, lsr #1
40008cec:	400090a0 	andmi	r9, r0, r0, lsr #1
40008cf0:	400090a0 	andmi	r9, r0, r0, lsr #1
40008cf4:	400090a0 	andmi	r9, r0, r0, lsr #1
40008cf8:	400090a0 	andmi	r9, r0, r0, lsr #1
40008cfc:	400090a0 	andmi	r9, r0, r0, lsr #1
40008d00:	400090a0 	andmi	r9, r0, r0, lsr #1
40008d04:	400090a0 	andmi	r9, r0, r0, lsr #1
40008d08:	400090a0 	andmi	r9, r0, r0, lsr #1
40008d0c:	400090a0 	andmi	r9, r0, r0, lsr #1
40008d10:	400090a0 	andmi	r9, r0, r0, lsr #1
40008d14:	400090a0 	andmi	r9, r0, r0, lsr #1
40008d18:	400090a0 	andmi	r9, r0, r0, lsr #1
40008d1c:	400090a0 	andmi	r9, r0, r0, lsr #1
40008d20:	400090a0 	andmi	r9, r0, r0, lsr #1
40008d24:	400090a0 	andmi	r9, r0, r0, lsr #1
40008d28:	400090a0 	andmi	r9, r0, r0, lsr #1
40008d2c:	400090a0 	andmi	r9, r0, r0, lsr #1
40008d30:	400090a0 	andmi	r9, r0, r0, lsr #1
40008d34:	40009078 	andmi	r9, r0, r8, ror r0
40008d38:	400090a0 	andmi	r9, r0, r0, lsr #1
40008d3c:	400090a0 	andmi	r9, r0, r0, lsr #1
40008d40:	400090a0 	andmi	r9, r0, r0, lsr #1
40008d44:	400090a0 	andmi	r9, r0, r0, lsr #1
40008d48:	400090a0 	andmi	r9, r0, r0, lsr #1
40008d4c:	400090a0 	andmi	r9, r0, r0, lsr #1
40008d50:	400090a0 	andmi	r9, r0, r0, lsr #1
40008d54:	400090a0 	andmi	r9, r0, r0, lsr #1
40008d58:	400090a0 	andmi	r9, r0, r0, lsr #1
40008d5c:	400090a0 	andmi	r9, r0, r0, lsr #1
40008d60:	40008db8 			; <UNDEFINED> instruction: 0x40008db8
40008d64:	40009090 	mulmi	r0, r0, r0
40008d68:	400090a0 	andmi	r9, r0, r0, lsr #1
40008d6c:	400090a0 	andmi	r9, r0, r0, lsr #1
40008d70:	400090a0 	andmi	r9, r0, r0, lsr #1
40008d74:	400090a0 	andmi	r9, r0, r0, lsr #1
40008d78:	40009090 	mulmi	r0, r0, r0
40008d7c:	400090a0 	andmi	r9, r0, r0, lsr #1
40008d80:	400090a0 	andmi	r9, r0, r0, lsr #1
40008d84:	400090a0 	andmi	r9, r0, r0, lsr #1
40008d88:	400090a0 	andmi	r9, r0, r0, lsr #1
40008d8c:	40008fec 	andmi	r8, r0, ip, ror #31
40008d90:	4000906c 	andmi	r9, r0, ip, rrx
40008d94:	40008f90 	mulmi	r0, r0, pc	; <UNPREDICTABLE>
40008d98:	400090a0 	andmi	r9, r0, r0, lsr #1
40008d9c:	400090a0 	andmi	r9, r0, r0, lsr #1
40008da0:	40008e5c 	andmi	r8, r0, ip, asr lr
40008da4:	400090a0 	andmi	r9, r0, r0, lsr #1
40008da8:	400090f8 	strdmi	r9, [r0], -r8
40008dac:	400090a0 	andmi	r9, r0, r0, lsr #1
40008db0:	400090a0 	andmi	r9, r0, r0, lsr #1
40008db4:	40009084 	andmi	r9, r0, r4, lsl #1
40008db8:	e51b301c 	ldr	r3, [fp, #-28]	; 0xffffffe4
40008dbc:	e2033010 	and	r3, r3, #16
40008dc0:	e3530000 	cmp	r3, #0
40008dc4:	1a00000c 	bne	40008dfc <vsprintf+0x4b8>
40008dc8:	ea000005 	b	40008de4 <vsprintf+0x4a0>
40008dcc:	e51b3014 	ldr	r3, [fp, #-20]	; 0xffffffec
40008dd0:	e3a02020 	mov	r2, #32
40008dd4:	e5c32000 	strb	r2, [r3]
40008dd8:	e51b3014 	ldr	r3, [fp, #-20]	; 0xffffffec
40008ddc:	e2833001 	add	r3, r3, #1
40008de0:	e50b3014 	str	r3, [fp, #-20]	; 0xffffffec
40008de4:	e51b3020 	ldr	r3, [fp, #-32]	; 0xffffffe0
40008de8:	e2433001 	sub	r3, r3, #1
40008dec:	e50b3020 	str	r3, [fp, #-32]	; 0xffffffe0
40008df0:	e51b3020 	ldr	r3, [fp, #-32]	; 0xffffffe0
40008df4:	e3530000 	cmp	r3, #0
40008df8:	cafffff3 	bgt	40008dcc <vsprintf+0x488>
40008dfc:	e51b3040 	ldr	r3, [fp, #-64]	; 0xffffffc0
40008e00:	e2832004 	add	r2, r3, #4
40008e04:	e50b2040 	str	r2, [fp, #-64]	; 0xffffffc0
40008e08:	e5933000 	ldr	r3, [r3]
40008e0c:	e20320ff 	and	r2, r3, #255	; 0xff
40008e10:	e51b3014 	ldr	r3, [fp, #-20]	; 0xffffffec
40008e14:	e5c32000 	strb	r2, [r3]
40008e18:	e51b3014 	ldr	r3, [fp, #-20]	; 0xffffffec
40008e1c:	e2833001 	add	r3, r3, #1
40008e20:	e50b3014 	str	r3, [fp, #-20]	; 0xffffffec
40008e24:	ea000005 	b	40008e40 <vsprintf+0x4fc>
40008e28:	e51b3014 	ldr	r3, [fp, #-20]	; 0xffffffec
40008e2c:	e3a02020 	mov	r2, #32
40008e30:	e5c32000 	strb	r2, [r3]
40008e34:	e51b3014 	ldr	r3, [fp, #-20]	; 0xffffffec
40008e38:	e2833001 	add	r3, r3, #1
40008e3c:	e50b3014 	str	r3, [fp, #-20]	; 0xffffffec
40008e40:	e51b3020 	ldr	r3, [fp, #-32]	; 0xffffffe0
40008e44:	e2433001 	sub	r3, r3, #1
40008e48:	e50b3020 	str	r3, [fp, #-32]	; 0xffffffe0
40008e4c:	e51b3020 	ldr	r3, [fp, #-32]	; 0xffffffe0
40008e50:	e3530000 	cmp	r3, #0
40008e54:	cafffff3 	bgt	40008e28 <vsprintf+0x4e4>
40008e58:	ea0000f5 	b	40009234 <vsprintf+0x8f0>
40008e5c:	e51b3040 	ldr	r3, [fp, #-64]	; 0xffffffc0
40008e60:	e2832004 	add	r2, r3, #4
40008e64:	e50b2040 	str	r2, [fp, #-64]	; 0xffffffc0
40008e68:	e5933000 	ldr	r3, [r3]
40008e6c:	e50b3018 	str	r3, [fp, #-24]	; 0xffffffe8
40008e70:	e51b3018 	ldr	r3, [fp, #-24]	; 0xffffffe8
40008e74:	e3530000 	cmp	r3, #0
40008e78:	1a000001 	bne	40008e84 <vsprintf+0x540>
40008e7c:	e59f33f0 	ldr	r3, [pc, #1008]	; 40009274 <vsprintf+0x930>
40008e80:	e50b3018 	str	r3, [fp, #-24]	; 0xffffffe8
40008e84:	e51b3024 	ldr	r3, [fp, #-36]	; 0xffffffdc
40008e88:	e51b0018 	ldr	r0, [fp, #-24]	; 0xffffffe8
40008e8c:	e1a01003 	mov	r1, r3
40008e90:	ebfffe8b 	bl	400088c4 <strnlen>
40008e94:	e1a03000 	mov	r3, r0
40008e98:	e50b302c 	str	r3, [fp, #-44]	; 0xffffffd4
40008e9c:	e51b301c 	ldr	r3, [fp, #-28]	; 0xffffffe4
40008ea0:	e2033010 	and	r3, r3, #16
40008ea4:	e3530000 	cmp	r3, #0
40008ea8:	1a000011 	bne	40008ef4 <vsprintf+0x5b0>
40008eac:	ea000005 	b	40008ec8 <vsprintf+0x584>
40008eb0:	e51b3014 	ldr	r3, [fp, #-20]	; 0xffffffec
40008eb4:	e3a02020 	mov	r2, #32
40008eb8:	e5c32000 	strb	r2, [r3]
40008ebc:	e51b3014 	ldr	r3, [fp, #-20]	; 0xffffffec
40008ec0:	e2833001 	add	r3, r3, #1
40008ec4:	e50b3014 	str	r3, [fp, #-20]	; 0xffffffec
40008ec8:	e51b2020 	ldr	r2, [fp, #-32]	; 0xffffffe0
40008ecc:	e51b302c 	ldr	r3, [fp, #-44]	; 0xffffffd4
40008ed0:	e1520003 	cmp	r2, r3
40008ed4:	d3a03000 	movle	r3, #0
40008ed8:	c3a03001 	movgt	r3, #1
40008edc:	e20330ff 	and	r3, r3, #255	; 0xff
40008ee0:	e51b2020 	ldr	r2, [fp, #-32]	; 0xffffffe0
40008ee4:	e2422001 	sub	r2, r2, #1
40008ee8:	e50b2020 	str	r2, [fp, #-32]	; 0xffffffe0
40008eec:	e3530000 	cmp	r3, #0
40008ef0:	1affffee 	bne	40008eb0 <vsprintf+0x56c>
40008ef4:	e3a03000 	mov	r3, #0
40008ef8:	e50b300c 	str	r3, [fp, #-12]
40008efc:	ea00000c 	b	40008f34 <vsprintf+0x5f0>
40008f00:	e51b3018 	ldr	r3, [fp, #-24]	; 0xffffffe8
40008f04:	e5d32000 	ldrb	r2, [r3]
40008f08:	e51b3014 	ldr	r3, [fp, #-20]	; 0xffffffec
40008f0c:	e5c32000 	strb	r2, [r3]
40008f10:	e51b3014 	ldr	r3, [fp, #-20]	; 0xffffffec
40008f14:	e2833001 	add	r3, r3, #1
40008f18:	e50b3014 	str	r3, [fp, #-20]	; 0xffffffec
40008f1c:	e51b3018 	ldr	r3, [fp, #-24]	; 0xffffffe8
40008f20:	e2833001 	add	r3, r3, #1
40008f24:	e50b3018 	str	r3, [fp, #-24]	; 0xffffffe8
40008f28:	e51b300c 	ldr	r3, [fp, #-12]
40008f2c:	e2833001 	add	r3, r3, #1
40008f30:	e50b300c 	str	r3, [fp, #-12]
40008f34:	e51b200c 	ldr	r2, [fp, #-12]
40008f38:	e51b302c 	ldr	r3, [fp, #-44]	; 0xffffffd4
40008f3c:	e1520003 	cmp	r2, r3
40008f40:	baffffee 	blt	40008f00 <vsprintf+0x5bc>
40008f44:	ea000005 	b	40008f60 <vsprintf+0x61c>
40008f48:	e51b3014 	ldr	r3, [fp, #-20]	; 0xffffffec
40008f4c:	e3a02020 	mov	r2, #32
40008f50:	e5c32000 	strb	r2, [r3]
40008f54:	e51b3014 	ldr	r3, [fp, #-20]	; 0xffffffec
40008f58:	e2833001 	add	r3, r3, #1
40008f5c:	e50b3014 	str	r3, [fp, #-20]	; 0xffffffec
40008f60:	e51b2020 	ldr	r2, [fp, #-32]	; 0xffffffe0
40008f64:	e51b302c 	ldr	r3, [fp, #-44]	; 0xffffffd4
40008f68:	e1520003 	cmp	r2, r3
40008f6c:	d3a03000 	movle	r3, #0
40008f70:	c3a03001 	movgt	r3, #1
40008f74:	e20330ff 	and	r3, r3, #255	; 0xff
40008f78:	e51b2020 	ldr	r2, [fp, #-32]	; 0xffffffe0
40008f7c:	e2422001 	sub	r2, r2, #1
40008f80:	e50b2020 	str	r2, [fp, #-32]	; 0xffffffe0
40008f84:	e3530000 	cmp	r3, #0
40008f88:	1affffee 	bne	40008f48 <vsprintf+0x604>
40008f8c:	ea0000a8 	b	40009234 <vsprintf+0x8f0>
40008f90:	e51b3020 	ldr	r3, [fp, #-32]	; 0xffffffe0
40008f94:	e3730001 	cmn	r3, #1
40008f98:	1a000004 	bne	40008fb0 <vsprintf+0x66c>
40008f9c:	e3a03008 	mov	r3, #8
40008fa0:	e50b3020 	str	r3, [fp, #-32]	; 0xffffffe0
40008fa4:	e51b301c 	ldr	r3, [fp, #-28]	; 0xffffffe4
40008fa8:	e3833001 	orr	r3, r3, #1
40008fac:	e50b301c 	str	r3, [fp, #-28]	; 0xffffffe4
40008fb0:	e51b3040 	ldr	r3, [fp, #-64]	; 0xffffffc0
40008fb4:	e2832004 	add	r2, r3, #4
40008fb8:	e50b2040 	str	r2, [fp, #-64]	; 0xffffffc0
40008fbc:	e5933000 	ldr	r3, [r3]
40008fc0:	e51b2024 	ldr	r2, [fp, #-36]	; 0xffffffdc
40008fc4:	e58d2000 	str	r2, [sp]
40008fc8:	e51b201c 	ldr	r2, [fp, #-28]	; 0xffffffe4
40008fcc:	e58d2004 	str	r2, [sp, #4]
40008fd0:	e51b0014 	ldr	r0, [fp, #-20]	; 0xffffffec
40008fd4:	e1a01003 	mov	r1, r3
40008fd8:	e3a02010 	mov	r2, #16
40008fdc:	e51b3020 	ldr	r3, [fp, #-32]	; 0xffffffe0
40008fe0:	ebfffd13 	bl	40008434 <number>
40008fe4:	e50b0014 	str	r0, [fp, #-20]	; 0xffffffec
40008fe8:	ea000091 	b	40009234 <vsprintf+0x8f0>
40008fec:	e51b3028 	ldr	r3, [fp, #-40]	; 0xffffffd8
40008ff0:	e353006c 	cmp	r3, #108	; 0x6c
40008ff4:	1a00000a 	bne	40009024 <vsprintf+0x6e0>
40008ff8:	e51b3040 	ldr	r3, [fp, #-64]	; 0xffffffc0
40008ffc:	e2832004 	add	r2, r3, #4
40009000:	e50b2040 	str	r2, [fp, #-64]	; 0xffffffc0
40009004:	e5933000 	ldr	r3, [r3]
40009008:	e50b3030 	str	r3, [fp, #-48]	; 0xffffffd0
4000900c:	e51b2014 	ldr	r2, [fp, #-20]	; 0xffffffec
40009010:	e51b3038 	ldr	r3, [fp, #-56]	; 0xffffffc8
40009014:	e0632002 	rsb	r2, r3, r2
40009018:	e51b3030 	ldr	r3, [fp, #-48]	; 0xffffffd0
4000901c:	e5832000 	str	r2, [r3]
40009020:	ea000083 	b	40009234 <vsprintf+0x8f0>
40009024:	e51b3040 	ldr	r3, [fp, #-64]	; 0xffffffc0
40009028:	e2832004 	add	r2, r3, #4
4000902c:	e50b2040 	str	r2, [fp, #-64]	; 0xffffffc0
40009030:	e5933000 	ldr	r3, [r3]
40009034:	e50b3034 	str	r3, [fp, #-52]	; 0xffffffcc
40009038:	e51b2014 	ldr	r2, [fp, #-20]	; 0xffffffec
4000903c:	e51b3038 	ldr	r3, [fp, #-56]	; 0xffffffc8
40009040:	e0632002 	rsb	r2, r3, r2
40009044:	e51b3034 	ldr	r3, [fp, #-52]	; 0xffffffcc
40009048:	e5832000 	str	r2, [r3]
4000904c:	ea000078 	b	40009234 <vsprintf+0x8f0>
40009050:	e51b3014 	ldr	r3, [fp, #-20]	; 0xffffffec
40009054:	e3a02025 	mov	r2, #37	; 0x25
40009058:	e5c32000 	strb	r2, [r3]
4000905c:	e51b3014 	ldr	r3, [fp, #-20]	; 0xffffffec
40009060:	e2833001 	add	r3, r3, #1
40009064:	e50b3014 	str	r3, [fp, #-20]	; 0xffffffec
40009068:	ea000071 	b	40009234 <vsprintf+0x8f0>
4000906c:	e3a03008 	mov	r3, #8
40009070:	e50b3010 	str	r3, [fp, #-16]
40009074:	ea000020 	b	400090fc <vsprintf+0x7b8>
40009078:	e51b301c 	ldr	r3, [fp, #-28]	; 0xffffffe4
4000907c:	e3833040 	orr	r3, r3, #64	; 0x40
40009080:	e50b301c 	str	r3, [fp, #-28]	; 0xffffffe4
40009084:	e3a03010 	mov	r3, #16
40009088:	e50b3010 	str	r3, [fp, #-16]
4000908c:	ea00001a 	b	400090fc <vsprintf+0x7b8>
40009090:	e51b301c 	ldr	r3, [fp, #-28]	; 0xffffffe4
40009094:	e3833002 	orr	r3, r3, #2
40009098:	e50b301c 	str	r3, [fp, #-28]	; 0xffffffe4
4000909c:	ea000015 	b	400090f8 <vsprintf+0x7b4>
400090a0:	e51b3014 	ldr	r3, [fp, #-20]	; 0xffffffec
400090a4:	e3a02025 	mov	r2, #37	; 0x25
400090a8:	e5c32000 	strb	r2, [r3]
400090ac:	e51b3014 	ldr	r3, [fp, #-20]	; 0xffffffec
400090b0:	e2833001 	add	r3, r3, #1
400090b4:	e50b3014 	str	r3, [fp, #-20]	; 0xffffffec
400090b8:	e51b303c 	ldr	r3, [fp, #-60]	; 0xffffffc4
400090bc:	e5d33000 	ldrb	r3, [r3]
400090c0:	e3530000 	cmp	r3, #0
400090c4:	0a000007 	beq	400090e8 <vsprintf+0x7a4>
400090c8:	e51b303c 	ldr	r3, [fp, #-60]	; 0xffffffc4
400090cc:	e5d32000 	ldrb	r2, [r3]
400090d0:	e51b3014 	ldr	r3, [fp, #-20]	; 0xffffffec
400090d4:	e5c32000 	strb	r2, [r3]
400090d8:	e51b3014 	ldr	r3, [fp, #-20]	; 0xffffffec
400090dc:	e2833001 	add	r3, r3, #1
400090e0:	e50b3014 	str	r3, [fp, #-20]	; 0xffffffec
400090e4:	ea000052 	b	40009234 <vsprintf+0x8f0>
400090e8:	e51b303c 	ldr	r3, [fp, #-60]	; 0xffffffc4
400090ec:	e2433001 	sub	r3, r3, #1
400090f0:	e50b303c 	str	r3, [fp, #-60]	; 0xffffffc4
400090f4:	ea00004e 	b	40009234 <vsprintf+0x8f0>
400090f8:	e1a00000 	nop			; (mov r0, r0)
400090fc:	e51b3028 	ldr	r3, [fp, #-40]	; 0xffffffd8
40009100:	e353006c 	cmp	r3, #108	; 0x6c
40009104:	1a000005 	bne	40009120 <vsprintf+0x7dc>
40009108:	e51b3040 	ldr	r3, [fp, #-64]	; 0xffffffc0
4000910c:	e2832004 	add	r2, r3, #4
40009110:	e50b2040 	str	r2, [fp, #-64]	; 0xffffffc0
40009114:	e5933000 	ldr	r3, [r3]
40009118:	e50b3008 	str	r3, [fp, #-8]
4000911c:	ea000038 	b	40009204 <vsprintf+0x8c0>
40009120:	e51b3028 	ldr	r3, [fp, #-40]	; 0xffffffd8
40009124:	e353005a 	cmp	r3, #90	; 0x5a
40009128:	0a000002 	beq	40009138 <vsprintf+0x7f4>
4000912c:	e51b3028 	ldr	r3, [fp, #-40]	; 0xffffffd8
40009130:	e353007a 	cmp	r3, #122	; 0x7a
40009134:	1a000005 	bne	40009150 <vsprintf+0x80c>
40009138:	e51b3040 	ldr	r3, [fp, #-64]	; 0xffffffc0
4000913c:	e2832004 	add	r2, r3, #4
40009140:	e50b2040 	str	r2, [fp, #-64]	; 0xffffffc0
40009144:	e5933000 	ldr	r3, [r3]
40009148:	e50b3008 	str	r3, [fp, #-8]
4000914c:	ea00002c 	b	40009204 <vsprintf+0x8c0>
40009150:	e51b3028 	ldr	r3, [fp, #-40]	; 0xffffffd8
40009154:	e3530074 	cmp	r3, #116	; 0x74
40009158:	1a000005 	bne	40009174 <vsprintf+0x830>
4000915c:	e51b3040 	ldr	r3, [fp, #-64]	; 0xffffffc0
40009160:	e2832004 	add	r2, r3, #4
40009164:	e50b2040 	str	r2, [fp, #-64]	; 0xffffffc0
40009168:	e5933000 	ldr	r3, [r3]
4000916c:	e50b3008 	str	r3, [fp, #-8]
40009170:	ea000023 	b	40009204 <vsprintf+0x8c0>
40009174:	e51b3028 	ldr	r3, [fp, #-40]	; 0xffffffd8
40009178:	e3530068 	cmp	r3, #104	; 0x68
4000917c:	1a000011 	bne	400091c8 <vsprintf+0x884>
40009180:	e51b3040 	ldr	r3, [fp, #-64]	; 0xffffffc0
40009184:	e2832004 	add	r2, r3, #4
40009188:	e50b2040 	str	r2, [fp, #-64]	; 0xffffffc0
4000918c:	e5933000 	ldr	r3, [r3]
40009190:	e1a03803 	lsl	r3, r3, #16
40009194:	e1a03823 	lsr	r3, r3, #16
40009198:	e50b3008 	str	r3, [fp, #-8]
4000919c:	e51b301c 	ldr	r3, [fp, #-28]	; 0xffffffe4
400091a0:	e2033002 	and	r3, r3, #2
400091a4:	e3530000 	cmp	r3, #0
400091a8:	0a000015 	beq	40009204 <vsprintf+0x8c0>
400091ac:	e51b3008 	ldr	r3, [fp, #-8]
400091b0:	e1a03803 	lsl	r3, r3, #16
400091b4:	e1a03823 	lsr	r3, r3, #16
400091b8:	e1a03803 	lsl	r3, r3, #16
400091bc:	e1a03843 	asr	r3, r3, #16
400091c0:	e50b3008 	str	r3, [fp, #-8]
400091c4:	ea00000e 	b	40009204 <vsprintf+0x8c0>
400091c8:	e51b301c 	ldr	r3, [fp, #-28]	; 0xffffffe4
400091cc:	e2033002 	and	r3, r3, #2
400091d0:	e3530000 	cmp	r3, #0
400091d4:	0a000005 	beq	400091f0 <vsprintf+0x8ac>
400091d8:	e51b3040 	ldr	r3, [fp, #-64]	; 0xffffffc0
400091dc:	e2832004 	add	r2, r3, #4
400091e0:	e50b2040 	str	r2, [fp, #-64]	; 0xffffffc0
400091e4:	e5933000 	ldr	r3, [r3]
400091e8:	e50b3008 	str	r3, [fp, #-8]
400091ec:	ea000004 	b	40009204 <vsprintf+0x8c0>
400091f0:	e51b3040 	ldr	r3, [fp, #-64]	; 0xffffffc0
400091f4:	e2832004 	add	r2, r3, #4
400091f8:	e50b2040 	str	r2, [fp, #-64]	; 0xffffffc0
400091fc:	e5933000 	ldr	r3, [r3]
40009200:	e50b3008 	str	r3, [fp, #-8]
40009204:	e51b2008 	ldr	r2, [fp, #-8]
40009208:	e51b3010 	ldr	r3, [fp, #-16]
4000920c:	e51b1024 	ldr	r1, [fp, #-36]	; 0xffffffdc
40009210:	e58d1000 	str	r1, [sp]
40009214:	e51b101c 	ldr	r1, [fp, #-28]	; 0xffffffe4
40009218:	e58d1004 	str	r1, [sp, #4]
4000921c:	e51b0014 	ldr	r0, [fp, #-20]	; 0xffffffec
40009220:	e1a01002 	mov	r1, r2
40009224:	e1a02003 	mov	r2, r3
40009228:	e51b3020 	ldr	r3, [fp, #-32]	; 0xffffffe0
4000922c:	ebfffc80 	bl	40008434 <number>
40009230:	e50b0014 	str	r0, [fp, #-20]	; 0xffffffec
40009234:	e51b303c 	ldr	r3, [fp, #-60]	; 0xffffffc4
40009238:	e2833001 	add	r3, r3, #1
4000923c:	e50b303c 	str	r3, [fp, #-60]	; 0xffffffc4
40009240:	e51b303c 	ldr	r3, [fp, #-60]	; 0xffffffc4
40009244:	e5d33000 	ldrb	r3, [r3]
40009248:	e3530000 	cmp	r3, #0
4000924c:	1afffdc5 	bne	40008968 <vsprintf+0x24>
40009250:	e51b3014 	ldr	r3, [fp, #-20]	; 0xffffffec
40009254:	e3a02000 	mov	r2, #0
40009258:	e5c32000 	strb	r2, [r3]
4000925c:	e51b2014 	ldr	r2, [fp, #-20]	; 0xffffffec
40009260:	e51b3038 	ldr	r3, [fp, #-56]	; 0xffffffc8
40009264:	e0633002 	rsb	r3, r3, r2
40009268:	e1a00003 	mov	r0, r3
4000926c:	e24bd004 	sub	sp, fp, #4
40009270:	e8bd8800 	pop	{fp, pc}
40009274:	40009b18 	andmi	r9, r0, r8, lsl fp

40009278 <sprintf>:
40009278:	e92d000e 	push	{r1, r2, r3}
4000927c:	e92d4800 	push	{fp, lr}
40009280:	e28db004 	add	fp, sp, #4
40009284:	e24dd00c 	sub	sp, sp, #12
40009288:	e50b0010 	str	r0, [fp, #-16]
4000928c:	e28b3008 	add	r3, fp, #8
40009290:	e50b300c 	str	r3, [fp, #-12]
40009294:	e51b300c 	ldr	r3, [fp, #-12]
40009298:	e51b0010 	ldr	r0, [fp, #-16]
4000929c:	e59b1004 	ldr	r1, [fp, #4]
400092a0:	e1a02003 	mov	r2, r3
400092a4:	ebfffda6 	bl	40008944 <vsprintf>
400092a8:	e50b0008 	str	r0, [fp, #-8]
400092ac:	e51b3008 	ldr	r3, [fp, #-8]
400092b0:	e1a00003 	mov	r0, r3
400092b4:	e24bd004 	sub	sp, fp, #4
400092b8:	e8bd4800 	pop	{fp, lr}
400092bc:	e28dd00c 	add	sp, sp, #12
400092c0:	e12fff1e 	bx	lr

400092c4 <printf>:
400092c4:	e92d000f 	push	{r0, r1, r2, r3}
400092c8:	e92d4800 	push	{fp, lr}
400092cc:	e28db004 	add	fp, sp, #4
400092d0:	e24dd06c 	sub	sp, sp, #108	; 0x6c
400092d4:	e28b3008 	add	r3, fp, #8
400092d8:	e50b300c 	str	r3, [fp, #-12]
400092dc:	e51b300c 	ldr	r3, [fp, #-12]
400092e0:	e24b2070 	sub	r2, fp, #112	; 0x70
400092e4:	e1a00002 	mov	r0, r2
400092e8:	e59b1004 	ldr	r1, [fp, #4]
400092ec:	e1a02003 	mov	r2, r3
400092f0:	ebfffd93 	bl	40008944 <vsprintf>
400092f4:	e1a03000 	mov	r3, r0
400092f8:	e50b3008 	str	r3, [fp, #-8]
400092fc:	e24b3070 	sub	r3, fp, #112	; 0x70
40009300:	e1a00003 	mov	r0, r3
40009304:	eb000032 	bl	400093d4 <puts>
40009308:	e24bd004 	sub	sp, fp, #4
4000930c:	e8bd4800 	pop	{fp, lr}
40009310:	e28dd010 	add	sp, sp, #16
40009314:	e12fff1e 	bx	lr

40009318 <uart_init>:
40009318:	e52db004 	push	{fp}		; (str fp, [sp, #-4]!)
4000931c:	e28db000 	add	fp, sp, #0
40009320:	e59f304c 	ldr	r3, [pc, #76]	; 40009374 <uart_init+0x5c>
40009324:	e59f2048 	ldr	r2, [pc, #72]	; 40009374 <uart_init+0x5c>
40009328:	e5922000 	ldr	r2, [r2]
4000932c:	e3c220ff 	bic	r2, r2, #255	; 0xff
40009330:	e3822022 	orr	r2, r2, #34	; 0x22
40009334:	e5832000 	str	r2, [r3]
40009338:	e59f3038 	ldr	r3, [pc, #56]	; 40009378 <uart_init+0x60>
4000933c:	e3a02003 	mov	r2, #3
40009340:	e5832000 	str	r2, [r3]
40009344:	e59f302c 	ldr	r3, [pc, #44]	; 40009378 <uart_init+0x60>
40009348:	e3a02005 	mov	r2, #5
4000934c:	e5832004 	str	r2, [r3, #4]
40009350:	e59f3020 	ldr	r3, [pc, #32]	; 40009378 <uart_init+0x60>
40009354:	e3a02035 	mov	r2, #53	; 0x35
40009358:	e5832028 	str	r2, [r3, #40]	; 0x28
4000935c:	e59f3014 	ldr	r3, [pc, #20]	; 40009378 <uart_init+0x60>
40009360:	e3a02005 	mov	r2, #5
40009364:	e583202c 	str	r2, [r3, #44]	; 0x2c
40009368:	e28bd000 	add	sp, fp, #0
4000936c:	e8bd0800 	ldmfd	sp!, {fp}
40009370:	e12fff1e 	bx	lr
40009374:	11400020 	cmpne	r0, r0, lsr #32
40009378:	13820000 	orrne	r0, r2, #0

4000937c <putc>:
4000937c:	e92d4800 	push	{fp, lr}
40009380:	e28db004 	add	fp, sp, #4
40009384:	e24dd004 	sub	sp, sp, #4
40009388:	e1a03000 	mov	r3, r0
4000938c:	e54b3008 	strb	r3, [fp, #-8]
40009390:	e1a00000 	nop			; (mov r0, r0)
40009394:	e59f3034 	ldr	r3, [pc, #52]	; 400093d0 <putc+0x54>
40009398:	e5933010 	ldr	r3, [r3, #16]
4000939c:	e2033002 	and	r3, r3, #2
400093a0:	e3530000 	cmp	r3, #0
400093a4:	0afffffa 	beq	40009394 <putc+0x18>
400093a8:	e59f3020 	ldr	r3, [pc, #32]	; 400093d0 <putc+0x54>
400093ac:	e55b2008 	ldrb	r2, [fp, #-8]
400093b0:	e5832020 	str	r2, [r3, #32]
400093b4:	e55b3008 	ldrb	r3, [fp, #-8]
400093b8:	e353000a 	cmp	r3, #10
400093bc:	1a000001 	bne	400093c8 <putc+0x4c>
400093c0:	e3a0000d 	mov	r0, #13
400093c4:	ebffffec 	bl	4000937c <putc>
400093c8:	e24bd004 	sub	sp, fp, #4
400093cc:	e8bd8800 	pop	{fp, pc}
400093d0:	13820000 	orrne	r0, r2, #0

400093d4 <puts>:
400093d4:	e92d4800 	push	{fp, lr}
400093d8:	e28db004 	add	fp, sp, #4
400093dc:	e24dd004 	sub	sp, sp, #4
400093e0:	e50b0008 	str	r0, [fp, #-8]
400093e4:	ea000006 	b	40009404 <puts+0x30>
400093e8:	e51b3008 	ldr	r3, [fp, #-8]
400093ec:	e5d33000 	ldrb	r3, [r3]
400093f0:	e51b2008 	ldr	r2, [fp, #-8]
400093f4:	e2822001 	add	r2, r2, #1
400093f8:	e50b2008 	str	r2, [fp, #-8]
400093fc:	e1a00003 	mov	r0, r3
40009400:	ebffffdd 	bl	4000937c <putc>
40009404:	e51b3008 	ldr	r3, [fp, #-8]
40009408:	e5d33000 	ldrb	r3, [r3]
4000940c:	e3530000 	cmp	r3, #0
40009410:	1afffff4 	bne	400093e8 <puts+0x14>
40009414:	e24bd004 	sub	sp, fp, #4
40009418:	e8bd8800 	pop	{fp, pc}

4000941c <tohex>:
4000941c:	e92d4800 	push	{fp, lr}
40009420:	e28db004 	add	fp, sp, #4
40009424:	e24dd00c 	sub	sp, sp, #12
40009428:	e50b000c 	str	r0, [fp, #-12]
4000942c:	e50b1010 	str	r1, [fp, #-16]
40009430:	e3a03000 	mov	r3, #0
40009434:	e50b3008 	str	r3, [fp, #-8]
40009438:	ea000009 	b	40009464 <tohex+0x48>
4000943c:	e51b3008 	ldr	r3, [fp, #-8]
40009440:	e51b200c 	ldr	r2, [fp, #-12]
40009444:	e0823003 	add	r3, r2, r3
40009448:	e5d33000 	ldrb	r3, [r3]
4000944c:	e59f0030 	ldr	r0, [pc, #48]	; 40009484 <tohex+0x68>
40009450:	e1a01003 	mov	r1, r3
40009454:	ebffff9a 	bl	400092c4 <printf>
40009458:	e51b3008 	ldr	r3, [fp, #-8]
4000945c:	e2833001 	add	r3, r3, #1
40009460:	e50b3008 	str	r3, [fp, #-8]
40009464:	e51b2008 	ldr	r2, [fp, #-8]
40009468:	e51b3010 	ldr	r3, [fp, #-16]
4000946c:	e1520003 	cmp	r2, r3
40009470:	bafffff1 	blt	4000943c <tohex+0x20>
40009474:	e59f000c 	ldr	r0, [pc, #12]	; 40009488 <tohex+0x6c>
40009478:	ebffff91 	bl	400092c4 <printf>
4000947c:	e24bd004 	sub	sp, fp, #4
40009480:	e8bd8800 	pop	{fp, pc}
40009484:	40009b20 	andmi	r9, r0, r0, lsr #22
40009488:	40009b24 	andmi	r9, r0, r4, lsr #22

4000948c <tobin>:
4000948c:	e92d4800 	push	{fp, lr}
40009490:	e28db004 	add	fp, sp, #4
40009494:	e24dd014 	sub	sp, sp, #20
40009498:	e50b0018 	str	r0, [fp, #-24]	; 0xffffffe8
4000949c:	e51b3018 	ldr	r3, [fp, #-24]	; 0xffffffe8
400094a0:	e50b300c 	str	r3, [fp, #-12]
400094a4:	e3a03000 	mov	r3, #0
400094a8:	e50b3010 	str	r3, [fp, #-16]
400094ac:	e3a03000 	mov	r3, #0
400094b0:	e50b3014 	str	r3, [fp, #-20]	; 0xffffffec
400094b4:	e3a03000 	mov	r3, #0
400094b8:	e50b3008 	str	r3, [fp, #-8]
400094bc:	e3a0301f 	mov	r3, #31
400094c0:	e50b3008 	str	r3, [fp, #-8]
400094c4:	ea000010 	b	4000950c <tobin+0x80>
400094c8:	e51b200c 	ldr	r2, [fp, #-12]
400094cc:	e51b3008 	ldr	r3, [fp, #-8]
400094d0:	e1a03332 	lsr	r3, r2, r3
400094d4:	e2033001 	and	r3, r3, #1
400094d8:	e50b3010 	str	r3, [fp, #-16]
400094dc:	e59f0044 	ldr	r0, [pc, #68]	; 40009528 <tobin+0x9c>
400094e0:	e51b1010 	ldr	r1, [fp, #-16]
400094e4:	ebffff76 	bl	400092c4 <printf>
400094e8:	e51b3008 	ldr	r3, [fp, #-8]
400094ec:	e2033003 	and	r3, r3, #3
400094f0:	e3530000 	cmp	r3, #0
400094f4:	1a000001 	bne	40009500 <tobin+0x74>
400094f8:	e59f002c 	ldr	r0, [pc, #44]	; 4000952c <tobin+0xa0>
400094fc:	ebffff70 	bl	400092c4 <printf>
40009500:	e51b3008 	ldr	r3, [fp, #-8]
40009504:	e2433001 	sub	r3, r3, #1
40009508:	e50b3008 	str	r3, [fp, #-8]
4000950c:	e51b3008 	ldr	r3, [fp, #-8]
40009510:	e3530000 	cmp	r3, #0
40009514:	aaffffeb 	bge	400094c8 <tobin+0x3c>
40009518:	e59f0010 	ldr	r0, [pc, #16]	; 40009530 <tobin+0xa4>
4000951c:	ebffff68 	bl	400092c4 <printf>
40009520:	e24bd004 	sub	sp, fp, #4
40009524:	e8bd8800 	pop	{fp, pc}
40009528:	40009b28 	andmi	r9, r0, r8, lsr #22
4000952c:	40009b2c 	andmi	r9, r0, ip, lsr #22
40009530:	40009b24 	andmi	r9, r0, r4, lsr #22

40009534 <__umodsi3>:
40009534:	e3510000 	cmp	r1, #0
40009538:	0a000026 	beq	400095d8 <Ldiv0>
4000953c:	e3a03001 	mov	r3, #1
40009540:	e1500001 	cmp	r0, r1
40009544:	31a0f00e 	movcc	pc, lr

40009548 <Loop1>:
40009548:	e3510201 	cmp	r1, #268435456	; 0x10000000
4000954c:	31510000 	cmpcc	r1, r0
40009550:	31a01201 	lslcc	r1, r1, #4
40009554:	31a03203 	lslcc	r3, r3, #4
40009558:	3afffffa 	bcc	40009548 <Loop1>

4000955c <Lbignum>:
4000955c:	e3510102 	cmp	r1, #-2147483648	; 0x80000000
40009560:	31510000 	cmpcc	r1, r0
40009564:	31a01081 	lslcc	r1, r1, #1
40009568:	31a03083 	lslcc	r3, r3, #1
4000956c:	3afffffa 	bcc	4000955c <Lbignum>

40009570 <Loop3>:
40009570:	e3a02000 	mov	r2, #0
40009574:	e1500001 	cmp	r0, r1
40009578:	20400001 	subcs	r0, r0, r1
4000957c:	e15000a1 	cmp	r0, r1, lsr #1
40009580:	204000a1 	subcs	r0, r0, r1, lsr #1
40009584:	218220e3 	orrcs	r2, r2, r3, ror #1
40009588:	e1500121 	cmp	r0, r1, lsr #2
4000958c:	20400121 	subcs	r0, r0, r1, lsr #2
40009590:	21822163 	orrcs	r2, r2, r3, ror #2
40009594:	e15001a1 	cmp	r0, r1, lsr #3
40009598:	204001a1 	subcs	r0, r0, r1, lsr #3
4000959c:	218221e3 	orrcs	r2, r2, r3, ror #3
400095a0:	e1a0c003 	mov	ip, r3
400095a4:	e3500000 	cmp	r0, #0
400095a8:	11b03223 	lsrsne	r3, r3, #4
400095ac:	11a01221 	lsrne	r1, r1, #4
400095b0:	1affffee 	bne	40009570 <Loop3>
400095b4:	e212220e 	ands	r2, r2, #-536870912	; 0xe0000000
400095b8:	01a0f00e 	moveq	pc, lr
400095bc:	e11201ec 	tst	r2, ip, ror #3
400095c0:	108001a1 	addne	r0, r0, r1, lsr #3
400095c4:	e112016c 	tst	r2, ip, ror #2
400095c8:	10800121 	addne	r0, r0, r1, lsr #2
400095cc:	e11200ec 	tst	r2, ip, ror #1
400095d0:	108000a1 	addne	r0, r0, r1, lsr #1
400095d4:	e1a0f00e 	mov	pc, lr

400095d8 <Ldiv0>:
400095d8:	e52de004 	push	{lr}		; (str lr, [sp, #-4]!)
400095dc:	e3a00000 	mov	r0, #0
400095e0:	e8bd8000 	ldmfd	sp!, {pc}

400095e4 <__udivsi3>:
400095e4:	e3510000 	cmp	r1, #0
400095e8:	0a00001f 	beq	4000966c <Ldiv0>
400095ec:	e3a03001 	mov	r3, #1
400095f0:	e3a02000 	mov	r2, #0
400095f4:	e1500001 	cmp	r0, r1
400095f8:	3a000019 	bcc	40009664 <Lgot_result>

400095fc <Loop1>:
400095fc:	e3510201 	cmp	r1, #268435456	; 0x10000000
40009600:	31510000 	cmpcc	r1, r0
40009604:	31a01201 	lslcc	r1, r1, #4
40009608:	31a03203 	lslcc	r3, r3, #4
4000960c:	3afffffa 	bcc	400095fc <Loop1>

40009610 <Lbignum>:
40009610:	e3510102 	cmp	r1, #-2147483648	; 0x80000000
40009614:	31510000 	cmpcc	r1, r0
40009618:	31a01081 	lslcc	r1, r1, #1
4000961c:	31a03083 	lslcc	r3, r3, #1
40009620:	3afffffa 	bcc	40009610 <Lbignum>

40009624 <Loop3>:
40009624:	e1500001 	cmp	r0, r1
40009628:	20400001 	subcs	r0, r0, r1
4000962c:	21822003 	orrcs	r2, r2, r3
40009630:	e15000a1 	cmp	r0, r1, lsr #1
40009634:	204000a1 	subcs	r0, r0, r1, lsr #1
40009638:	218220a3 	orrcs	r2, r2, r3, lsr #1
4000963c:	e1500121 	cmp	r0, r1, lsr #2
40009640:	20400121 	subcs	r0, r0, r1, lsr #2
40009644:	21822123 	orrcs	r2, r2, r3, lsr #2
40009648:	e15001a1 	cmp	r0, r1, lsr #3
4000964c:	204001a1 	subcs	r0, r0, r1, lsr #3
40009650:	218221a3 	orrcs	r2, r2, r3, lsr #3
40009654:	e3500000 	cmp	r0, #0
40009658:	11b03223 	lsrsne	r3, r3, #4
4000965c:	11a01221 	lsrne	r1, r1, #4
40009660:	1affffef 	bne	40009624 <Loop3>

40009664 <Lgot_result>:
40009664:	e1a00002 	mov	r0, r2
40009668:	e1a0f00e 	mov	pc, lr

4000966c <Ldiv0>:
4000966c:	e52de004 	push	{lr}		; (str lr, [sp, #-4]!)
40009670:	e3a00000 	mov	r0, #0
40009674:	e8bd8000 	ldmfd	sp!, {pc}

40009678 <mydelay_ms>:
40009678:	e52db004 	push	{fp}		; (str fp, [sp, #-4]!)
4000967c:	e28db000 	add	fp, sp, #0
40009680:	e24dd00c 	sub	sp, sp, #12
40009684:	e50b000c 	str	r0, [fp, #-12]
40009688:	ea000012 	b	400096d8 <mydelay_ms+0x60>
4000968c:	e3a03000 	mov	r3, #0
40009690:	e50b3004 	str	r3, [fp, #-4]
40009694:	ea00000c 	b	400096cc <mydelay_ms+0x54>
40009698:	e3a03000 	mov	r3, #0
4000969c:	e50b3008 	str	r3, [fp, #-8]
400096a0:	ea000002 	b	400096b0 <mydelay_ms+0x38>
400096a4:	e51b3008 	ldr	r3, [fp, #-8]
400096a8:	e2833001 	add	r3, r3, #1
400096ac:	e50b3008 	str	r3, [fp, #-8]
400096b0:	e51b2008 	ldr	r2, [fp, #-8]
400096b4:	e59f3050 	ldr	r3, [pc, #80]	; 4000970c <mydelay_ms+0x94>
400096b8:	e1520003 	cmp	r2, r3
400096bc:	dafffff8 	ble	400096a4 <mydelay_ms+0x2c>
400096c0:	e51b3004 	ldr	r3, [fp, #-4]
400096c4:	e2833001 	add	r3, r3, #1
400096c8:	e50b3004 	str	r3, [fp, #-4]
400096cc:	e51b3004 	ldr	r3, [fp, #-4]
400096d0:	e3530004 	cmp	r3, #4
400096d4:	daffffef 	ble	40009698 <mydelay_ms+0x20>
400096d8:	e51b300c 	ldr	r3, [fp, #-12]
400096dc:	e3530000 	cmp	r3, #0
400096e0:	03a03000 	moveq	r3, #0
400096e4:	13a03001 	movne	r3, #1
400096e8:	e20330ff 	and	r3, r3, #255	; 0xff
400096ec:	e51b200c 	ldr	r2, [fp, #-12]
400096f0:	e2422001 	sub	r2, r2, #1
400096f4:	e50b200c 	str	r2, [fp, #-12]
400096f8:	e3530000 	cmp	r3, #0
400096fc:	1affffe2 	bne	4000968c <mydelay_ms+0x14>
40009700:	e28bd000 	add	sp, fp, #0
40009704:	e8bd0800 	ldmfd	sp!, {fp}
40009708:	e12fff1e 	bx	lr
4000970c:	00000201 	andeq	r0, r0, r1, lsl #4

40009710 <iic_write>:
40009710:	e92d4800 	push	{fp, lr}
40009714:	e28db004 	add	fp, sp, #4
40009718:	e24dd00c 	sub	sp, sp, #12
4000971c:	e1a03002 	mov	r3, r2
40009720:	e1a02000 	mov	r2, r0
40009724:	e54b2008 	strb	r2, [fp, #-8]
40009728:	e1a02001 	mov	r2, r1
4000972c:	e54b200c 	strb	r2, [fp, #-12]
40009730:	e54b3010 	strb	r3, [fp, #-16]
40009734:	e59f30f4 	ldr	r3, [pc, #244]	; 40009830 <iic_write+0x120>
40009738:	e59f20f0 	ldr	r2, [pc, #240]	; 40009830 <iic_write+0x120>
4000973c:	e5922000 	ldr	r2, [r2]
40009740:	e3822060 	orr	r2, r2, #96	; 0x60
40009744:	e5832000 	str	r2, [r3]
40009748:	e59f30e0 	ldr	r3, [pc, #224]	; 40009830 <iic_write+0x120>
4000974c:	e59f20dc 	ldr	r2, [pc, #220]	; 40009830 <iic_write+0x120>
40009750:	e5922004 	ldr	r2, [r2, #4]
40009754:	e3822010 	orr	r2, r2, #16
40009758:	e5832004 	str	r2, [r3, #4]
4000975c:	e59f30cc 	ldr	r3, [pc, #204]	; 40009830 <iic_write+0x120>
40009760:	e55b2008 	ldrb	r2, [fp, #-8]
40009764:	e1a02082 	lsl	r2, r2, #1
40009768:	e583200c 	str	r2, [r3, #12]
4000976c:	e59f30bc 	ldr	r3, [pc, #188]	; 40009830 <iic_write+0x120>
40009770:	e3a020f0 	mov	r2, #240	; 0xf0
40009774:	e5832004 	str	r2, [r3, #4]
40009778:	e1a00000 	nop			; (mov r0, r0)
4000977c:	e59f30ac 	ldr	r3, [pc, #172]	; 40009830 <iic_write+0x120>
40009780:	e5933000 	ldr	r3, [r3]
40009784:	e2033010 	and	r3, r3, #16
40009788:	e3530000 	cmp	r3, #0
4000978c:	0afffffa 	beq	4000977c <iic_write+0x6c>
40009790:	e59f3098 	ldr	r3, [pc, #152]	; 40009830 <iic_write+0x120>
40009794:	e55b200c 	ldrb	r2, [fp, #-12]
40009798:	e583200c 	str	r2, [r3, #12]
4000979c:	e59f308c 	ldr	r3, [pc, #140]	; 40009830 <iic_write+0x120>
400097a0:	e59f2088 	ldr	r2, [pc, #136]	; 40009830 <iic_write+0x120>
400097a4:	e5922000 	ldr	r2, [r2]
400097a8:	e3c22010 	bic	r2, r2, #16
400097ac:	e5832000 	str	r2, [r3]
400097b0:	e1a00000 	nop			; (mov r0, r0)
400097b4:	e59f3074 	ldr	r3, [pc, #116]	; 40009830 <iic_write+0x120>
400097b8:	e5933000 	ldr	r3, [r3]
400097bc:	e2033010 	and	r3, r3, #16
400097c0:	e3530000 	cmp	r3, #0
400097c4:	0afffffa 	beq	400097b4 <iic_write+0xa4>
400097c8:	e59f3060 	ldr	r3, [pc, #96]	; 40009830 <iic_write+0x120>
400097cc:	e55b2010 	ldrb	r2, [fp, #-16]
400097d0:	e583200c 	str	r2, [r3, #12]
400097d4:	e59f3054 	ldr	r3, [pc, #84]	; 40009830 <iic_write+0x120>
400097d8:	e59f2050 	ldr	r2, [pc, #80]	; 40009830 <iic_write+0x120>
400097dc:	e5922000 	ldr	r2, [r2]
400097e0:	e3c22010 	bic	r2, r2, #16
400097e4:	e5832000 	str	r2, [r3]
400097e8:	e1a00000 	nop			; (mov r0, r0)
400097ec:	e59f303c 	ldr	r3, [pc, #60]	; 40009830 <iic_write+0x120>
400097f0:	e5933000 	ldr	r3, [r3]
400097f4:	e2033010 	and	r3, r3, #16
400097f8:	e3530000 	cmp	r3, #0
400097fc:	0afffffa 	beq	400097ec <iic_write+0xdc>
40009800:	e59f3028 	ldr	r3, [pc, #40]	; 40009830 <iic_write+0x120>
40009804:	e3a020d0 	mov	r2, #208	; 0xd0
40009808:	e5832004 	str	r2, [r3, #4]
4000980c:	e59f301c 	ldr	r3, [pc, #28]	; 40009830 <iic_write+0x120>
40009810:	e59f2018 	ldr	r2, [pc, #24]	; 40009830 <iic_write+0x120>
40009814:	e5922000 	ldr	r2, [r2]
40009818:	e3c22010 	bic	r2, r2, #16
4000981c:	e5832000 	str	r2, [r3]
40009820:	e3a0000a 	mov	r0, #10
40009824:	ebffff93 	bl	40009678 <mydelay_ms>
40009828:	e24bd004 	sub	sp, fp, #4
4000982c:	e8bd8800 	pop	{fp, pc}
40009830:	138b0000 	orrne	r0, fp, #0

40009834 <iic_read>:
40009834:	e92d4800 	push	{fp, lr}
40009838:	e28db004 	add	fp, sp, #4
4000983c:	e24dd00c 	sub	sp, sp, #12
40009840:	e1a02000 	mov	r2, r0
40009844:	e1a03001 	mov	r3, r1
40009848:	e54b200c 	strb	r2, [fp, #-12]
4000984c:	e54b3010 	strb	r3, [fp, #-16]
40009850:	e3a03000 	mov	r3, #0
40009854:	e54b3005 	strb	r3, [fp, #-5]
40009858:	e59f3148 	ldr	r3, [pc, #328]	; 400099a8 <iic_read+0x174>
4000985c:	e59f2144 	ldr	r2, [pc, #324]	; 400099a8 <iic_read+0x174>
40009860:	e5922000 	ldr	r2, [r2]
40009864:	e3822060 	orr	r2, r2, #96	; 0x60
40009868:	e5832000 	str	r2, [r3]
4000986c:	e59f3134 	ldr	r3, [pc, #308]	; 400099a8 <iic_read+0x174>
40009870:	e59f2130 	ldr	r2, [pc, #304]	; 400099a8 <iic_read+0x174>
40009874:	e5922004 	ldr	r2, [r2, #4]
40009878:	e3822010 	orr	r2, r2, #16
4000987c:	e5832004 	str	r2, [r3, #4]
40009880:	e59f3120 	ldr	r3, [pc, #288]	; 400099a8 <iic_read+0x174>
40009884:	e55b200c 	ldrb	r2, [fp, #-12]
40009888:	e1a02082 	lsl	r2, r2, #1
4000988c:	e583200c 	str	r2, [r3, #12]
40009890:	e59f3110 	ldr	r3, [pc, #272]	; 400099a8 <iic_read+0x174>
40009894:	e3a020f0 	mov	r2, #240	; 0xf0
40009898:	e5832004 	str	r2, [r3, #4]
4000989c:	e1a00000 	nop			; (mov r0, r0)
400098a0:	e59f3100 	ldr	r3, [pc, #256]	; 400099a8 <iic_read+0x174>
400098a4:	e5933000 	ldr	r3, [r3]
400098a8:	e2033010 	and	r3, r3, #16
400098ac:	e3530000 	cmp	r3, #0
400098b0:	0afffffa 	beq	400098a0 <iic_read+0x6c>
400098b4:	e59f30ec 	ldr	r3, [pc, #236]	; 400099a8 <iic_read+0x174>
400098b8:	e55b2010 	ldrb	r2, [fp, #-16]
400098bc:	e583200c 	str	r2, [r3, #12]
400098c0:	e59f30e0 	ldr	r3, [pc, #224]	; 400099a8 <iic_read+0x174>
400098c4:	e59f20dc 	ldr	r2, [pc, #220]	; 400099a8 <iic_read+0x174>
400098c8:	e5922000 	ldr	r2, [r2]
400098cc:	e3c22010 	bic	r2, r2, #16
400098d0:	e5832000 	str	r2, [r3]
400098d4:	e1a00000 	nop			; (mov r0, r0)
400098d8:	e59f30c8 	ldr	r3, [pc, #200]	; 400099a8 <iic_read+0x174>
400098dc:	e5933000 	ldr	r3, [r3]
400098e0:	e2033010 	and	r3, r3, #16
400098e4:	e3530000 	cmp	r3, #0
400098e8:	0afffffa 	beq	400098d8 <iic_read+0xa4>
400098ec:	e59f30b4 	ldr	r3, [pc, #180]	; 400099a8 <iic_read+0x174>
400098f0:	e59f20b0 	ldr	r2, [pc, #176]	; 400099a8 <iic_read+0x174>
400098f4:	e5922000 	ldr	r2, [r2]
400098f8:	e3c22010 	bic	r2, r2, #16
400098fc:	e5832000 	str	r2, [r3]
40009900:	e59f30a0 	ldr	r3, [pc, #160]	; 400099a8 <iic_read+0x174>
40009904:	e55b200c 	ldrb	r2, [fp, #-12]
40009908:	e1a02082 	lsl	r2, r2, #1
4000990c:	e3822001 	orr	r2, r2, #1
40009910:	e583200c 	str	r2, [r3, #12]
40009914:	e59f308c 	ldr	r3, [pc, #140]	; 400099a8 <iic_read+0x174>
40009918:	e3a020b0 	mov	r2, #176	; 0xb0
4000991c:	e5832004 	str	r2, [r3, #4]
40009920:	e1a00000 	nop			; (mov r0, r0)
40009924:	e59f307c 	ldr	r3, [pc, #124]	; 400099a8 <iic_read+0x174>
40009928:	e5933000 	ldr	r3, [r3]
4000992c:	e2033010 	and	r3, r3, #16
40009930:	e3530000 	cmp	r3, #0
40009934:	0afffffa 	beq	40009924 <iic_read+0xf0>
40009938:	e59f3068 	ldr	r3, [pc, #104]	; 400099a8 <iic_read+0x174>
4000993c:	e59f2064 	ldr	r2, [pc, #100]	; 400099a8 <iic_read+0x174>
40009940:	e5922000 	ldr	r2, [r2]
40009944:	e3c22090 	bic	r2, r2, #144	; 0x90
40009948:	e5832000 	str	r2, [r3]
4000994c:	e1a00000 	nop			; (mov r0, r0)
40009950:	e59f3050 	ldr	r3, [pc, #80]	; 400099a8 <iic_read+0x174>
40009954:	e5933000 	ldr	r3, [r3]
40009958:	e2033010 	and	r3, r3, #16
4000995c:	e3530000 	cmp	r3, #0
40009960:	0afffffa 	beq	40009950 <iic_read+0x11c>
40009964:	e59f303c 	ldr	r3, [pc, #60]	; 400099a8 <iic_read+0x174>
40009968:	e593300c 	ldr	r3, [r3, #12]
4000996c:	e54b3005 	strb	r3, [fp, #-5]
40009970:	e59f3030 	ldr	r3, [pc, #48]	; 400099a8 <iic_read+0x174>
40009974:	e3a02090 	mov	r2, #144	; 0x90
40009978:	e5832004 	str	r2, [r3, #4]
4000997c:	e59f3024 	ldr	r3, [pc, #36]	; 400099a8 <iic_read+0x174>
40009980:	e59f2020 	ldr	r2, [pc, #32]	; 400099a8 <iic_read+0x174>
40009984:	e5922000 	ldr	r2, [r2]
40009988:	e3c22010 	bic	r2, r2, #16
4000998c:	e5832000 	str	r2, [r3]
40009990:	e3a0000a 	mov	r0, #10
40009994:	ebffff37 	bl	40009678 <mydelay_ms>
40009998:	e55b3005 	ldrb	r3, [fp, #-5]
4000999c:	e1a00003 	mov	r0, r3
400099a0:	e24bd004 	sub	sp, fp, #4
400099a4:	e8bd8800 	pop	{fp, pc}
400099a8:	138b0000 	orrne	r0, fp, #0

400099ac <MPU6050_Init>:
400099ac:	e92d4800 	push	{fp, lr}
400099b0:	e28db004 	add	fp, sp, #4
400099b4:	e3a00068 	mov	r0, #104	; 0x68
400099b8:	e3a0106b 	mov	r1, #107	; 0x6b
400099bc:	e3a02000 	mov	r2, #0
400099c0:	ebffff52 	bl	40009710 <iic_write>
400099c4:	e3a00068 	mov	r0, #104	; 0x68
400099c8:	e3a01019 	mov	r1, #25
400099cc:	e3a02007 	mov	r2, #7
400099d0:	ebffff4e 	bl	40009710 <iic_write>
400099d4:	e3a00068 	mov	r0, #104	; 0x68
400099d8:	e3a0101a 	mov	r1, #26
400099dc:	e3a02006 	mov	r2, #6
400099e0:	ebffff4a 	bl	40009710 <iic_write>
400099e4:	e3a00068 	mov	r0, #104	; 0x68
400099e8:	e3a0101b 	mov	r1, #27
400099ec:	e3a02018 	mov	r2, #24
400099f0:	ebffff46 	bl	40009710 <iic_write>
400099f4:	e3a00068 	mov	r0, #104	; 0x68
400099f8:	e3a0101c 	mov	r1, #28
400099fc:	e3a02000 	mov	r2, #0
40009a00:	ebffff42 	bl	40009710 <iic_write>
40009a04:	e8bd8800 	pop	{fp, pc}

40009a08 <main>:
40009a08:	e92d4800 	push	{fp, lr}
40009a0c:	e28db004 	add	fp, sp, #4
40009a10:	e24dd004 	sub	sp, sp, #4
40009a14:	e59f30a0 	ldr	r3, [pc, #160]	; 40009abc <main+0xb4>
40009a18:	e59f209c 	ldr	r2, [pc, #156]	; 40009abc <main+0xb4>
40009a1c:	e5922000 	ldr	r2, [r2]
40009a20:	e3c22a0f 	bic	r2, r2, #61440	; 0xf000
40009a24:	e3822a03 	orr	r2, r2, #12288	; 0x3000
40009a28:	e5832000 	str	r2, [r3]
40009a2c:	e59f3088 	ldr	r3, [pc, #136]	; 40009abc <main+0xb4>
40009a30:	e59f2084 	ldr	r2, [pc, #132]	; 40009abc <main+0xb4>
40009a34:	e5922000 	ldr	r2, [r2]
40009a38:	e3c22c0f 	bic	r2, r2, #3840	; 0xf00
40009a3c:	e3822c03 	orr	r2, r2, #768	; 0x300
40009a40:	e5832000 	str	r2, [r3]
40009a44:	ebfffe33 	bl	40009318 <uart_init>
40009a48:	ebffffd7 	bl	400099ac <MPU6050_Init>
40009a4c:	e59f006c 	ldr	r0, [pc, #108]	; 40009ac0 <main+0xb8>
40009a50:	ebfffe1b 	bl	400092c4 <printf>
40009a54:	e3a00068 	mov	r0, #104	; 0x68
40009a58:	e3a01047 	mov	r1, #71	; 0x47
40009a5c:	ebffff74 	bl	40009834 <iic_read>
40009a60:	e1a03000 	mov	r3, r0
40009a64:	e54b3005 	strb	r3, [fp, #-5]
40009a68:	e3a00068 	mov	r0, #104	; 0x68
40009a6c:	e3a01048 	mov	r1, #72	; 0x48
40009a70:	ebffff6f 	bl	40009834 <iic_read>
40009a74:	e1a03000 	mov	r3, r0
40009a78:	e54b3006 	strb	r3, [fp, #-6]
40009a7c:	e55b3005 	ldrb	r3, [fp, #-5]
40009a80:	e1a03403 	lsl	r3, r3, #8
40009a84:	e1a03803 	lsl	r3, r3, #16
40009a88:	e1a02823 	lsr	r2, r3, #16
40009a8c:	e55b3006 	ldrb	r3, [fp, #-6]
40009a90:	e1a03803 	lsl	r3, r3, #16
40009a94:	e1a03823 	lsr	r3, r3, #16
40009a98:	e1823003 	orr	r3, r2, r3
40009a9c:	e14b30b8 	strh	r3, [fp, #-8]
40009aa0:	e15b30f8 	ldrsh	r3, [fp, #-8]
40009aa4:	e59f0018 	ldr	r0, [pc, #24]	; 40009ac4 <main+0xbc>
40009aa8:	e1a01003 	mov	r1, r3
40009aac:	ebfffe04 	bl	400092c4 <printf>
40009ab0:	e3a00064 	mov	r0, #100	; 0x64
40009ab4:	ebfffeef 	bl	40009678 <mydelay_ms>
40009ab8:	eaffffe5 	b	40009a54 <main+0x4c>
40009abc:	11400040 	cmpne	r0, r0, asr #32
40009ac0:	40009b30 	andmi	r9, r0, r0, lsr fp
40009ac4:	40009b54 	andmi	r9, r0, r4, asr fp

Disassembly of section .rodata:

40009ac8 <.rodata>:
40009ac8:	33323130 	teqcc	r2, #48, 2
40009acc:	37363534 			; <UNDEFINED> instruction: 0x37363534
40009ad0:	62613938 	rsbvs	r3, r1, #56, 18	; 0xe0000
40009ad4:	66656463 	strbtvs	r6, [r5], -r3, ror #8
40009ad8:	6a696867 	bvs	41a63c7c <_ctype+0x1a59910>
40009adc:	6e6d6c6b 	cdpvs	12, 6, cr6, cr13, cr11, {3}
40009ae0:	7271706f 	rsbsvc	r7, r1, #111	; 0x6f
40009ae4:	76757473 			; <UNDEFINED> instruction: 0x76757473
40009ae8:	7a797877 	bvc	41e67ccc <_ctype+0x1e5d960>
40009aec:	00000000 	andeq	r0, r0, r0
40009af0:	33323130 	teqcc	r2, #48, 2
40009af4:	37363534 			; <UNDEFINED> instruction: 0x37363534
40009af8:	42413938 	submi	r3, r1, #56, 18	; 0xe0000
40009afc:	46454443 	strbmi	r4, [r5], -r3, asr #8
40009b00:	4a494847 	bmi	4125bc24 <_ctype+0x12518b8>
40009b04:	4e4d4c4b 	cdpmi	12, 4, cr4, cr13, cr11, {2}
40009b08:	5251504f 	subspl	r5, r1, #79	; 0x4f
40009b0c:	56555453 			; <UNDEFINED> instruction: 0x56555453
40009b10:	5a595857 	bpl	4165fc74 <_ctype+0x1655908>
40009b14:	00000000 	andeq	r0, r0, r0
40009b18:	4c554e3c 	mrrcmi	14, 3, r4, r5, cr12
40009b1c:	00003e4c 	andeq	r3, r0, ip, asr #28
40009b20:	00207825 	eoreq	r7, r0, r5, lsr #16
40009b24:	0000000a 	andeq	r0, r0, sl
40009b28:	00006425 	andeq	r6, r0, r5, lsr #8
40009b2c:	00000020 	andeq	r0, r0, r0, lsr #32
40009b30:	2a2a2a0a 	bcs	40a94360 <_ctype+0xa89ff4>
40009b34:	2a2a2a2a 	bcs	40a943e4 <_ctype+0xa8a078>
40009b38:	202a2a2a 	eorcs	r2, sl, sl, lsr #20
40009b3c:	20433249 	subcs	r3, r3, r9, asr #4
40009b40:	74736574 	ldrbtvc	r6, [r3], #-1396	; 0xfffffa8c
40009b44:	2a202121 	bcs	40811fd0 <_ctype+0x807c64>
40009b48:	2a2a2a2a 	bcs	40a943f8 <_ctype+0xa8a08c>
40009b4c:	2a2a2a2a 	bcs	40a943fc <_ctype+0xa8a090>
40009b50:	000a2a2a 	andeq	r2, sl, sl, lsr #20
40009b54:	52594720 	subspl	r4, r9, #32, 14	; 0x800000
40009b58:	5a2d2d4f 	bpl	40b5509c <_ctype+0xb4ad30>
40009b5c:	483a2020 	ldmdami	sl!, {r5, sp}
40009b60:	203a7865 	eorscs	r7, sl, r5, ror #16
40009b64:	0a096425 	beq	40262c00 <_ctype+0x258894>
40009b68:	00000000 	andeq	r0, r0, r0

Disassembly of section .data:

40009b6c <stack>:
	...

4000a36c <_ctype>:
4000a36c:	08080808 	stmdaeq	r8, {r3, fp}
4000a370:	08080808 	stmdaeq	r8, {r3, fp}
4000a374:	28282808 	stmdacs	r8!, {r3, fp, sp}
4000a378:	08082828 	stmdaeq	r8, {r3, r5, fp, sp}
4000a37c:	08080808 	stmdaeq	r8, {r3, fp}
4000a380:	08080808 	stmdaeq	r8, {r3, fp}
4000a384:	08080808 	stmdaeq	r8, {r3, fp}
4000a388:	08080808 	stmdaeq	r8, {r3, fp}
4000a38c:	101010a0 	andsne	r1, r0, r0, lsr #1
4000a390:	10101010 	andsne	r1, r0, r0, lsl r0
4000a394:	10101010 	andsne	r1, r0, r0, lsl r0
4000a398:	10101010 	andsne	r1, r0, r0, lsl r0
4000a39c:	04040404 	streq	r0, [r4], #-1028	; 0xfffffbfc
4000a3a0:	04040404 	streq	r0, [r4], #-1028	; 0xfffffbfc
4000a3a4:	10100404 	andsne	r0, r0, r4, lsl #8
4000a3a8:	10101010 	andsne	r1, r0, r0, lsl r0
4000a3ac:	41414110 	cmpmi	r1, r0, lsl r1
4000a3b0:	01414141 	cmpeq	r1, r1, asr #2
4000a3b4:	01010101 	tsteq	r1, r1, lsl #2
4000a3b8:	01010101 	tsteq	r1, r1, lsl #2
4000a3bc:	01010101 	tsteq	r1, r1, lsl #2
4000a3c0:	01010101 	tsteq	r1, r1, lsl #2
4000a3c4:	10010101 	andne	r0, r1, r1, lsl #2
4000a3c8:	10101010 	andsne	r1, r0, r0, lsl r0
4000a3cc:	42424210 	submi	r4, r2, #16, 4
4000a3d0:	02424242 	subeq	r4, r2, #536870916	; 0x20000004
4000a3d4:	02020202 	andeq	r0, r2, #536870912	; 0x20000000
4000a3d8:	02020202 	andeq	r0, r2, #536870912	; 0x20000000
4000a3dc:	02020202 	andeq	r0, r2, #536870912	; 0x20000000
4000a3e0:	02020202 	andeq	r0, r2, #536870912	; 0x20000000
4000a3e4:	10020202 	andne	r0, r2, r2, lsl #4
4000a3e8:	08101010 	ldmdaeq	r0, {r4, ip}
	...
4000a40c:	101010a0 	andsne	r1, r0, r0, lsr #1
4000a410:	10101010 	andsne	r1, r0, r0, lsl r0
4000a414:	10101010 	andsne	r1, r0, r0, lsl r0
4000a418:	10101010 	andsne	r1, r0, r0, lsl r0
4000a41c:	10101010 	andsne	r1, r0, r0, lsl r0
4000a420:	10101010 	andsne	r1, r0, r0, lsl r0
4000a424:	10101010 	andsne	r1, r0, r0, lsl r0
4000a428:	10101010 	andsne	r1, r0, r0, lsl r0
4000a42c:	01010101 	tsteq	r1, r1, lsl #2
4000a430:	01010101 	tsteq	r1, r1, lsl #2
4000a434:	01010101 	tsteq	r1, r1, lsl #2
4000a438:	01010101 	tsteq	r1, r1, lsl #2
4000a43c:	01010101 	tsteq	r1, r1, lsl #2
4000a440:	10010101 	andne	r0, r1, r1, lsl #2
4000a444:	01010101 	tsteq	r1, r1, lsl #2
4000a448:	02010101 	andeq	r0, r1, #1073741824	; 0x40000000
4000a44c:	02020202 	andeq	r0, r2, #536870912	; 0x20000000
4000a450:	02020202 	andeq	r0, r2, #536870912	; 0x20000000
4000a454:	02020202 	andeq	r0, r2, #536870912	; 0x20000000
4000a458:	02020202 	andeq	r0, r2, #536870912	; 0x20000000
4000a45c:	02020202 	andeq	r0, r2, #536870912	; 0x20000000
4000a460:	10020202 	andne	r0, r2, r2, lsl #4
4000a464:	02020202 	andeq	r0, r2, #536870912	; 0x20000000
4000a468:	02020202 	andeq	r0, r2, #536870912	; 0x20000000

Disassembly of section .ARM.attributes:

00000000 <.ARM.attributes>:
   0:	00000f41 	andeq	r0, r0, r1, asr #30
   4:	61656100 	cmnvs	r5, r0, lsl #2
   8:	01006962 	tsteq	r0, r2, ror #18
   c:	00000005 	andeq	r0, r0, r5

Disassembly of section .comment:

00000000 <.comment>:
   0:	3a434347 	bcc	10d0d24 <_start-0x3ef372dc>
   4:	62552820 	subsvs	r2, r5, #32, 16	; 0x200000
   8:	75746e75 	ldrbvc	r6, [r4, #-3701]!	; 0xfffff18b
   c:	6e694c2f 	cdpvs	12, 6, cr4, cr9, cr15, {1}
  10:	206f7261 	rsbcs	r7, pc, r1, ror #4
  14:	2e372e34 	mrccs	14, 1, r2, cr7, cr4, {1}
  18:	75322d34 	ldrvc	r2, [r2, #-3380]!	; 0xfffff2cc
  1c:	746e7562 	strbtvc	r7, [lr], #-1378	; 0xfffffa9e
  20:	20293175 	eorcs	r3, r9, r5, ror r1
  24:	2e372e34 	mrccs	14, 1, r2, cr7, cr4, {1}
  28:	Address 0x0000000000000028 is out of bounds.


Disassembly of section .debug_line:

00000000 <.debug_line>:
   0:	00000082 	andeq	r0, r0, r2, lsl #1
   4:	00240002 	eoreq	r0, r4, r2
   8:	01020000 	mrseq	r0, (UNDEF: 2)
   c:	000d0efb 	strdeq	r0, [sp], -fp
  10:	01010101 	tsteq	r1, r1, lsl #2
  14:	01000000 	mrseq	r0, (UNDEF: 0)
  18:	73010000 	movwvc	r0, #4096	; 0x1000
  1c:	74726174 	ldrbtvc	r6, [r2], #-372	; 0xfffffe8c
  20:	74730000 	ldrbtvc	r0, [r3], #-0
  24:	2e747261 	cdpcs	2, 7, cr7, cr4, cr1, {3}
  28:	00010053 	andeq	r0, r1, r3, asr r0
  2c:	05000000 	streq	r0, [r0, #-0]
  30:	00800002 	addeq	r0, r0, r2
  34:	2f2f1540 	svccs	0x002f1540
  38:	2f2f2f2f 	svccs	0x002f2f2f
  3c:	f20d032f 	vcgt.s8	d0, d13, d31
  40:	2f2f302f 	svccs	0x002f302f
  44:	342f302f 	strtcc	r3, [pc], #-47	; 4c <_start-0x40007fb4>
  48:	2f322f2f 	svccs	0x00322f2f
  4c:	2f2f2f33 	svccs	0x002f2f33
  50:	322f2f2f 	eorcc	r2, pc, #47, 30	; 0xbc
  54:	2f2f2f2f 	svccs	0x002f2f2f
  58:	2f2f2f30 	svccs	0x002f2f30
  5c:	2f2f2f30 	svccs	0x002f2f30
  60:	302f3134 	eorcc	r3, pc, r4, lsr r1	; <UNPREDICTABLE>
  64:	2f302f2f 	svccs	0x00302f2f
  68:	2f2f302f 	svccs	0x002f302f
  6c:	302f2f30 	eorcc	r2, pc, r0, lsr pc	; <UNPREDICTABLE>
  70:	0a03302f 	beq	cc134 <_start-0x3ff3becc>
  74:	2f302f66 	svccs	0x00302f66
  78:	4a7fa003 	bmi	1fe808c <_start-0x3e01ff74>
  7c:	342e2503 	strtcc	r2, [lr], #-1283	; 0xfffffafd
  80:	00020233 	andeq	r0, r2, r3, lsr r2
  84:	02530101 	subseq	r0, r3, #1073741824	; 0x40000000
  88:	00020000 	andeq	r0, r2, r0
  8c:	00000052 	andeq	r0, r0, r2, asr r0
  90:	0efb0102 	cdpeq	1, 15, cr0, cr11, cr2, {0}
  94:	0101000d 	tsteq	r1, sp
  98:	00000101 	andeq	r0, r0, r1, lsl #2
  9c:	00000100 	andeq	r0, r0, r0, lsl #2
  a0:	632f2e01 	teqvs	pc, #1, 28
  a4:	6f6d6d6f 	svcvs	0x006d6d6f
  a8:	6e692f6e 	cdpvs	15, 6, cr2, cr9, cr14, {3}
  ac:	64756c63 	ldrbtvs	r6, [r5], #-3171	; 0xfffff39d
  b0:	6f630065 	svcvs	0x00630065
  b4:	6e6f6d6d 	cdpvs	13, 6, cr6, cr15, cr13, {3}
  b8:	6372732f 	cmnvs	r2, #-1140850688	; 0xbc000000
  bc:	74630000 	strbtvc	r0, [r3], #-0
  c0:	2e657079 	mcrcs	0, 3, r7, cr5, cr9, {3}
  c4:	00010068 	andeq	r0, r1, r8, rrx
  c8:	69727000 	ldmdbvs	r2!, {ip, sp, lr}^
  cc:	2e66746e 	cdpcs	4, 6, cr7, cr6, cr14, {3}
  d0:	00020063 	andeq	r0, r2, r3, rrx
  d4:	64747300 	ldrbtvs	r7, [r4], #-768	; 0xfffffd00
  d8:	2e677261 	cdpcs	2, 6, cr7, cr7, cr1, {3}
  dc:	00010068 	andeq	r0, r1, r8, rrx
  e0:	05000000 	streq	r0, [r0, #-0]
  e4:	00814002 	addeq	r4, r1, r2
  e8:	00c40340 	sbceq	r0, r4, r0, asr #6
  ec:	67bb9f01 	ldrvs	r9, [fp, r1, lsl #30]!
  f0:	0302042f 	movweq	r0, #9263	; 0x242f
  f4:	bb9e7fbf 	bllt	fe79fff8 <_ctype+0xbe795c8c>
  f8:	0067834c 	rsbeq	r8, r7, ip, asr #6
  fc:	06010402 	streq	r0, [r1], -r2, lsl #8
 100:	4bf30682 	blmi	ffcc1b10 <_ctype+0xbfcb77a4>
 104:	674d6768 	strbvs	r6, [sp, -r8, ror #14]
 108:	7fbb304c 	svcvc	0x00bb304c
 10c:	01040200 	mrseq	r0, R12_usr
 110:	02002e06 	andeq	r2, r0, #6, 28	; 0x60
 114:	00d60204 	sbcseq	r0, r6, r4, lsl #4
 118:	d6010402 	strle	r0, [r1], -r2, lsl #8
 11c:	02040200 	andeq	r0, r4, #0, 4
 120:	00d70682 	sbcseq	r0, r7, r2, lsl #13
 124:	06030402 	streq	r0, [r3], -r2, lsl #8
 128:	040200d6 	streq	r0, [r2], #-214	; 0xffffff2a
 12c:	a3650605 	cmnge	r5, #5242880	; 0x500000
 130:	852f6767 	strhi	r6, [pc, #-1895]!	; fffff9d1 <_ctype+0xbfff5665>
 134:	210883bb 			; <UNDEFINED> instruction: 0x210883bb
 138:	6624039f 			; <UNDEFINED> instruction: 0x6624039f
 13c:	002f4c83 	eoreq	r4, pc, r3, lsl #25
 140:	08010402 	stmdaeq	r1, {r1, sl}
 144:	040200c7 	streq	r0, [r2], #-199	; 0xffffff39
 148:	069e0602 	ldreq	r0, [lr], r2, lsl #12
 14c:	20032fa0 	andcs	r2, r3, r0, lsr #31
 150:	834dd882 	movthi	sp, #55426	; 0xd882
 154:	0067834b 	rsbeq	r8, r7, fp, asr #6
 158:	06010402 	streq	r0, [r1], -r2, lsl #8
 15c:	4b670666 	blmi	19c1afc <_start-0x3e646504>
 160:	01040200 	mrseq	r0, R12_usr
 164:	02008206 	andeq	r8, r0, #1610612736	; 0x60000000
 168:	004a0204 	subeq	r0, sl, r4, lsl #4
 16c:	2e030402 	cdpcs	4, 0, cr0, cr3, cr2, {0}
 170:	03040200 	movweq	r0, #16896	; 0x4200
 174:	02002f06 	andeq	r2, r0, #6, 30
 178:	834b0304 	movthi	r0, #45828	; 0xb304
 17c:	83674b67 	cmnhi	r7, #105472	; 0x19c00
 180:	83834b83 	orrhi	r4, r3, #134144	; 0x20c00
 184:	6783694b 	strvs	r6, [r3, fp, asr #18]
 188:	4b686783 	blmi	1a19f9c <_start-0x3e5ee064>
 18c:	835a0867 	cmphi	sl, #6750208	; 0x670000
 190:	01040200 	mrseq	r0, R12_usr
 194:	69103202 	ldmdbvs	r0, {r1, r9, ip, sp}
 198:	2f83834b 	svccs	0x0083834b
 19c:	01040200 	mrseq	r0, R12_usr
 1a0:	673e08b9 			; <UNDEFINED> instruction: 0x673e08b9
 1a4:	d76783bb 			; <UNDEFINED> instruction: 0xd76783bb
 1a8:	83d9bb67 	bicshi	fp, r9, #105472	; 0x19c00
 1ac:	0402002f 	streq	r0, [r2], #-47	; 0xffffffd1
 1b0:	3e08b901 	cdpcc	9, 0, cr11, cr8, cr1, {0}
 1b4:	0200d52f 	andeq	sp, r0, #197132288	; 0xbc00000
 1b8:	2e060104 	adfcss	f0, f6, f4
 1bc:	2f5a0806 	svccs	0x005a0806
 1c0:	01040200 	mrseq	r0, R12_usr
 1c4:	3e085708 	cdpcc	7, 0, cr5, cr8, cr8, {0}
 1c8:	0402002f 	streq	r0, [r2], #-47	; 0xffffffd1
 1cc:	3e08b901 	cdpcc	9, 0, cr11, cr8, cr1, {0}
 1d0:	00a1a32f 	adceq	sl, r1, pc, lsr #6
 1d4:	06010402 	streq	r0, [r1], -r2, lsl #8
 1d8:	04020066 	streq	r0, [r2], #-102	; 0xffffff9a
 1dc:	06900802 	ldreq	r0, [r0], r2, lsl #16
 1e0:	03846784 	orreq	r6, r4, #132, 14	; 0x2100000
 1e4:	8367ba12 	cmnhi	r7, #73728	; 0x12000
 1e8:	674c32d7 			; <UNDEFINED> instruction: 0x674c32d7
 1ec:	83132e02 	tsthi	r3, #2, 28
 1f0:	86838383 	strhi	r8, [r3], r3, lsl #7
 1f4:	0402004b 	streq	r0, [r2], #-75	; 0xffffffb5
 1f8:	06820601 	streq	r0, [r2], r1, lsl #12
 1fc:	68839f83 	stmvs	r3, {r0, r1, r7, r8, r9, sl, fp, ip, pc}
 200:	6b67679f 	blvs	19da084 <_start-0x3e62df7c>
 204:	0067834b 	rsbeq	r8, r7, fp, asr #6
 208:	06010402 	streq	r0, [r1], -r2, lsl #8
 20c:	9f830682 	svcls	0x00830682
 210:	67a06883 	strvs	r6, [r0, r3, lsl #17]!
 214:	02004b4e 	andeq	r4, r0, #79872	; 0x13800
 218:	82060104 	andhi	r0, r6, #4, 2
 21c:	01040200 	mrseq	r0, R12_usr
 220:	0200f306 	andeq	pc, r0, #402653184	; 0x18000000
 224:	4b490104 	blmi	124063c <_start-0x3edc79c4>
 228:	01040200 	mrseq	r0, R12_usr
 22c:	02008206 	andeq	r8, r0, #1610612736	; 0x60000000
 230:	83060104 	movwhi	r0, #24836	; 0x6104
 234:	01040200 	mrseq	r0, R12_usr
 238:	00674c49 	rsbeq	r4, r7, r9, asr #24
 23c:	06010402 	streq	r0, [r1], -r2, lsl #8
 240:	4b9f0666 	blmi	fe7c1be0 <_ctype+0xbe7b7874>
 244:	024c6a68 	subeq	r6, ip, #104, 20	; 0x68000
 248:	831401b4 	tsthi	r4, #180, 2	; 0x2d
 24c:	0402002f 	streq	r0, [r2], #-47	; 0xffffffd1
 250:	08bcb901 	ldmeq	ip!, {r0, r8, fp, ip, sp, pc}
 254:	02002f3d 	andeq	r2, r0, #61, 30	; 0xf4
 258:	bcb90104 	ldflts	f0, [r9], #16
 25c:	4c679f31 	stclmi	15, cr9, [r7], #-196	; 0xffffff3c
 260:	002f83bc 	strhteq	r8, [pc], -ip
 264:	b9010402 	stmdblt	r1, {r1, sl}
 268:	02005a08 	andeq	r5, r0, #8, 20	; 0x8000
 26c:	00670204 	rsbeq	r0, r7, r4, lsl #4
 270:	08020402 	stmdaeq	r2, {r1, sl}
 274:	0402003b 	streq	r0, [r2], #-59	; 0xffffffc5
 278:	06660601 	strbteq	r0, [r6], -r1, lsl #12
 27c:	02002f84 	andeq	r2, r0, #132, 30	; 0x210
 280:	08b90104 	ldmeq	r9!, {r2, r8}
 284:	4b67315a 	blmi	19cc7f4 <_start-0x3e63b80c>
 288:	3f088169 	svccc	0x00088169
 28c:	a39f6732 	orrsge	r6, pc, #13107200	; 0xc80000
 290:	31a09f2b 	lsrcc	r9, fp, #30
 294:	314b32bb 	strhcc	r3, [fp, #-43]	; 0xffffffd5
 298:	68324b68 	ldmdavs	r2!, {r3, r5, r6, r8, r9, fp, lr}
 29c:	d983bb31 	stmible	r3, {r0, r4, r5, r8, r9, fp, ip, sp, pc}
 2a0:	7803672d 	stmdavc	r3, {r0, r2, r3, r5, r8, r9, sl, sp, lr}
 2a4:	2e0f032e 	cdpcs	3, 0, cr0, cr15, cr14, {1}
 2a8:	0200bb67 	andeq	fp, r0, #105472	; 0x19c00
 2ac:	66060104 	strvs	r0, [r6], -r4, lsl #2
 2b0:	67bb6706 	ldrvs	r6, [fp, r6, lsl #14]!
 2b4:	83d767bb 	bicshi	r6, r7, #49020928	; 0x2ec0000
 2b8:	9fbc83d7 	svcls	0x00bc83d7
 2bc:	087ee203 	ldmdaeq	lr!, {r0, r1, r9, sp, lr, pc}^
 2c0:	04020074 	streq	r0, [r2], #-116	; 0xffffff8c
 2c4:	06660601 	strbteq	r0, [r6], -r1, lsl #12
 2c8:	8201a003 	andhi	sl, r1, #3
 2cc:	a2856767 	addge	r6, r5, #27000832	; 0x19c0000
 2d0:	a12fbc4b 	teqge	pc, fp, asr #24
 2d4:	67f44f86 	ldrbvs	r4, [r4, r6, lsl #31]!
 2d8:	01000802 	tsteq	r0, r2, lsl #16
 2dc:	00007901 	andeq	r7, r0, r1, lsl #18
 2e0:	4a000200 	bmi	ae8 <_start-0x40007518>
 2e4:	02000000 	andeq	r0, r0, #0
 2e8:	0d0efb01 	vstreq	d15, [lr, #-4]
 2ec:	01010100 	mrseq	r0, (UNDEF: 17)
 2f0:	00000001 	andeq	r0, r0, r1
 2f4:	01000001 	tsteq	r0, r1
 2f8:	6d6d6f63 	stclvs	15, cr6, [sp, #-396]!	; 0xfffffe74
 2fc:	732f6e6f 	teqvc	pc, #1776	; 0x6f0
 300:	2e006372 	mcrcs	3, 0, r6, cr0, cr2, {3}
 304:	6d6f632f 	stclvs	3, cr6, [pc, #-188]!	; 250 <_start-0x40007db0>
 308:	2f6e6f6d 	svccs	0x006e6f6d
 30c:	6c636e69 	stclvs	14, cr6, [r3], #-420	; 0xfffffe5c
 310:	00656475 	rsbeq	r6, r5, r5, ror r4
 314:	72617500 	rsbvc	r7, r1, #0, 10
 318:	00632e74 	rsbeq	r2, r3, r4, ror lr
 31c:	65000001 	strvs	r0, [r0, #-1]
 320:	6f6e7978 	svcvs	0x006e7978
 324:	34345f73 	ldrtcc	r5, [r4], #-3955	; 0xfffff08d
 328:	682e3231 	stmdavs	lr!, {r0, r4, r5, r9, ip, sp}
 32c:	00000200 	andeq	r0, r0, r0, lsl #4
 330:	02050000 	andeq	r0, r5, #0
 334:	40009318 	andmi	r9, r0, r8, lsl r3
 338:	67bc4d15 			; <UNDEFINED> instruction: 0x67bc4d15
 33c:	a1676768 	cmnge	r7, r8, ror #14
 340:	0402009f 	streq	r0, [r2], #-159	; 0xffffff61
 344:	062e0601 	strteq	r0, [lr], -r1, lsl #12
 348:	4b67679f 	blmi	19da1cc <_start-0x3e62de34>
 34c:	002f8368 	eoreq	r8, pc, r8, ror #6
 350:	d5010402 	strle	r0, [r1, #-1026]	; 0xfffffbfe
 354:	00040284 	andeq	r0, r4, r4, lsl #5
 358:	00630101 	rsbeq	r0, r3, r1, lsl #2
 35c:	00020000 	andeq	r0, r2, r0
 360:	00000029 	andeq	r0, r0, r9, lsr #32
 364:	0efb0102 	cdpeq	1, 15, cr0, cr11, cr2, {0}
 368:	0101000d 	tsteq	r1, sp
 36c:	00000101 	andeq	r0, r0, r1, lsl #2
 370:	00000100 	andeq	r0, r0, r0, lsl #2
 374:	6d6f6301 	stclvs	3, cr6, [pc, #-4]!	; 378 <_start-0x40007c88>
 378:	2f6e6f6d 	svccs	0x006e6f6d
 37c:	00637273 	rsbeq	r7, r3, r3, ror r2
 380:	62656400 	rsbvs	r6, r5, #0, 8
 384:	632e6775 	teqvs	lr, #30670848	; 0x1d40000
 388:	00000100 	andeq	r0, r0, r0, lsl #2
 38c:	02050000 	andeq	r0, r5, #0
 390:	4000941c 	andmi	r9, r0, ip, lsl r4
 394:	004b9f14 	subeq	r9, fp, r4, lsl pc
 398:	2f020402 	svccs	0x00020402
 39c:	02040200 	andeq	r0, r4, #0, 4
 3a0:	040200d5 	streq	r0, [r2], #-213	; 0xffffff2b
 3a4:	06660601 	strbteq	r0, [r6], -r1, lsl #12
 3a8:	83844b85 	orrhi	r4, r4, #136192	; 0x21400
 3ac:	9f674bbb 	svcls	0x00674bbb
 3b0:	00468367 	subeq	r8, r6, r7, ror #6
 3b4:	06010402 	streq	r0, [r1], -r2, lsl #8
 3b8:	4b6d0666 	blmi	1b41d58 <_start-0x3e4c62a8>
 3bc:	01000a02 	tsteq	r0, r2, lsl #20
 3c0:	00006c01 	andeq	r6, r0, r1, lsl #24
 3c4:	2c000200 	sfmcs	f0, 4, [r0], {-0}
 3c8:	02000000 	andeq	r0, r0, #0
 3cc:	0d0efb01 	vstreq	d15, [lr, #-4]
 3d0:	01010100 	mrseq	r0, (UNDEF: 17)
 3d4:	00000001 	andeq	r0, r0, r1
 3d8:	01000001 	tsteq	r0, r1
 3dc:	6d6d6f63 	stclvs	15, cr6, [sp, #-396]!	; 0xfffffe74
 3e0:	732f6e6f 	teqvc	pc, #1776	; 0x6f0
 3e4:	00006372 	andeq	r6, r0, r2, ror r3
 3e8:	6f6d755f 	svcvs	0x006d755f
 3ec:	33697364 	cmncc	r9, #100, 6	; 0x90000001
 3f0:	0100532e 	tsteq	r0, lr, lsr #6
 3f4:	00000000 	andeq	r0, r0, r0
 3f8:	95340205 	ldrls	r0, [r4, #-517]!	; 0xfffffdfb
 3fc:	12034000 	andne	r4, r3, #0
 400:	2f2f2f01 	svccs	0x002f2f01
 404:	2f2f342f 	svccs	0x002f342f
 408:	2f322f2f 	svccs	0x00322f2f
 40c:	332f2f2f 	teqcc	pc, #47, 30	; 0xbc
 410:	2f2f2f2f 	svccs	0x002f2f2f
 414:	2f2f2f2f 	svccs	0x002f2f2f
 418:	2f2f2f2f 	svccs	0x002f2f2f
 41c:	2f2f2f2f 	svccs	0x002f2f2f
 420:	2f2f2f35 	svccs	0x002f2f35
 424:	2f2f2f2f 	svccs	0x002f2f2f
 428:	2f30302f 	svccs	0x0030302f
 42c:	01000202 	tsteq	r0, r2, lsl #4
 430:	00006501 	andeq	r6, r0, r1, lsl #10
 434:	2c000200 	sfmcs	f0, 4, [r0], {-0}
 438:	02000000 	andeq	r0, r0, #0
 43c:	0d0efb01 	vstreq	d15, [lr, #-4]
 440:	01010100 	mrseq	r0, (UNDEF: 17)
 444:	00000001 	andeq	r0, r0, r1
 448:	01000001 	tsteq	r0, r1
 44c:	6d6d6f63 	stclvs	15, cr6, [sp, #-396]!	; 0xfffffe74
 450:	732f6e6f 	teqvc	pc, #1776	; 0x6f0
 454:	00006372 	andeq	r6, r0, r2, ror r3
 458:	6964755f 	stmdbvs	r4!, {r0, r1, r2, r3, r4, r6, r8, sl, ip, sp, lr}^
 45c:	33697376 	cmncc	r9, #-671088639	; 0xd8000001
 460:	0100532e 	tsteq	r0, lr, lsr #6
 464:	00000000 	andeq	r0, r0, r0
 468:	95e40205 	strbls	r0, [r4, #517]!	; 0x205
 46c:	11034000 	mrsne	r4, (UNDEF: 3)
 470:	2f2f2f01 	svccs	0x002f2f01
 474:	2f342f2f 	svccs	0x00342f2f
 478:	322f2f2f 	eorcc	r2, pc, #47, 30	; 0xbc
 47c:	2f2f2f2f 	svccs	0x002f2f2f
 480:	2f2f2f34 	svccs	0x002f2f34
 484:	2f2f2f2f 	svccs	0x002f2f2f
 488:	2f2f2f2f 	svccs	0x002f2f2f
 48c:	2f2f2f2f 	svccs	0x002f2f2f
 490:	30302f30 	eorscc	r2, r0, r0, lsr pc
 494:	0002022f 	andeq	r0, r2, pc, lsr #4
 498:	00fb0101 	rscseq	r0, fp, r1, lsl #2
 49c:	00020000 	andeq	r0, r2, r0
 4a0:	0000003e 	andeq	r0, r0, lr, lsr r0
 4a4:	0efb0102 	cdpeq	1, 15, cr0, cr11, cr2, {0}
 4a8:	0101000d 	tsteq	r1, sp
 4ac:	00000101 	andeq	r0, r0, r1, lsl #2
 4b0:	00000100 	andeq	r0, r0, r0, lsl #2
 4b4:	632f2e01 	teqvs	pc, #1, 28
 4b8:	6f6d6d6f 	svcvs	0x006d6d6f
 4bc:	6e692f6e 	cdpvs	15, 6, cr2, cr9, cr14, {3}
 4c0:	64756c63 	ldrbtvs	r6, [r5], #-3171	; 0xfffff39d
 4c4:	69000065 	stmdbvs	r0, {r0, r2, r5, r6}
 4c8:	632e6369 	teqvs	lr, #-1543503871	; 0xa4000001
 4cc:	00000000 	andeq	r0, r0, r0
 4d0:	6e797865 	cdpvs	8, 7, cr7, cr9, cr5, {3}
 4d4:	345f736f 	ldrbcc	r7, [pc], #-879	; 4dc <_start-0x40007b24>
 4d8:	2e323134 	mrccs	1, 1, r3, cr2, cr4, {1}
 4dc:	00010068 	andeq	r0, r1, r8, rrx
 4e0:	05000000 	streq	r0, [r0, #-0]
 4e4:	00967802 	addseq	r7, r6, r2, lsl #16
 4e8:	01090340 	tsteq	r9, r0, asr #6
 4ec:	00673183 	rsbeq	r3, r7, r3, lsl #3
 4f0:	06020402 	streq	r0, [r2], -r2, lsl #8
 4f4:	04020066 	streq	r0, [r2], #-102	; 0xffffff9a
 4f8:	81066601 	tsthi	r6, r1, lsl #12
 4fc:	01040200 	mrseq	r0, R12_usr
 500:	02006606 	andeq	r6, r0, #6291456	; 0x600000
 504:	63060104 	movwvs	r0, #24836	; 0x6104
 508:	0c034208 	sfmeq	f4, 4, [r3], {8}
 50c:	9f220882 	svcls	0x00220882
 510:	006783a0 	rsbeq	r8, r7, r0, lsr #7
 514:	06010402 	streq	r0, [r1], -r2, lsl #8
 518:	67a0062e 	strvs	r0, [r0, lr, lsr #12]!
 51c:	0402009f 	streq	r0, [r2], #-159	; 0xffffff61
 520:	062e0601 	strteq	r0, [lr], -r1, lsl #12
 524:	009f67a0 	addseq	r6, pc, r0, lsr #15
 528:	06010402 	streq	r0, [r1], -r2, lsl #8
 52c:	68a0062e 	stmiavs	r0!, {r1, r2, r3, r5, r9, sl}
 530:	0b034b9f 	bleq	d33b4 <_start-0x3ff34c4c>
 534:	9f4cd866 	svcls	0x004cd866
 538:	006783a0 	rsbeq	r8, r7, r0, lsr #7
 53c:	06010402 	streq	r0, [r1], -r2, lsl #8
 540:	67a0062e 	strvs	r0, [r0, lr, lsr #12]!
 544:	0402009f 	streq	r0, [r2], #-159	; 0xffffff61
 548:	062e0601 	strteq	r0, [lr], -r1, lsl #12
 54c:	679fa0a1 	ldrvs	sl, [pc, r1, lsr #1]
 550:	01040200 	mrseq	r0, R12_usr
 554:	a2062e06 	andge	r2, r6, #6, 28	; 0x60
 558:	0402009f 	streq	r0, [r2], #-159	; 0xffffff61
 55c:	062e0601 	strteq	r0, [lr], -r1, lsl #12
 560:	9f67699f 	svcls	0x0067699f
 564:	4b8a304c 	blmi	fe28c69c <_ctype+0xbe282330>
 568:	83838383 	orrhi	r8, r3, #201326594	; 0xc000002
 56c:	2e090383 	cdpcs	3, 0, cr0, cr9, cr3, {4}
 570:	2fbcbb6c 	svccs	0x00bcbb6c
 574:	04020030 	streq	r0, [r2], #-48	; 0xffffffd0
 578:	02004d01 	andeq	r4, r0, #1, 26	; 0x40
 57c:	009f0104 	addseq	r0, pc, r4, lsl #2
 580:	9f010402 	svcls	0x00010402
 584:	01040200 	mrseq	r0, R12_usr
 588:	02002208 	andeq	r2, r0, #8, 4	; 0x80000000
 58c:	00830104 	addeq	r0, r3, r4, lsl #2
 590:	4b010402 	blmi	415a0 <_start-0x3ffc6a60>
 594:	01000802 	tsteq	r0, r2, lsl #16
 598:	Address 0x0000000000000598 is out of bounds.


Disassembly of section .debug_info:

00000000 <.debug_info>:
   0:	0000006b 	andeq	r0, r0, fp, rrx
   4:	00000002 	andeq	r0, r0, r2
   8:	01040000 	mrseq	r0, (UNDEF: 4)
   c:	00000000 	andeq	r0, r0, r0
  10:	40008000 	andmi	r8, r0, r0
  14:	40008134 	andmi	r8, r0, r4, lsr r1
  18:	72617473 	rsbvc	r7, r1, #1929379840	; 0x73000000
  1c:	74732f74 	ldrbtvc	r2, [r3], #-3956	; 0xfffff08c
  20:	2e747261 	cdpcs	2, 7, cr7, cr4, cr1, {3}
  24:	682f0053 	stmdavs	pc!, {r0, r1, r4, r6}	; <UNPREDICTABLE>
  28:	2f656d6f 	svccs	0x00656d6f
  2c:	6e61696a 	cdpvs	9, 6, cr6, cr1, cr10, {3}
  30:	65442f67 	strbvs	r2, [r4, #-3943]	; 0xfffff099
  34:	6f746b73 	svcvs	0x00746b73
  38:	71682f70 	smcvc	33520	; 0x82f0
  3c:	412f6a79 	teqmi	pc, r9, ror sl	; <UNPREDICTABLE>
  40:	452f4d52 	strmi	r4, [pc, #-3410]!	; fffff2f6 <_ctype+0xbfff4f8a>
  44:	69727078 	ldmdbvs	r2!, {r3, r4, r5, r6, ip, sp, lr}^
  48:	49492f6d 	stmdbmi	r9, {r0, r2, r3, r5, r6, r8, r9, sl, fp, sp}^
  4c:	78655f43 	stmdavc	r5!, {r0, r1, r6, r8, r9, sl, fp, ip, lr}^
  50:	736f6e79 	cmnvc	pc, #1936	; 0x790
  54:	32313434 	eorscc	r3, r1, #52, 8	; 0x34000000
  58:	75706d5f 	ldrbvc	r6, [r0, #-3423]!	; 0xfffff2a1
  5c:	30353036 	eorscc	r3, r5, r6, lsr r0
  60:	554e4700 	strbpl	r4, [lr, #-1792]	; 0xfffff900
  64:	20534120 	subscs	r4, r3, r0, lsr #2
  68:	35322e32 	ldrcc	r2, [r2, #-3634]!	; 0xfffff1ce
  6c:	c1800100 	orrgt	r0, r0, r0, lsl #2
  70:	02000004 	andeq	r0, r0, #4
  74:	00001400 	andeq	r1, r0, r0, lsl #8
  78:	18010400 	stmdane	r1, {sl}
  7c:	01000001 	tsteq	r0, r1
  80:	000000c2 	andeq	r0, r0, r2, asr #1
  84:	0000003b 	andeq	r0, r0, fp, lsr r0
  88:	40008140 	andmi	r8, r0, r0, asr #2
  8c:	40009318 	andmi	r9, r0, r8, lsl r3
  90:	00000086 	andeq	r0, r0, r6, lsl #1
  94:	00007602 	andeq	r7, r0, r2, lsl #12
  98:	30280300 	eorcc	r0, r8, r0, lsl #6
  9c:	03000000 	movweq	r0, #0
  a0:	00000004 	andeq	r0, r0, r4
  a4:	007d0200 	rsbseq	r0, sp, r0, lsl #4
  a8:	66030000 	strvs	r0, [r3], -r0
  ac:	00000025 	andeq	r0, r0, r5, lsr #32
  b0:	00003104 	andeq	r3, r0, r4, lsl #2
  b4:	01440100 	mrseq	r0, (UNDEF: 84)
  b8:	0000006b 	andeq	r0, r0, fp, rrx
  bc:	40008140 	andmi	r8, r0, r0, asr #2
  c0:	40008190 	mulmi	r0, r0, r1
  c4:	00000000 	andeq	r0, r0, r0
  c8:	00006b01 	andeq	r6, r0, r1, lsl #22
  cc:	00630500 	rsbeq	r0, r3, r0, lsl #10
  d0:	006b4401 	rsbeq	r4, fp, r1, lsl #8
  d4:	91020000 	mrsls	r0, (UNDEF: 2)
  d8:	01060078 	tsteq	r6, r8, ror r0
  dc:	00008f08 	andeq	r8, r0, r8, lsl #30
  e0:	12010700 	andne	r0, r1, #0, 14
  e4:	02000000 	andeq	r0, r0, #0
  e8:	00d60107 	sbcseq	r0, r6, r7, lsl #2
  ec:	81900000 	orrshi	r0, r0, r0
  f0:	83344000 	teqhi	r4, #0
  f4:	002c4000 	eoreq	r4, ip, r0
  f8:	d6010000 	strle	r0, [r1], -r0
  fc:	05000000 	streq	r0, [r0, #-0]
 100:	02007063 	andeq	r7, r0, #99	; 0x63
 104:	0000dd07 	andeq	sp, r0, r7, lsl #26
 108:	6c910200 	lfmvs	f0, 4, [r1], {0}
 10c:	0000fc08 	andeq	pc, r0, r8, lsl #24
 110:	ef070200 	svc	0x00070200
 114:	02000000 	andeq	r0, r0, #0
 118:	9d086891 	stcls	8, cr6, [r8, #-580]	; 0xfffffdbc
 11c:	02000000 	andeq	r0, r0, #0
 120:	0000fb07 	andeq	pc, r0, r7, lsl #22
 124:	64910200 	ldrvs	r0, [r1], #512	; 0x200
 128:	0000e609 	andeq	lr, r0, r9, lsl #12
 12c:	d6090200 	strle	r0, [r9], -r0, lsl #4
 130:	02000000 	andeq	r0, r0, #0
 134:	5c097491 	cfstrspl	mvf7, [r9], {145}	; 0x91
 138:	02000002 	andeq	r0, r0, #2
 13c:	0000d609 	andeq	sp, r0, r9, lsl #12
 140:	70910200 	addsvc	r0, r1, r0, lsl #4
 144:	07040600 	streq	r0, [r4, -r0, lsl #12]
 148:	000000a2 	andeq	r0, r0, r2, lsr #1
 14c:	00e3040a 	rsceq	r0, r3, sl, lsl #8
 150:	e80b0000 	stmda	fp, {}	; <UNPREDICTABLE>
 154:	06000000 	streq	r0, [r0], -r0
 158:	00980801 	addseq	r0, r8, r1, lsl #16
 15c:	040a0000 	streq	r0, [sl], #-0
 160:	000000f5 	strdeq	r0, [r0], -r5
 164:	00e8040a 	rsceq	r0, r8, sl, lsl #8
 168:	04060000 	streq	r0, [r6], #-0
 16c:	0000a707 	andeq	sl, r0, r7, lsl #14
 170:	b4010700 	strlt	r0, [r1], #-1792	; 0xfffff900
 174:	02000000 	andeq	r0, r0, #0
 178:	014a0122 	cmpeq	sl, r2, lsr #2
 17c:	83340000 	teqhi	r4, #0
 180:	83a04000 	movhi	r4, #0
 184:	00584000 	subseq	r4, r8, r0
 188:	4a010000 	bmi	40190 <_start-0x3ffc7e70>
 18c:	05000001 	streq	r0, [r0, #-1]
 190:	02007063 	andeq	r7, r0, #99	; 0x63
 194:	0000dd22 	andeq	sp, r0, r2, lsr #26
 198:	74910200 	ldrvc	r0, [r1], #512	; 0x200
 19c:	0000fc08 	andeq	pc, r0, r8, lsl #24
 1a0:	ef220200 	svc	0x00220200
 1a4:	02000000 	andeq	r0, r0, #0
 1a8:	9d087091 	stcls	0, cr7, [r8, #-580]	; 0xfffffdbc
 1ac:	02000000 	andeq	r0, r0, #0
 1b0:	0000fb22 	andeq	pc, r0, r2, lsr #22
 1b4:	6c910200 	lfmvs	f0, 4, [r1], {0}
 1b8:	05040600 	streq	r0, [r4, #-1536]	; 0xfffffa00
 1bc:	00000148 	andeq	r0, r0, r8, asr #2
 1c0:	00002704 	andeq	r2, r0, r4, lsl #14
 1c4:	014a0200 	mrseq	r0, (UNDEF: 106)
 1c8:	00000187 	andeq	r0, r0, r7, lsl #3
 1cc:	400083a0 	andmi	r8, r0, r0, lsr #7
 1d0:	40008434 	andmi	r8, r0, r4, lsr r4
 1d4:	00000084 	andeq	r0, r0, r4, lsl #1
 1d8:	00018701 	andeq	r8, r1, r1, lsl #14
 1dc:	00730500 	rsbseq	r0, r3, r0, lsl #10
 1e0:	018e4a02 	orreq	r4, lr, r2, lsl #20
 1e4:	91020000 	mrsls	r0, (UNDEF: 2)
 1e8:	00690c74 	rsbeq	r0, r9, r4, ror ip
 1ec:	01874c02 	orreq	r4, r7, r2, lsl #24
 1f0:	91020000 	mrsls	r0, (UNDEF: 2)
 1f4:	040d0078 	streq	r0, [sp], #-120	; 0xffffff88
 1f8:	746e6905 	strbtvc	r6, [lr], #-2309	; 0xfffff6fb
 1fc:	dd040a00 	vstrle	s0, [r4, #-0]
 200:	0e000000 	cdpeq	0, 0, cr0, cr0, cr0, {0}
 204:	00000135 	andeq	r0, r0, r5, lsr r1
 208:	f5016f02 			; <UNDEFINED> instruction: 0xf5016f02
 20c:	34000000 	strcc	r0, [r0], #-0
 210:	c4400084 	strbgt	r0, [r0], #-132	; 0xffffff7c
 214:	b0400088 	sublt	r0, r0, r8, lsl #1
 218:	01000000 	mrseq	r0, (UNDEF: 0)
 21c:	00000265 	andeq	r0, r0, r5, ror #4
 220:	72747305 	rsbsvc	r7, r4, #335544320	; 0x14000000
 224:	f56f0200 			; <UNDEFINED> instruction: 0xf56f0200
 228:	03000000 	movweq	r0, #0
 22c:	057f9c91 	ldrbeq	r9, [pc, #-3217]!	; fffff5a3 <_ctype+0xbfff5237>
 230:	006d756e 	rsbeq	r7, sp, lr, ror #10
 234:	014a6f02 	cmpeq	sl, r2, lsl #30
 238:	91030000 	mrsls	r0, (UNDEF: 3)
 23c:	9d087f98 	stcls	15, cr7, [r8, #-608]	; 0xfffffda0
 240:	02000000 	andeq	r0, r0, #0
 244:	0000fb6f 	andeq	pc, r0, pc, ror #22
 248:	94910300 	ldrls	r0, [r1], #768	; 0x300
 24c:	015c087f 	cmpeq	ip, pc, ror r8
 250:	6f020000 	svcvs	0x00020000
 254:	00000187 	andeq	r0, r0, r7, lsl #3
 258:	7f909103 	svcvc	0x00909103
 25c:	00008508 	andeq	r8, r0, r8, lsl #10
 260:	876f0200 	strbhi	r0, [pc, -r0, lsl #4]!
 264:	02000001 	andeq	r0, r0, #1
 268:	0c080091 	stceq	0, cr0, [r8], {145}	; 0x91
 26c:	02000001 	andeq	r0, r0, #1
 270:	0001876f 	andeq	r8, r1, pc, ror #14
 274:	04910200 	ldreq	r0, [r1], #512	; 0x200
 278:	0200630c 	andeq	r6, r0, #12, 6	; 0x30000000
 27c:	0000e872 	andeq	lr, r0, r2, ror r8
 280:	6b910200 	blvs	fe440a88 <_ctype+0xbe43671c>
 284:	00015109 	andeq	r5, r1, r9, lsl #2
 288:	e8720200 	ldmda	r2!, {r9}^
 28c:	02000000 	andeq	r0, r0, #0
 290:	740c7791 	strvc	r7, [ip], #-1937	; 0xfffff86f
 294:	0200706d 	andeq	r7, r0, #109	; 0x6d
 298:	00026572 	andeq	r6, r2, r2, ror r5
 29c:	a0910300 	addsge	r0, r1, r0, lsl #6
 2a0:	0111097f 	tsteq	r1, pc, ror r9
 2a4:	73020000 	movwvc	r0, #8192	; 0x2000
 2a8:	000000dd 	ldrdeq	r0, [r0], -sp
 2ac:	0c709102 	ldfeqp	f1, [r0], #-8
 2b0:	74020069 	strvc	r0, [r2], #-105	; 0xffffff97
 2b4:	00000187 	andeq	r0, r0, r7, lsl #3
 2b8:	0f6c9102 	svceq	0x006c9102
 2bc:	400085f4 	strdmi	r8, [r0], -r4
 2c0:	40008628 	andmi	r8, r0, r8, lsr #12
 2c4:	00015609 	andeq	r5, r1, r9, lsl #12
 2c8:	87960200 	ldrhi	r0, [r6, r0, lsl #4]
 2cc:	02000001 	andeq	r0, r0, #1
 2d0:	00006491 	muleq	r0, r1, r4
 2d4:	0000e810 	andeq	lr, r0, r0, lsl r8
 2d8:	00027500 	andeq	r7, r2, r0, lsl #10
 2dc:	02751100 	rsbseq	r1, r5, #0, 2
 2e0:	00410000 	subeq	r0, r1, r0
 2e4:	01070406 	tsteq	r7, r6, lsl #8
 2e8:	12000001 	andne	r0, r0, #1
 2ec:	0000f401 	andeq	pc, r0, r1, lsl #8
 2f0:	01b40200 			; <UNDEFINED> instruction: 0x01b40200
 2f4:	000000fb 	strdeq	r0, [r0], -fp
 2f8:	400088c4 	andmi	r8, r0, r4, asr #17
 2fc:	40008944 	andmi	r8, r0, r4, asr #18
 300:	000000dc 	ldrdeq	r0, [r0], -ip
 304:	0002c201 	andeq	ip, r2, r1, lsl #4
 308:	00730500 	rsbseq	r0, r3, r0, lsl #10
 30c:	00ddb402 	sbcseq	fp, sp, r2, lsl #8
 310:	91020000 	mrsls	r0, (UNDEF: 2)
 314:	00210874 	eoreq	r0, r1, r4, ror r8
 318:	b4020000 	strlt	r0, [r2], #-0
 31c:	000000fb 	strdeq	r0, [r0], -fp
 320:	0c709102 	ldfeqp	f1, [r0], #-8
 324:	02006373 	andeq	r6, r0, #-872415231	; 0xcc000001
 328:	0000ddb6 			; <UNDEFINED> instruction: 0x0000ddb6
 32c:	78910200 	ldmvc	r1, {r9}
 330:	61010700 	tstvs	r1, r0, lsl #14
 334:	02000001 	andeq	r0, r0, #1
 338:	018701bc 			; <UNDEFINED> instruction: 0x018701bc
 33c:	89440000 	stmdbhi	r4, {}^	; <UNPREDICTABLE>
 340:	92784000 	rsbsls	r4, r8, #0
 344:	01084000 	mrseq	r4, (UNDEF: 8)
 348:	d3010000 	movwle	r0, #4096	; 0x1000
 34c:	05000003 	streq	r0, [r0, #-3]
 350:	00667562 	rsbeq	r7, r6, r2, ror #10
 354:	00f5bc02 	rscseq	fp, r5, r2, lsl #24
 358:	91020000 	mrsls	r0, (UNDEF: 2)
 35c:	6d660544 	cfstr64vs	mvdx0, [r6, #-272]!	; 0xfffffef0
 360:	bc020074 	stclt	0, cr0, [r2], {116}	; 0x74
 364:	000000dd 	ldrdeq	r0, [r0], -sp
 368:	08409102 	stmdaeq	r0, {r1, r8, ip, pc}^
 36c:	00000130 	andeq	r0, r0, r0, lsr r1
 370:	0036bc02 	eorseq	fp, r6, r2, lsl #24
 374:	91030000 	mrsls	r0, (UNDEF: 3)
 378:	6c0c7fbc 	stcvs	15, cr7, [ip], {188}	; 0xbc
 37c:	02006e65 	andeq	r6, r0, #1616	; 0x650
 380:	000187be 			; <UNDEFINED> instruction: 0x000187be
 384:	50910200 	addspl	r0, r1, r0, lsl #4
 388:	6d756e0c 	ldclvs	14, cr6, [r5, #-48]!	; 0xffffffd0
 38c:	d6c20200 	strble	r0, [r2], r0, lsl #4
 390:	02000000 	andeq	r0, r0, #0
 394:	690c7491 	stmdbvs	ip, {r0, r4, r7, sl, ip, sp, lr}
 398:	87c40200 	strbhi	r0, [r4, r0, lsl #4]
 39c:	02000001 	andeq	r0, r0, #1
 3a0:	9d097091 	stcls	0, cr7, [r9, #-580]	; 0xfffffdbc
 3a4:	02000000 	andeq	r0, r0, #0
 3a8:	000187c4 	andeq	r8, r1, r4, asr #15
 3ac:	6c910200 	lfmvs	f0, 4, [r1], {0}
 3b0:	7274730c 	rsbsvc	r7, r4, #12, 6	; 0x30000000
 3b4:	f5c50200 			; <UNDEFINED> instruction: 0xf5c50200
 3b8:	02000000 	andeq	r0, r0, #0
 3bc:	730c6891 	movwvc	r6, #51345	; 0xc891
 3c0:	ddc60200 	sfmle	f0, 2, [r6]
 3c4:	02000000 	andeq	r0, r0, #0
 3c8:	d6096491 			; <UNDEFINED> instruction: 0xd6096491
 3cc:	02000000 	andeq	r0, r0, #0
 3d0:	000187c8 	andeq	r8, r1, r8, asr #15
 3d4:	60910200 	addsvs	r0, r1, r0, lsl #4
 3d8:	00012409 	andeq	r2, r1, r9, lsl #8
 3dc:	87ca0200 	strbhi	r0, [sl, r0, lsl #4]
 3e0:	02000001 	andeq	r0, r0, #1
 3e4:	85095c91 	strhi	r5, [r9, #-3217]	; 0xfffff36f
 3e8:	02000000 	andeq	r0, r0, #0
 3ec:	000187cb 	andeq	r8, r1, fp, asr #15
 3f0:	58910200 	ldmpl	r1, {r9}
 3f4:	0000dc09 	andeq	sp, r0, r9, lsl #24
 3f8:	87cd0200 	strbhi	r0, [sp, r0, lsl #4]
 3fc:	02000001 	andeq	r0, r0, #1
 400:	ed135491 	cfldrs	mvf5, [r3, #-580]	; 0xfffffdbc
 404:	02000000 	andeq	r0, r0, #0
 408:	0089a0d7 	ldrdeq	sl, [r9], r7
 40c:	8ff81440 	svchi	0x00f81440
 410:	90204000 	eorls	r4, r0, r0
 414:	03ba4000 			; <UNDEFINED> instruction: 0x03ba4000
 418:	69150000 	ldmdbvs	r5, {}	; <UNPREDICTABLE>
 41c:	35020070 	strcc	r0, [r2, #-112]	; 0xffffff90
 420:	0003d301 	andeq	sp, r3, r1, lsl #6
 424:	4c910200 	lfmmi	f0, 4, [r1], {0}
 428:	90240f00 	eorls	r0, r4, r0, lsl #30
 42c:	904c4000 	subls	r4, ip, r0
 430:	69154000 	ldmdbvs	r5, {lr}
 434:	38020070 	stmdacc	r2, {r4, r5, r6}
 438:	0003d901 	andeq	sp, r3, r1, lsl #18
 43c:	48910200 	ldmmi	r1, {r9}
 440:	040a0000 	streq	r0, [sl], #-0
 444:	0000014a 	andeq	r0, r0, sl, asr #2
 448:	0187040a 	orreq	r0, r7, sl, lsl #8
 44c:	01160000 	tsteq	r6, r0
 450:	00000162 	andeq	r0, r0, r2, ror #2
 454:	01017302 	tsteq	r1, r2, lsl #6
 458:	00000187 	andeq	r0, r0, r7, lsl #3
 45c:	40009278 	andmi	r9, r0, r8, ror r2
 460:	400092c4 	andmi	r9, r0, r4, asr #5
 464:	00000134 	andeq	r0, r0, r4, lsr r1
 468:	00043a01 	andeq	r3, r4, r1, lsl #20
 46c:	75621700 	strbvc	r1, [r2, #-1792]!	; 0xfffff900
 470:	73020066 	movwvc	r0, #8294	; 0x2066
 474:	0000f501 	andeq	pc, r0, r1, lsl #10
 478:	60910200 	addsvs	r0, r1, r0, lsl #4
 47c:	746d6617 	strbtvc	r6, [sp], #-1559	; 0xfffff9e9
 480:	01730200 	cmneq	r3, r0, lsl #4
 484:	000000dd 	ldrdeq	r0, [r0], -sp
 488:	18749102 	ldmdane	r4!, {r1, r8, ip, pc}^
 48c:	00013019 	andeq	r3, r1, r9, lsl r0
 490:	01750200 	cmneq	r5, r0, lsl #4
 494:	00000036 	andeq	r0, r0, r6, lsr r0
 498:	15649102 	strbne	r9, [r4, #-258]!	; 0xfffffefe
 49c:	76020069 	strvc	r0, [r2], -r9, rrx
 4a0:	00018701 	andeq	r8, r1, r1, lsl #14
 4a4:	68910200 	ldmvs	r1, {r9}
 4a8:	63011a00 	movwvs	r1, #6656	; 0x1a00
 4ac:	02000001 	andeq	r0, r0, #1
 4b0:	c401017e 	strgt	r0, [r1], #-382	; 0xfffffe82
 4b4:	18400092 	stmdane	r0, {r1, r4, r7}^
 4b8:	6c400093 	mcrrvs	0, 9, r0, r0, cr3
 4bc:	01000001 	tsteq	r0, r1
 4c0:	00000492 	muleq	r0, r2, r4
 4c4:	746d6617 	strbtvc	r6, [sp], #-1559	; 0xfffff9e9
 4c8:	017e0200 	cmneq	lr, r0, lsl #4
 4cc:	000000dd 	ldrdeq	r0, [r0], -sp
 4d0:	18709102 	ldmdane	r0!, {r1, r8, ip, pc}^
 4d4:	00013019 	andeq	r3, r1, r9, lsl r0
 4d8:	01800200 	orreq	r0, r0, r0, lsl #4
 4dc:	00000036 	andeq	r0, r0, r6, lsr r0
 4e0:	15609102 	strbne	r9, [r0, #-258]!	; 0xfffffefe
 4e4:	81020069 	tsthi	r2, r9, rrx
 4e8:	0000fb01 	andeq	pc, r0, r1, lsl #22
 4ec:	64910200 	ldrvs	r0, [r1], #512	; 0x200
 4f0:	00013c19 	andeq	r3, r1, r9, lsl ip
 4f4:	01820200 	orreq	r0, r2, r0, lsl #4
 4f8:	00000492 	muleq	r0, r2, r4
 4fc:	7efc9103 	nrmvce	f1, f3
 500:	00e81000 	rsceq	r1, r8, r0
 504:	04a20000 	strteq	r0, [r2], #0
 508:	75110000 	ldrvc	r0, [r1, #-0]
 50c:	63000002 	movwvs	r0, #2
 510:	006b1000 	rsbeq	r1, fp, r0
 514:	04b20000 	ldrteq	r0, [r2], #0
 518:	75110000 	ldrvc	r0, [r1, #-0]
 51c:	ff000002 			; <UNDEFINED> instruction: 0xff000002
 520:	010a1b00 	tsteq	sl, r0, lsl #22
 524:	11010000 	mrsne	r0, (UNDEF: 1)
 528:	000004a2 	andeq	r0, r0, r2, lsr #9
 52c:	6c030501 	cfstr32vs	mvfx0, [r3], {1}
 530:	004000a3 	subeq	r0, r0, r3, lsr #1
 534:	00000210 	andeq	r0, r0, r0, lsl r2
 538:	01b80002 			; <UNDEFINED> instruction: 0x01b80002
 53c:	01040000 	mrseq	r0, (UNDEF: 4)
 540:	00000118 	andeq	r0, r0, r8, lsl r1
 544:	0001f601 	andeq	pc, r1, r1, lsl #12
 548:	00003b00 	andeq	r3, r0, r0, lsl #22
 54c:	00931800 	addseq	r1, r3, r0, lsl #16
 550:	00941c40 	addseq	r1, r4, r0, asr #24
 554:	0002dd40 	andeq	sp, r2, r0, asr #26
 558:	07040200 	streq	r0, [r4, -r0, lsl #4]
 55c:	000000a7 	andeq	r0, r0, r7, lsr #1
 560:	89021803 	stmdbhi	r2, {r0, r1, fp, ip}
 564:	00009001 	andeq	r9, r0, r1
 568:	4f430400 	svcmi	0x00430400
 56c:	8a02004e 	bhi	806ac <_start-0x3ff87954>
 570:	00002501 	andeq	r2, r0, r1, lsl #10
 574:	00230200 	eoreq	r0, r3, r0, lsl #4
 578:	54414404 	strbpl	r4, [r1], #-1028	; 0xfffffbfc
 57c:	018b0200 	orreq	r0, fp, r0, lsl #4
 580:	00000025 	andeq	r0, r0, r5, lsr #32
 584:	04042302 	streq	r2, [r4], #-770	; 0xfffffcfe
 588:	00445550 	subeq	r5, r4, r0, asr r5
 58c:	25018c02 	strcs	r8, [r1, #-3074]	; 0xfffff3fe
 590:	02000000 	andeq	r0, r0, #0
 594:	44040823 	strmi	r0, [r4], #-2083	; 0xfffff7dd
 598:	02005652 	andeq	r5, r0, #85983232	; 0x5200000
 59c:	0025018d 	eoreq	r0, r5, sp, lsl #3
 5a0:	23020000 	movwcs	r0, #8192	; 0x2000
 5a4:	01b9050c 			; <UNDEFINED> instruction: 0x01b9050c
 5a8:	8e020000 	cdphi	0, 0, cr0, cr2, cr0, {0}
 5ac:	00002501 	andeq	r2, r0, r1, lsl #10
 5b0:	10230200 	eorne	r0, r3, r0, lsl #4
 5b4:	0001ef05 	andeq	lr, r1, r5, lsl #30
 5b8:	018f0200 	orreq	r0, pc, r0, lsl #4
 5bc:	00000025 	andeq	r0, r0, r5, lsr #32
 5c0:	00142302 	andseq	r2, r4, r2, lsl #6
 5c4:	0001dc06 	andeq	sp, r1, r6, lsl #24
 5c8:	01900200 	orrseq	r0, r0, r0, lsl #4
 5cc:	0000002c 	andeq	r0, r0, ip, lsr #32
 5d0:	c9023c03 	stmdbgt	r2, {r0, r1, sl, fp, ip, sp}
 5d4:	00018703 	andeq	r8, r1, r3, lsl #14
 5d8:	01d50500 	bicseq	r0, r5, r0, lsl #10
 5dc:	ca020000 	bgt	805e4 <_start-0x3ff87a1c>
 5e0:	00002503 	andeq	r2, r0, r3, lsl #10
 5e4:	00230200 	eoreq	r0, r3, r0, lsl #4
 5e8:	0001c005 	andeq	ip, r1, r5
 5ec:	03cb0200 	biceq	r0, fp, #0, 4
 5f0:	00000025 	andeq	r0, r0, r5, lsr #32
 5f4:	05042302 	streq	r2, [r4, #-770]	; 0xfffffcfe
 5f8:	000001ac 	andeq	r0, r0, ip, lsr #3
 5fc:	2503cc02 	strcs	ip, [r3, #-3074]	; 0xfffff3fe
 600:	02000000 	andeq	r0, r0, #0
 604:	0d050823 	stceq	8, cr0, [r5, #-140]	; 0xffffff74
 608:	02000002 	andeq	r0, r0, #2
 60c:	002503cd 	eoreq	r0, r5, sp, asr #7
 610:	23020000 	movwcs	r0, #8192	; 0x2000
 614:	0199050c 	orrseq	r0, r9, ip, lsl #10
 618:	ce020000 	cdpgt	0, 0, cr0, cr2, cr0, {0}
 61c:	00002503 	andeq	r2, r0, r3, lsl #10
 620:	10230200 	eorne	r0, r3, r0, lsl #4
 624:	0001e605 	andeq	lr, r1, r5, lsl #12
 628:	03cf0200 	biceq	r0, pc, #0, 4
 62c:	00000025 	andeq	r0, r0, r5, lsr #32
 630:	05142302 	ldreq	r2, [r4, #-770]	; 0xfffffcfe
 634:	00000191 	muleq	r0, r1, r1
 638:	2503d002 	strcs	sp, [r3, #-2]
 63c:	02000000 	andeq	r0, r0, #0
 640:	c6051823 	strgt	r1, [r5], -r3, lsr #16
 644:	02000001 	andeq	r0, r0, #1
 648:	002503d1 	ldrdeq	r0, [r5], -r1	; <UNPREDICTABLE>
 64c:	23020000 	movwcs	r0, #8192	; 0x2000
 650:	01b3051c 			; <UNDEFINED> instruction: 0x01b3051c
 654:	d2020000 	andle	r0, r2, #0
 658:	00002503 	andeq	r2, r0, r3, lsl #10
 65c:	20230200 	eorcs	r0, r3, r0, lsl #4
 660:	00021405 	andeq	r1, r2, r5, lsl #8
 664:	03d30200 	bicseq	r0, r3, #0, 4
 668:	00000025 	andeq	r0, r0, r5, lsr #32
 66c:	05242302 	streq	r2, [r4, #-770]!	; 0xfffffcfe
 670:	00000184 	andeq	r0, r0, r4, lsl #3
 674:	2503d402 	strcs	sp, [r3, #-1026]	; 0xfffffbfe
 678:	02000000 	andeq	r0, r0, #0
 67c:	1a052823 	bne	14a710 <_start-0x3febd8f0>
 680:	02000002 	andeq	r0, r0, #2
 684:	002503d5 	ldrdeq	r0, [r5], -r5	; <UNPREDICTABLE>
 688:	23020000 	movwcs	r0, #8192	; 0x2000
 68c:	0170052c 	cmneq	r0, ip, lsr #10
 690:	d6020000 	strle	r0, [r2], -r0
 694:	00002503 	andeq	r2, r0, r3, lsl #10
 698:	30230200 	eorcc	r0, r3, r0, lsl #4
 69c:	00017705 	andeq	r7, r1, r5, lsl #14
 6a0:	03d70200 	bicseq	r0, r7, #0, 4
 6a4:	00000025 	andeq	r0, r0, r5, lsr #32
 6a8:	05342302 	ldreq	r2, [r4, #-770]!	; 0xfffffcfe
 6ac:	000001ce 	andeq	r0, r0, lr, asr #3
 6b0:	2503d802 	strcs	sp, [r3, #-2050]	; 0xfffff7fe
 6b4:	02000000 	andeq	r0, r0, #0
 6b8:	06003823 	streq	r3, [r0], -r3, lsr #16
 6bc:	0000016a 	andeq	r0, r0, sl, ror #2
 6c0:	9c03d902 	stcls	9, cr13, [r3], {2}
 6c4:	02000000 	andeq	r0, r0, #0
 6c8:	01010704 	tsteq	r1, r4, lsl #14
 6cc:	01070000 	mrseq	r0, (UNDEF: 7)
 6d0:	000001a2 	andeq	r0, r0, r2, lsr #3
 6d4:	93180301 	tstls	r8, #67108864	; 0x4000000
 6d8:	937c4000 	cmnls	ip, #0
 6dc:	01a44000 			; <UNDEFINED> instruction: 0x01a44000
 6e0:	08010000 	stmdaeq	r1, {}	; <UNPREDICTABLE>
 6e4:	0001e101 	andeq	lr, r1, r1, lsl #2
 6e8:	01100100 	tsteq	r0, r0, lsl #2
 6ec:	4000937c 	andmi	r9, r0, ip, ror r3
 6f0:	400093d4 	ldrdmi	r9, [r0], -r4
 6f4:	000001d0 	ldrdeq	r0, [r0], -r0	; <UNPREDICTABLE>
 6f8:	0001d801 	andeq	sp, r1, r1, lsl #16
 6fc:	017f0900 	cmneq	pc, r0, lsl #18
 700:	10010000 	andne	r0, r1, r0
 704:	000001d8 	ldrdeq	r0, [r0], -r8
 708:	00749102 	rsbseq	r9, r4, r2, lsl #2
 70c:	0001dd0a 	andeq	sp, r1, sl, lsl #26
 710:	08010200 	stmdaeq	r1, {r9}
 714:	00000098 	muleq	r0, r8, r0
 718:	02080108 	andeq	r0, r8, #8, 2
 71c:	17010000 	strne	r0, [r1, -r0]
 720:	0093d401 	addseq	sp, r3, r1, lsl #8
 724:	00941c40 	addseq	r1, r4, r0, asr #24
 728:	0001fc40 	andeq	pc, r1, r0, asr #24
 72c:	020d0100 	andeq	r0, sp, #0, 2
 730:	8c090000 	stchi	0, cr0, [r9], {-0}
 734:	01000001 	tsteq	r0, r1
 738:	00020d17 	andeq	r0, r2, r7, lsl sp
 73c:	74910200 	ldrvc	r0, [r1], #512	; 0x200
 740:	d8040b00 	stmdale	r4, {r8, r9, fp}
 744:	00000001 	andeq	r0, r0, r1
 748:	00000137 	andeq	r0, r0, r7, lsr r1
 74c:	025e0002 	subseq	r0, lr, #2
 750:	01040000 	mrseq	r0, (UNDEF: 4)
 754:	00000118 	andeq	r0, r0, r8, lsl r1
 758:	00022a01 	andeq	r2, r2, r1, lsl #20
 75c:	00003b00 	andeq	r3, r0, r0, lsl #22
 760:	00941c00 	addseq	r1, r4, r0, lsl #24
 764:	00953440 	addseq	r3, r5, r0, asr #8
 768:	00035a40 	andeq	r5, r3, r0, asr #20
 76c:	24010200 	strcs	r0, [r1], #-512	; 0xfffffe00
 770:	01000002 	tsteq	r0, r2
 774:	941c0103 	ldrls	r0, [ip], #-259	; 0xfffffefd
 778:	948c4000 	strls	r4, [ip], #0
 77c:	02284000 	eoreq	r4, r8, #0
 780:	94010000 	strls	r0, [r1], #-0
 784:	03000000 	movweq	r0, #0
 788:	00000244 	andeq	r0, r0, r4, asr #4
 78c:	00940301 	addseq	r0, r4, r1, lsl #6
 790:	91020000 	mrsls	r0, (UNDEF: 2)
 794:	656c0470 	strbvs	r0, [ip, #-1136]!	; 0xfffffb90
 798:	0301006e 	movweq	r0, #4206	; 0x106e
 79c:	000000a1 	andeq	r0, r0, r1, lsr #1
 7a0:	056c9102 	strbeq	r9, [ip, #-258]!	; 0xfffffefe
 7a4:	04010078 	streq	r0, [r1], #-120	; 0xffffff88
 7a8:	000000a1 	andeq	r0, r0, r1, lsr #1
 7ac:	06749102 	ldrbteq	r9, [r4], -r2, lsl #2
 7b0:	00016301 	andeq	r6, r1, r1, lsl #6
 7b4:	a1060100 	mrsge	r0, (UNDEF: 22)
 7b8:	01000000 	mrseq	r0, (UNDEF: 0)
 7bc:	0000007a 	andeq	r0, r0, sl, ror r0
 7c0:	3c080007 	stccc	0, cr0, [r8], {7}
 7c4:	58400094 	stmdapl	r0, {r2, r4, r7}^
 7c8:	09400094 	stmdbeq	r0, {r2, r4, r7}^
 7cc:	00016301 	andeq	r6, r1, r1, lsl #6
 7d0:	a1060100 	mrsge	r0, (UNDEF: 22)
 7d4:	01000000 	mrseq	r0, (UNDEF: 0)
 7d8:	00000007 	andeq	r0, r0, r7
 7dc:	009a040a 	addseq	r0, sl, sl, lsl #8
 7e0:	010b0000 	mrseq	r0, (UNDEF: 11)
 7e4:	00009808 	andeq	r9, r0, r8, lsl #16
 7e8:	05040c00 	streq	r0, [r4, #-3072]	; 0xfffff400
 7ec:	00746e69 	rsbseq	r6, r4, r9, ror #28
 7f0:	024a0102 	subeq	r0, sl, #-2147483648	; 0x80000000
 7f4:	0b010000 	bleq	407fc <_start-0x3ffc7804>
 7f8:	00948c01 	addseq	r8, r4, r1, lsl #24
 7fc:	00953440 	addseq	r3, r5, r0, asr #8
 800:	00025440 	andeq	r5, r2, r0, asr #8
 804:	01330100 	teqeq	r3, r0, lsl #2
 808:	6e040000 	cdpvs	0, 0, cr0, cr4, cr0, {0}
 80c:	01006d75 	tsteq	r0, r5, ror sp
 810:	0001330b 	andeq	r3, r1, fp, lsl #6
 814:	64910200 	ldrvs	r0, [r1], #512	; 0x200
 818:	70756405 	rsbsvc	r6, r5, r5, lsl #8
 81c:	330c0100 	movwcc	r0, #49408	; 0xc100
 820:	02000001 	andeq	r0, r0, #1
 824:	74057091 	strvc	r7, [r5], #-145	; 0xffffff6f
 828:	0100706d 	tsteq	r0, sp, rrx
 82c:	0001330c 	andeq	r3, r1, ip, lsl #6
 830:	6c910200 	lfmvs	f0, 4, [r1], {0}
 834:	00023d0d 	andeq	r3, r2, sp, lsl #26
 838:	330c0100 	movwcc	r0, #49408	; 0xc100
 83c:	02000001 	andeq	r0, r0, #1
 840:	69056891 	stmdbvs	r5, {r0, r4, r7, fp, sp, lr}
 844:	a10d0100 	mrsge	r0, (UNDEF: 29)
 848:	02000000 	andeq	r0, r0, #0
 84c:	01067491 			; <UNDEFINED> instruction: 0x01067491
 850:	00000163 	andeq	r0, r0, r3, ror #2
 854:	00a10601 	adceq	r0, r1, r1, lsl #12
 858:	19010000 	stmdbne	r1, {}	; <UNPREDICTABLE>
 85c:	07000001 	streq	r0, [r0, -r1]
 860:	94c80800 	strbls	r0, [r8], #2048	; 0x800
 864:	95004000 	strls	r4, [r0, #-0]
 868:	01094000 	mrseq	r4, (UNDEF: 9)
 86c:	00000163 	andeq	r0, r0, r3, ror #2
 870:	00a10601 	adceq	r0, r1, r1, lsl #12
 874:	07010000 	streq	r0, [r1, -r0]
 878:	0b000000 	bleq	880 <_start-0x40007780>
 87c:	00a70704 	adceq	r0, r7, r4, lsl #14
 880:	73000000 	movwvc	r0, #0
 884:	02000000 	andeq	r0, r0, #0
 888:	00031900 	andeq	r1, r3, r0, lsl #18
 88c:	c1010400 	tstgt	r1, r0, lsl #8
 890:	34000003 	strcc	r0, [r0], #-3
 894:	e4400095 	strb	r0, [r0], #-149	; 0xffffff6b
 898:	63400095 	movtvs	r0, #149	; 0x95
 89c:	6f6d6d6f 	svcvs	0x006d6d6f
 8a0:	72732f6e 	rsbsvc	r2, r3, #440	; 0x1b8
 8a4:	755f2f63 	ldrbvc	r2, [pc, #-3939]	; fffff949 <_ctype+0xbfff55dd>
 8a8:	73646f6d 	cmnvc	r4, #436	; 0x1b4
 8ac:	532e3369 	teqpl	lr, #-1543503871	; 0xa4000001
 8b0:	6f682f00 	svcvs	0x00682f00
 8b4:	6a2f656d 	bvs	bd9e70 <_start-0x3f42e190>
 8b8:	676e6169 	strbvs	r6, [lr, -r9, ror #2]!
 8bc:	7365442f 	cmnvc	r5, #788529152	; 0x2f000000
 8c0:	706f746b 	rsbvc	r7, pc, fp, ror #8
 8c4:	7971682f 	ldmdbvc	r1!, {r0, r1, r2, r3, r5, fp, sp, lr}^
 8c8:	52412f6a 	subpl	r2, r1, #424	; 0x1a8
 8cc:	78452f4d 	stmdavc	r5, {r0, r2, r3, r6, r8, r9, sl, fp, sp}^
 8d0:	6d697270 	sfmvs	f7, 2, [r9, #-448]!	; 0xfffffe40
 8d4:	4349492f 	movtmi	r4, #39215	; 0x992f
 8d8:	7978655f 	ldmdbvc	r8!, {r0, r1, r2, r3, r4, r6, r8, sl, sp, lr}^
 8dc:	34736f6e 	ldrbtcc	r6, [r3], #-3950	; 0xfffff092
 8e0:	5f323134 	svcpl	0x00323134
 8e4:	3675706d 	ldrbtcc	r7, [r5], -sp, rrx
 8e8:	00303530 	eorseq	r3, r0, r0, lsr r5
 8ec:	20554e47 	subscs	r4, r5, r7, asr #28
 8f0:	32205341 	eorcc	r5, r0, #67108865	; 0x4000001
 8f4:	0035322e 	eorseq	r3, r5, lr, lsr #4
 8f8:	00738001 	rsbseq	r8, r3, r1
 8fc:	00020000 	andeq	r0, r2, r0
 900:	0000032d 	andeq	r0, r0, sp, lsr #6
 904:	04310104 	ldrteq	r0, [r1], #-260	; 0xfffffefc
 908:	95e40000 	strbls	r0, [r4, #0]!
 90c:	96784000 	ldrbtls	r4, [r8], -r0
 910:	6f634000 	svcvs	0x00634000
 914:	6e6f6d6d 	cdpvs	13, 6, cr6, cr15, cr13, {3}
 918:	6372732f 	cmnvs	r2, #-1140850688	; 0xbc000000
 91c:	64755f2f 	ldrbtvs	r5, [r5], #-3887	; 0xfffff0d1
 920:	69737669 	ldmdbvs	r3!, {r0, r3, r5, r6, r9, sl, ip, sp, lr}^
 924:	00532e33 	subseq	r2, r3, r3, lsr lr
 928:	6d6f682f 	stclvs	8, cr6, [pc, #-188]!	; 874 <_start-0x4000778c>
 92c:	696a2f65 	stmdbvs	sl!, {r0, r2, r5, r6, r8, r9, sl, fp, sp}^
 930:	2f676e61 	svccs	0x00676e61
 934:	6b736544 	blvs	1cd9e4c <_start-0x3e32e1b4>
 938:	2f706f74 	svccs	0x00706f74
 93c:	6a797168 	bvs	1e5cee4 <_start-0x3e1ab11c>
 940:	4d52412f 	ldfmie	f4, [r2, #-188]	; 0xffffff44
 944:	7078452f 	rsbsvc	r4, r8, pc, lsr #10
 948:	2f6d6972 	svccs	0x006d6972
 94c:	5f434949 	svcpl	0x00434949
 950:	6e797865 	cdpvs	8, 7, cr7, cr9, cr5, {3}
 954:	3434736f 	ldrtcc	r7, [r4], #-879	; 0xfffffc91
 958:	6d5f3231 	lfmvs	f3, 2, [pc, #-196]	; 89c <_start-0x40007764>
 95c:	30367570 	eorscc	r7, r6, r0, ror r5
 960:	47003035 	smladxmi	r0, r5, r0, r3
 964:	4120554e 	teqmi	r0, lr, asr #10
 968:	2e322053 	mrccs	0, 1, r2, cr2, cr3, {2}
 96c:	01003532 	tsteq	r0, r2, lsr r5
 970:	00025c80 	andeq	r5, r2, r0, lsl #25
 974:	41000200 	mrsmi	r0, R8_usr
 978:	04000003 	streq	r0, [r0], #-3
 97c:	00011801 	andeq	r1, r1, r1, lsl #16
 980:	02750100 	rsbseq	r0, r5, #0, 2
 984:	003b0000 	eorseq	r0, fp, r0
 988:	96780000 	ldrbtls	r0, [r8], -r0
 98c:	9ac84000 	bls	ff210994 <_ctype+0xbf206628>
 990:	049a4000 	ldreq	r4, [sl], #0
 994:	04020000 	streq	r0, [r2], #-0
 998:	0000a707 	andeq	sl, r0, r7, lsl #14
 99c:	02180300 	andseq	r0, r8, #0, 6
 9a0:	00900194 	umullseq	r0, r0, r4, r1	; <UNPREDICTABLE>
 9a4:	43040000 	movwmi	r0, #16384	; 0x4000
 9a8:	02004e4f 	andeq	r4, r0, #1264	; 0x4f0
 9ac:	00250195 	mlaeq	r5, r5, r1, r0
 9b0:	23020000 	movwcs	r0, #8192	; 0x2000
 9b4:	41440400 	cmpmi	r4, r0, lsl #8
 9b8:	96020054 			; <UNDEFINED> instruction: 0x96020054
 9bc:	00002501 	andeq	r2, r0, r1, lsl #10
 9c0:	04230200 	strteq	r0, [r3], #-512	; 0xfffffe00
 9c4:	44555004 	ldrbmi	r5, [r5], #-4
 9c8:	01970200 	orrseq	r0, r7, r0, lsl #4
 9cc:	00000025 	andeq	r0, r0, r5, lsr #32
 9d0:	04082302 	streq	r2, [r8], #-770	; 0xfffffcfe
 9d4:	00565244 	subseq	r5, r6, r4, asr #4
 9d8:	25019802 	strcs	r9, [r1, #-2050]	; 0xfffff7fe
 9dc:	02000000 	andeq	r0, r0, #0
 9e0:	b9050c23 	stmdblt	r5, {r0, r1, r5, sl, fp}
 9e4:	02000001 	andeq	r0, r0, #1
 9e8:	00250199 	mlaeq	r5, r9, r1, r0
 9ec:	23020000 	movwcs	r0, #8192	; 0x2000
 9f0:	01ef0510 	mvneq	r0, r0, lsl r5
 9f4:	9a020000 	bls	809fc <_start-0x3ff87604>
 9f8:	00002501 	andeq	r2, r0, r1, lsl #10
 9fc:	14230200 	strtne	r0, [r3], #-512	; 0xfffffe00
 a00:	70670600 	rsbvc	r0, r7, r0, lsl #12
 a04:	9b020062 	blls	80b94 <_start-0x3ff8746c>
 a08:	00002c01 	andeq	r2, r0, r1, lsl #24
 a0c:	02140300 	andseq	r0, r4, #0, 6
 a10:	00f104bb 	ldrhteq	r0, [r1], #75	; 0x4b
 a14:	6e050000 	cdpvs	0, 0, cr0, cr5, cr0, {0}
 a18:	02000002 	andeq	r0, r0, #2
 a1c:	002504bc 	strhteq	r0, [r5], -ip
 a20:	23020000 	movwcs	r0, #8192	; 0x2000
 a24:	02a50500 	adceq	r0, r5, #0, 10
 a28:	bd020000 	stclt	0, cr0, [r2, #-0]
 a2c:	00002504 	andeq	r2, r0, r4, lsl #10
 a30:	04230200 	strteq	r0, [r3], #-512	; 0xfffffe00
 a34:	00029e05 	andeq	r9, r2, r5, lsl #28
 a38:	04be0200 	ldrteq	r0, [lr], #512	; 0x200
 a3c:	00000025 	andeq	r0, r0, r5, lsr #32
 a40:	05082302 	streq	r2, [r8, #-770]	; 0xfffffcfe
 a44:	00000262 	andeq	r0, r0, r2, ror #4
 a48:	2504bf02 	strcs	fp, [r4, #-3842]	; 0xfffff0fe
 a4c:	02000000 	andeq	r0, r0, #0
 a50:	68050c23 	stmdavs	r5, {r0, r1, r5, sl, fp}
 a54:	02000002 	andeq	r0, r0, #2
 a58:	002504c0 	eoreq	r0, r5, r0, asr #9
 a5c:	23020000 	movwcs	r0, #8192	; 0x2000
 a60:	c4070010 	strgt	r0, [r7], #-16
 a64:	02000002 	andeq	r0, r0, #2
 a68:	009c04c1 	addseq	r0, ip, r1, asr #9
 a6c:	04020000 	streq	r0, [r2], #-0
 a70:	00010107 	andeq	r0, r1, r7, lsl #2
 a74:	50010800 	andpl	r0, r1, r0, lsl #16
 a78:	01000002 	tsteq	r0, r2
 a7c:	96780109 	ldrbtls	r0, [r8], -r9, lsl #2
 a80:	97104000 	ldrls	r4, [r0, -r0]
 a84:	02804000 	addeq	r4, r0, #0
 a88:	4f010000 	svcmi	0x00010000
 a8c:	09000001 	stmdbeq	r0, {r0}
 a90:	000002b6 			; <UNDEFINED> instruction: 0x000002b6
 a94:	014f0901 	cmpeq	pc, r1, lsl #18
 a98:	91020000 	mrsls	r0, (UNDEF: 2)
 a9c:	968c0a70 			; <UNDEFINED> instruction: 0x968c0a70
 aa0:	96d84000 	ldrbls	r4, [r8], r0
 aa4:	690b4000 	stmdbvs	fp, {lr}
 aa8:	4f0d0100 	svcmi	0x000d0100
 aac:	02000001 	andeq	r0, r0, #1
 ab0:	6a0b7891 	bvs	2decfc <_start-0x3fd29304>
 ab4:	4f0d0100 	svcmi	0x000d0100
 ab8:	02000001 	andeq	r0, r0, #1
 abc:	00007491 	muleq	r0, r1, r4
 ac0:	6905040c 	stmdbvs	r5, {r2, r3, sl}
 ac4:	0d00746e 	cfstrseq	mvf7, [r0, #-440]	; 0xfffffe48
 ac8:	00027b01 	andeq	r7, r2, r1, lsl #22
 acc:	011c0100 	tsteq	ip, r0, lsl #2
 ad0:	40009710 	andmi	r9, r0, r0, lsl r7
 ad4:	40009834 	andmi	r9, r0, r4, lsr r8
 ad8:	000002ac 	andeq	r0, r0, ip, lsr #5
 adc:	00019b01 	andeq	r9, r1, r1, lsl #22
 ae0:	02850900 	addeq	r0, r5, #0, 18
 ae4:	1c010000 	stcne	0, cr0, [r1], {-0}
 ae8:	0000019b 	muleq	r0, fp, r1
 aec:	09749102 	ldmdbeq	r4!, {r1, r8, ip, pc}^
 af0:	0000028b 	andeq	r0, r0, fp, lsl #5
 af4:	019b1c01 	orrseq	r1, fp, r1, lsl #24
 af8:	91020000 	mrsls	r0, (UNDEF: 2)
 afc:	017f0970 	cmneq	pc, r0, ror r9	; <UNPREDICTABLE>
 b00:	1c010000 	stcne	0, cr0, [r1], {-0}
 b04:	0000019b 	muleq	r0, fp, r1
 b08:	006c9102 	rsbeq	r9, ip, r2, lsl #2
 b0c:	8f080102 	svchi	0x00080102
 b10:	0e000000 	cdpeq	0, 0, cr0, cr0, cr0, {0}
 b14:	00029501 	andeq	r9, r2, r1, lsl #10
 b18:	013c0100 	teqeq	ip, r0, lsl #2
 b1c:	0000019b 	muleq	r0, fp, r1
 b20:	40009834 	andmi	r9, r0, r4, lsr r8
 b24:	400099ac 	andmi	r9, r0, ip, lsr #19
 b28:	000002d8 	ldrdeq	r0, [r0], -r8
 b2c:	0001eb01 	andeq	lr, r1, r1, lsl #22
 b30:	02850900 	addeq	r0, r5, #0, 18
 b34:	3c010000 	stccc	0, cr0, [r1], {-0}
 b38:	0000019b 	muleq	r0, fp, r1
 b3c:	09709102 	ldmdbeq	r0!, {r1, r8, ip, pc}^
 b40:	0000028b 	andeq	r0, r0, fp, lsl #5
 b44:	019b3c01 	orrseq	r3, fp, r1, lsl #24
 b48:	91020000 	mrsls	r0, (UNDEF: 2)
 b4c:	017f0f6c 	cmneq	pc, ip, ror #30
 b50:	3f010000 	svccc	0x00010000
 b54:	0000019b 	muleq	r0, fp, r1
 b58:	00779102 	rsbseq	r9, r7, r2, lsl #2
 b5c:	02d30110 	sbcseq	r0, r3, #16, 2
 b60:	67010000 	strvs	r0, [r1, -r0]
 b64:	400099ac 	andmi	r9, r0, ip, lsr #19
 b68:	40009a08 	andmi	r9, r0, r8, lsl #20
 b6c:	00000304 	andeq	r0, r0, r4, lsl #6
 b70:	90010e01 	andls	r0, r1, r1, lsl #28
 b74:	01000002 	tsteq	r0, r2
 b78:	014f0176 	hvceq	61462	; 0xf016
 b7c:	9a080000 	bls	200b84 <_start-0x3fe0747c>
 b80:	9ac84000 	bls	ff210b88 <_ctype+0xbf20681c>
 b84:	03304000 	teqeq	r0, #0
 b88:	58010000 	stmdapl	r1, {}	; <UNPREDICTABLE>
 b8c:	0f000002 	svceq	0x00000002
 b90:	000002ad 	andeq	r0, r0, sp, lsr #5
 b94:	019b7901 	orrseq	r7, fp, r1, lsl #18
 b98:	91020000 	mrsls	r0, (UNDEF: 2)
 b9c:	02bb0f77 	adcseq	r0, fp, #476	; 0x1dc
 ba0:	79010000 	stmdbvc	r1, {}	; <UNPREDICTABLE>
 ba4:	0000019b 	muleq	r0, fp, r1
 ba8:	0f769102 	svceq	0x00769102
 bac:	0000025b 	andeq	r0, r0, fp, asr r2
 bb0:	02587a01 	subseq	r7, r8, #4096	; 0x1000
 bb4:	91020000 	mrsls	r0, (UNDEF: 2)
 bb8:	63011174 	movwvs	r1, #4468	; 0x1174
 bbc:	01000001 	tsteq	r0, r1
 bc0:	00014f83 	andeq	r4, r1, r3, lsl #31
 bc4:	00120100 	andseq	r0, r2, r0, lsl #2
 bc8:	05020200 	streq	r0, [r2, #-512]	; 0xfffffe00
 bcc:	000002c9 	andeq	r0, r0, r9, asr #5
	...

Disassembly of section .debug_abbrev:

00000000 <.debug_abbrev>:
   0:	10001101 	andne	r1, r0, r1, lsl #2
   4:	12011106 	andne	r1, r1, #-2147483647	; 0x80000001
   8:	1b080301 	blne	200c14 <_start-0x3fe073ec>
   c:	13082508 	movwne	r2, #34056	; 0x8508
  10:	00000005 	andeq	r0, r0, r5
  14:	25011101 	strcs	r1, [r1, #-257]	; 0xfffffeff
  18:	030b130e 	movweq	r1, #45838	; 0xb30e
  1c:	110e1b0e 	tstne	lr, lr, lsl #22
  20:	10011201 	andne	r1, r1, r1, lsl #4
  24:	02000006 	andeq	r0, r0, #6
  28:	0e030016 	mcreq	0, 0, r0, cr3, cr6, {0}
  2c:	0b3b0b3a 	bleq	ec2d1c <_start-0x3f1452e4>
  30:	00001349 	andeq	r1, r0, r9, asr #6
  34:	0b000f03 	bleq	3c48 <_start-0x400043b8>
  38:	000e030b 	andeq	r0, lr, fp, lsl #6
  3c:	012e0400 	teqeq	lr, r0, lsl #8
  40:	0b3a0e03 	bleq	e83854 <_start-0x3f1847ac>
  44:	0c270b3b 	stceq	11, cr0, [r7], #-236	; 0xffffff14
  48:	01111349 	tsteq	r1, r9, asr #6
  4c:	06400112 			; <UNDEFINED> instruction: 0x06400112
  50:	010c4297 			; <UNDEFINED> instruction: 0x010c4297
  54:	05000013 	streq	r0, [r0, #-19]	; 0xffffffed
  58:	08030005 	stmdaeq	r3, {r0, r2}
  5c:	0b3b0b3a 	bleq	ec2d4c <_start-0x3f1452b4>
  60:	0a021349 	beq	84d8c <_start-0x3ff83274>
  64:	24060000 	strcs	r0, [r6], #-0
  68:	3e0b0b00 	vmlacc.f64	d0, d11, d0
  6c:	000e030b 	andeq	r0, lr, fp, lsl #6
  70:	012e0700 	teqeq	lr, r0, lsl #14
  74:	0e030c3f 	mcreq	12, 0, r0, cr3, cr15, {1}
  78:	0b3b0b3a 	bleq	ec2d68 <_start-0x3f145298>
  7c:	13490c27 	movtne	r0, #39975	; 0x9c27
  80:	01120111 	tsteq	r2, r1, lsl r1
  84:	42960640 	addsmi	r0, r6, #64, 12	; 0x4000000
  88:	0013010c 	andseq	r0, r3, ip, lsl #2
  8c:	00050800 	andeq	r0, r5, r0, lsl #16
  90:	0b3a0e03 	bleq	e838a4 <_start-0x3f18475c>
  94:	13490b3b 	movtne	r0, #39739	; 0x9b3b
  98:	00000a02 	andeq	r0, r0, r2, lsl #20
  9c:	03003409 	movweq	r3, #1033	; 0x409
  a0:	3b0b3a0e 	blcc	2ce8e0 <_start-0x3fd39720>
  a4:	0213490b 	andseq	r4, r3, #180224	; 0x2c000
  a8:	0a00000a 	beq	d8 <_start-0x40007f28>
  ac:	0b0b000f 	bleq	2c00f0 <_start-0x3fd47f10>
  b0:	00001349 	andeq	r1, r0, r9, asr #6
  b4:	4900260b 	stmdbmi	r0, {r0, r1, r3, r9, sl, sp}
  b8:	0c000013 	stceq	0, cr0, [r0], {19}
  bc:	08030034 	stmdaeq	r3, {r2, r4, r5}
  c0:	0b3b0b3a 	bleq	ec2db0 <_start-0x3f145250>
  c4:	0a021349 	beq	84df0 <_start-0x3ff83210>
  c8:	240d0000 	strcs	r0, [sp], #-0
  cc:	3e0b0b00 	vmlacc.f64	d0, d11, d0
  d0:	0008030b 	andeq	r0, r8, fp, lsl #6
  d4:	012e0e00 	teqeq	lr, r0, lsl #28
  d8:	0b3a0e03 	bleq	e838ec <_start-0x3f184714>
  dc:	0c270b3b 	stceq	11, cr0, [r7], #-236	; 0xffffff14
  e0:	01111349 	tsteq	r1, r9, asr #6
  e4:	06400112 			; <UNDEFINED> instruction: 0x06400112
  e8:	010c4296 			; <UNDEFINED> instruction: 0x010c4296
  ec:	0f000013 	svceq	0x00000013
  f0:	0111010b 	tsteq	r1, fp, lsl #2
  f4:	00000112 	andeq	r0, r0, r2, lsl r1
  f8:	49010110 	stmdbmi	r1, {r4, r8}
  fc:	00130113 	andseq	r0, r3, r3, lsl r1
 100:	00211100 	eoreq	r1, r1, r0, lsl #2
 104:	0b2f1349 	bleq	bc4e30 <_start-0x3f4431d0>
 108:	2e120000 	cdpcs	0, 1, cr0, cr2, cr0, {0}
 10c:	030c3f01 	movweq	r3, #52993	; 0xcf01
 110:	3b0b3a0e 	blcc	2ce950 <_start-0x3fd396b0>
 114:	490c270b 	stmdbmi	ip, {r0, r1, r3, r8, r9, sl, sp}
 118:	12011113 	andne	r1, r1, #-1073741820	; 0xc0000004
 11c:	97064001 	strls	r4, [r6, -r1]
 120:	13010c42 	movwne	r0, #7234	; 0x1c42
 124:	0a130000 	beq	4c012c <_start-0x3fb47ed4>
 128:	3a0e0300 	bcc	380d30 <_start-0x3fc872d0>
 12c:	110b3b0b 	tstne	fp, fp, lsl #22
 130:	14000001 	strne	r0, [r0], #-1
 134:	0111010b 	tsteq	r1, fp, lsl #2
 138:	13010112 	movwne	r0, #4370	; 0x1112
 13c:	34150000 	ldrcc	r0, [r5], #-0
 140:	3a080300 	bcc	200d48 <_start-0x3fe072b8>
 144:	49053b0b 	stmdbmi	r5, {r0, r1, r3, r8, r9, fp, ip, sp}
 148:	000a0213 	andeq	r0, sl, r3, lsl r2
 14c:	012e1600 	teqeq	lr, r0, lsl #12
 150:	0e030c3f 	mcreq	12, 0, r0, cr3, cr15, {1}
 154:	053b0b3a 	ldreq	r0, [fp, #-2874]!	; 0xfffff4c6
 158:	13490c27 	movtne	r0, #39975	; 0x9c27
 15c:	01120111 	tsteq	r2, r1, lsl r1
 160:	42960640 	addsmi	r0, r6, #64, 12	; 0x4000000
 164:	0013010c 	andseq	r0, r3, ip, lsl #2
 168:	00051700 	andeq	r1, r5, r0, lsl #14
 16c:	0b3a0803 	bleq	e82180 <_start-0x3f185e80>
 170:	1349053b 	movtne	r0, #38203	; 0x953b
 174:	00000a02 	andeq	r0, r0, r2, lsl #20
 178:	00001818 	andeq	r1, r0, r8, lsl r8
 17c:	00341900 	eorseq	r1, r4, r0, lsl #18
 180:	0b3a0e03 	bleq	e83994 <_start-0x3f18466c>
 184:	1349053b 	movtne	r0, #38203	; 0x953b
 188:	00000a02 	andeq	r0, r0, r2, lsl #20
 18c:	3f012e1a 	svccc	0x00012e1a
 190:	3a0e030c 	bcc	380dc8 <_start-0x3fc87238>
 194:	27053b0b 	strcs	r3, [r5, -fp, lsl #22]
 198:	1201110c 	andne	r1, r1, #12, 2
 19c:	96064001 	strls	r4, [r6], -r1
 1a0:	13010c42 	movwne	r0, #7234	; 0x1c42
 1a4:	341b0000 	ldrcc	r0, [fp], #-0
 1a8:	3a0e0300 	bcc	380db0 <_start-0x3fc87250>
 1ac:	490b3b0b 	stmdbmi	fp, {r0, r1, r3, r8, r9, fp, ip, sp}
 1b0:	020c3f13 	andeq	r3, ip, #19, 30	; 0x4c
 1b4:	0000000a 	andeq	r0, r0, sl
 1b8:	25011101 	strcs	r1, [r1, #-257]	; 0xfffffeff
 1bc:	030b130e 	movweq	r1, #45838	; 0xb30e
 1c0:	110e1b0e 	tstne	lr, lr, lsl #22
 1c4:	10011201 	andne	r1, r1, r1, lsl #4
 1c8:	02000006 	andeq	r0, r0, #6
 1cc:	0b0b0024 	bleq	2c0264 <_start-0x3fd47d9c>
 1d0:	0e030b3e 	vmoveq.16	d3[0], r0
 1d4:	13030000 	movwne	r0, #12288	; 0x3000
 1d8:	3a0b0b01 	bcc	2c2de4 <_start-0x3fd4521c>
 1dc:	01053b0b 	tsteq	r5, fp, lsl #22
 1e0:	04000013 	streq	r0, [r0], #-19	; 0xffffffed
 1e4:	0803000d 	stmdaeq	r3, {r0, r2, r3}
 1e8:	053b0b3a 	ldreq	r0, [fp, #-2874]!	; 0xfffff4c6
 1ec:	0a381349 	beq	e04f18 <_start-0x3f2030e8>
 1f0:	0d050000 	stceq	0, cr0, [r5, #-0]
 1f4:	3a0e0300 	bcc	380dfc <_start-0x3fc87204>
 1f8:	49053b0b 	stmdbmi	r5, {r0, r1, r3, r8, r9, fp, ip, sp}
 1fc:	000a3813 	andeq	r3, sl, r3, lsl r8
 200:	00160600 	andseq	r0, r6, r0, lsl #12
 204:	0b3a0e03 	bleq	e83a18 <_start-0x3f1845e8>
 208:	1349053b 	movtne	r0, #38203	; 0x953b
 20c:	2e070000 	cdpcs	0, 0, cr0, cr7, cr0, {0}
 210:	030c3f00 	movweq	r3, #52992	; 0xcf00
 214:	3b0b3a0e 	blcc	2cea54 <_start-0x3fd395ac>
 218:	1201110b 	andne	r1, r1, #-1073741822	; 0xc0000002
 21c:	97064001 	strls	r4, [r6, -r1]
 220:	00000c42 	andeq	r0, r0, r2, asr #24
 224:	3f012e08 	svccc	0x00012e08
 228:	3a0e030c 	bcc	380e60 <_start-0x3fc871a0>
 22c:	270b3b0b 	strcs	r3, [fp, -fp, lsl #22]
 230:	1201110c 	andne	r1, r1, #12, 2
 234:	96064001 	strls	r4, [r6], -r1
 238:	13010c42 	movwne	r0, #7234	; 0x1c42
 23c:	05090000 	streq	r0, [r9, #-0]
 240:	3a0e0300 	bcc	380e48 <_start-0x3fc871b8>
 244:	490b3b0b 	stmdbmi	fp, {r0, r1, r3, r8, r9, fp, ip, sp}
 248:	000a0213 	andeq	r0, sl, r3, lsl r2
 24c:	00260a00 	eoreq	r0, r6, r0, lsl #20
 250:	00001349 	andeq	r1, r0, r9, asr #6
 254:	0b000f0b 	bleq	3e88 <_start-0x40004178>
 258:	0013490b 	andseq	r4, r3, fp, lsl #18
 25c:	11010000 	mrsne	r0, (UNDEF: 1)
 260:	130e2501 	movwne	r2, #58625	; 0xe501
 264:	1b0e030b 	blne	380e98 <_start-0x3fc87168>
 268:	1201110e 	andne	r1, r1, #-2147483645	; 0x80000003
 26c:	00061001 	andeq	r1, r6, r1
 270:	012e0200 	teqeq	lr, r0, lsl #4
 274:	0e030c3f 	mcreq	12, 0, r0, cr3, cr15, {1}
 278:	0b3b0b3a 	bleq	ec2f68 <_start-0x3f145098>
 27c:	01110c27 	tsteq	r1, r7, lsr #24
 280:	06400112 			; <UNDEFINED> instruction: 0x06400112
 284:	010c4296 			; <UNDEFINED> instruction: 0x010c4296
 288:	03000013 	movweq	r0, #19
 28c:	0e030005 	cdpeq	0, 0, cr0, cr3, cr5, {0}
 290:	0b3b0b3a 	bleq	ec2f80 <_start-0x3f145080>
 294:	0a021349 	beq	84fc0 <_start-0x3ff83040>
 298:	05040000 	streq	r0, [r4, #-0]
 29c:	3a080300 	bcc	200ea4 <_start-0x3fe0715c>
 2a0:	490b3b0b 	stmdbmi	fp, {r0, r1, r3, r8, r9, fp, ip, sp}
 2a4:	000a0213 	andeq	r0, sl, r3, lsl r2
 2a8:	00340500 	eorseq	r0, r4, r0, lsl #10
 2ac:	0b3a0803 	bleq	e822c0 <_start-0x3f185d40>
 2b0:	13490b3b 	movtne	r0, #39739	; 0x9b3b
 2b4:	00000a02 	andeq	r0, r0, r2, lsl #20
 2b8:	3f012e06 	svccc	0x00012e06
 2bc:	3a0e030c 	bcc	380ef4 <_start-0x3fc8710c>
 2c0:	490b3b0b 	stmdbmi	fp, {r0, r1, r3, r8, r9, fp, ip, sp}
 2c4:	010c3c13 	tsteq	ip, r3, lsl ip
 2c8:	07000013 	smladeq	r0, r3, r0, r0
 2cc:	00000018 	andeq	r0, r0, r8, lsl r0
 2d0:	11010b08 	tstne	r1, r8, lsl #22
 2d4:	00011201 	andeq	r1, r1, r1, lsl #4
 2d8:	012e0900 	teqeq	lr, r0, lsl #18
 2dc:	0e030c3f 	mcreq	12, 0, r0, cr3, cr15, {1}
 2e0:	0b3b0b3a 	bleq	ec2fd0 <_start-0x3f145030>
 2e4:	0c3c1349 	ldceq	3, cr1, [ip], #-292	; 0xfffffedc
 2e8:	0f0a0000 	svceq	0x000a0000
 2ec:	490b0b00 	stmdbmi	fp, {r8, r9, fp}
 2f0:	0b000013 	bleq	344 <_start-0x40007cbc>
 2f4:	0b0b0024 	bleq	2c038c <_start-0x3fd47c74>
 2f8:	0e030b3e 	vmoveq.16	d3[0], r0
 2fc:	240c0000 	strcs	r0, [ip], #-0
 300:	3e0b0b00 	vmlacc.f64	d0, d11, d0
 304:	0008030b 	andeq	r0, r8, fp, lsl #6
 308:	00340d00 	eorseq	r0, r4, r0, lsl #26
 30c:	0b3a0e03 	bleq	e83b20 <_start-0x3f1844e0>
 310:	13490b3b 	movtne	r0, #39739	; 0x9b3b
 314:	00000a02 	andeq	r0, r0, r2, lsl #20
 318:	00110100 	andseq	r0, r1, r0, lsl #2
 31c:	01110610 	tsteq	r1, r0, lsl r6
 320:	08030112 	stmdaeq	r3, {r1, r4, r8}
 324:	0825081b 	stmdaeq	r5!, {r0, r1, r3, r4, fp}
 328:	00000513 	andeq	r0, r0, r3, lsl r5
 32c:	00110100 	andseq	r0, r1, r0, lsl #2
 330:	01110610 	tsteq	r1, r0, lsl r6
 334:	08030112 	stmdaeq	r3, {r1, r4, r8}
 338:	0825081b 	stmdaeq	r5!, {r0, r1, r3, r4, fp}
 33c:	00000513 	andeq	r0, r0, r3, lsl r5
 340:	01110100 	tsteq	r1, r0, lsl #2
 344:	0b130e25 	bleq	4c3be0 <_start-0x3fb44420>
 348:	0e1b0e03 	cdpeq	14, 1, cr0, cr11, cr3, {0}
 34c:	01120111 	tsteq	r2, r1, lsl r1
 350:	00000610 	andeq	r0, r0, r0, lsl r6
 354:	0b002402 	bleq	9364 <_start-0x3fffec9c>
 358:	030b3e0b 	movweq	r3, #48651	; 0xbe0b
 35c:	0300000e 	movweq	r0, #14
 360:	0b0b0113 	bleq	2c07b4 <_start-0x3fd4784c>
 364:	053b0b3a 	ldreq	r0, [fp, #-2874]!	; 0xfffff4c6
 368:	00001301 	andeq	r1, r0, r1, lsl #6
 36c:	03000d04 	movweq	r0, #3332	; 0xd04
 370:	3b0b3a08 	blcc	2ceb98 <_start-0x3fd39468>
 374:	38134905 	ldmdacc	r3, {r0, r2, r8, fp, lr}
 378:	0500000a 	streq	r0, [r0, #-10]
 37c:	0e03000d 	cdpeq	0, 0, cr0, cr3, cr13, {0}
 380:	053b0b3a 	ldreq	r0, [fp, #-2874]!	; 0xfffff4c6
 384:	0a381349 	beq	e050b0 <_start-0x3f202f50>
 388:	16060000 	strne	r0, [r6], -r0
 38c:	3a080300 	bcc	200f94 <_start-0x3fe0706c>
 390:	49053b0b 	stmdbmi	r5, {r0, r1, r3, r8, r9, fp, ip, sp}
 394:	07000013 	smladeq	r0, r3, r0, r0
 398:	0e030016 	mcreq	0, 0, r0, cr3, cr6, {0}
 39c:	053b0b3a 	ldreq	r0, [fp, #-2874]!	; 0xfffff4c6
 3a0:	00001349 	andeq	r1, r0, r9, asr #6
 3a4:	3f012e08 	svccc	0x00012e08
 3a8:	3a0e030c 	bcc	380fe0 <_start-0x3fc87020>
 3ac:	270b3b0b 	strcs	r3, [fp, -fp, lsl #22]
 3b0:	1201110c 	andne	r1, r1, #12, 2
 3b4:	97064001 	strls	r4, [r6, -r1]
 3b8:	13010c42 	movwne	r0, #7234	; 0x1c42
 3bc:	05090000 	streq	r0, [r9, #-0]
 3c0:	3a0e0300 	bcc	380fc8 <_start-0x3fc87038>
 3c4:	490b3b0b 	stmdbmi	fp, {r0, r1, r3, r8, r9, fp, ip, sp}
 3c8:	000a0213 	andeq	r0, sl, r3, lsl r2
 3cc:	010b0a00 	tsteq	fp, r0, lsl #20
 3d0:	01120111 	tsteq	r2, r1, lsl r1
 3d4:	340b0000 	strcc	r0, [fp], #-0
 3d8:	3a080300 	bcc	200fe0 <_start-0x3fe07020>
 3dc:	490b3b0b 	stmdbmi	fp, {r0, r1, r3, r8, r9, fp, ip, sp}
 3e0:	000a0213 	andeq	r0, sl, r3, lsl r2
 3e4:	00240c00 	eoreq	r0, r4, r0, lsl #24
 3e8:	0b3e0b0b 	bleq	f8301c <_start-0x3f084fe4>
 3ec:	00000803 	andeq	r0, r0, r3, lsl #16
 3f0:	3f012e0d 	svccc	0x00012e0d
 3f4:	3a0e030c 	bcc	38102c <_start-0x3fc86fd4>
 3f8:	270b3b0b 	strcs	r3, [fp, -fp, lsl #22]
 3fc:	1201110c 	andne	r1, r1, #12, 2
 400:	96064001 	strls	r4, [r6], -r1
 404:	13010c42 	movwne	r0, #7234	; 0x1c42
 408:	2e0e0000 	cdpcs	0, 0, cr0, cr14, cr0, {0}
 40c:	030c3f01 	movweq	r3, #52993	; 0xcf01
 410:	3b0b3a0e 	blcc	2cec50 <_start-0x3fd393b0>
 414:	490c270b 	stmdbmi	ip, {r0, r1, r3, r8, r9, sl, sp}
 418:	12011113 	andne	r1, r1, #-1073741820	; 0xc0000004
 41c:	96064001 	strls	r4, [r6], -r1
 420:	13010c42 	movwne	r0, #7234	; 0x1c42
 424:	340f0000 	strcc	r0, [pc], #-0	; 42c <_start-0x40007bd4>
 428:	3a0e0300 	bcc	381030 <_start-0x3fc86fd0>
 42c:	490b3b0b 	stmdbmi	fp, {r0, r1, r3, r8, r9, fp, ip, sp}
 430:	000a0213 	andeq	r0, sl, r3, lsl r2
 434:	002e1000 	eoreq	r1, lr, r0
 438:	0e030c3f 	mcreq	12, 0, r0, cr3, cr15, {1}
 43c:	0b3b0b3a 	bleq	ec312c <_start-0x3f144ed4>
 440:	01120111 	tsteq	r2, r1, lsl r1
 444:	42960640 	addsmi	r0, r6, #64, 12	; 0x4000000
 448:	1100000c 	tstne	r0, ip
 44c:	0c3f012e 	ldfeqs	f0, [pc], #-184	; 39c <_start-0x40007c64>
 450:	0b3a0e03 	bleq	e83c64 <_start-0x3f18439c>
 454:	13490b3b 	movtne	r0, #39739	; 0x9b3b
 458:	00000c3c 	andeq	r0, r0, ip, lsr ip
 45c:	00001812 	andeq	r1, r0, r2, lsl r8
	...

Disassembly of section .debug_aranges:

00000000 <.debug_aranges>:
   0:	0000001c 	andeq	r0, r0, ip, lsl r0
   4:	00000002 	andeq	r0, r0, r2
   8:	00040000 	andeq	r0, r4, r0
   c:	00000000 	andeq	r0, r0, r0
  10:	40008000 	andmi	r8, r0, r0
  14:	00000134 	andeq	r0, r0, r4, lsr r1
	...
  20:	0000001c 	andeq	r0, r0, ip, lsl r0
  24:	006f0002 	rsbeq	r0, pc, r2
  28:	00040000 	andeq	r0, r4, r0
  2c:	00000000 	andeq	r0, r0, r0
  30:	40008140 	andmi	r8, r0, r0, asr #2
  34:	000011d8 	ldrdeq	r1, [r0], -r8
	...
  40:	0000001c 	andeq	r0, r0, ip, lsl r0
  44:	05340002 	ldreq	r0, [r4, #-2]!
  48:	00040000 	andeq	r0, r4, r0
  4c:	00000000 	andeq	r0, r0, r0
  50:	40009318 	andmi	r9, r0, r8, lsl r3
  54:	00000104 	andeq	r0, r0, r4, lsl #2
	...
  60:	0000001c 	andeq	r0, r0, ip, lsl r0
  64:	07480002 	strbeq	r0, [r8, -r2]
  68:	00040000 	andeq	r0, r4, r0
  6c:	00000000 	andeq	r0, r0, r0
  70:	4000941c 	andmi	r9, r0, ip, lsl r4
  74:	00000118 	andeq	r0, r0, r8, lsl r1
	...
  80:	0000001c 	andeq	r0, r0, ip, lsl r0
  84:	08830002 	stmeq	r3, {r1}
  88:	00040000 	andeq	r0, r4, r0
  8c:	00000000 	andeq	r0, r0, r0
  90:	40009534 	andmi	r9, r0, r4, lsr r5
  94:	000000b0 	strheq	r0, [r0], -r0	; <UNPREDICTABLE>
	...
  a0:	0000001c 	andeq	r0, r0, ip, lsl r0
  a4:	08fa0002 	ldmeq	sl!, {r1}^
  a8:	00040000 	andeq	r0, r4, r0
  ac:	00000000 	andeq	r0, r0, r0
  b0:	400095e4 	andmi	r9, r0, r4, ror #11
  b4:	00000094 	muleq	r0, r4, r0
	...
  c0:	0000001c 	andeq	r0, r0, ip, lsl r0
  c4:	09710002 	ldmdbeq	r1!, {r1}^
  c8:	00040000 	andeq	r0, r4, r0
  cc:	00000000 	andeq	r0, r0, r0
  d0:	40009678 	andmi	r9, r0, r8, ror r6
  d4:	00000450 	andeq	r0, r0, r0, asr r4
	...

Disassembly of section .debug_loc:

00000000 <.debug_loc>:
   0:	00000000 	andeq	r0, r0, r0
   4:	00000004 	andeq	r0, r0, r4
   8:	007d0002 	rsbseq	r0, sp, r2
   c:	00000004 	andeq	r0, r0, r4
  10:	00000008 	andeq	r0, r0, r8
  14:	047d0002 	ldrbteq	r0, [sp], #-2
  18:	00000008 	andeq	r0, r0, r8
  1c:	00000050 	andeq	r0, r0, r0, asr r0
  20:	047b0002 	ldrbteq	r0, [fp], #-2
	...
  2c:	00000050 	andeq	r0, r0, r0, asr r0
  30:	00000054 	andeq	r0, r0, r4, asr r0
  34:	007d0002 	rsbseq	r0, sp, r2
  38:	00000054 	andeq	r0, r0, r4, asr r0
  3c:	00000058 	andeq	r0, r0, r8, asr r0
  40:	087d0002 	ldmdaeq	sp!, {r1}^
  44:	00000058 	andeq	r0, r0, r8, asr r0
  48:	000001f4 	strdeq	r0, [r0], -r4
  4c:	047b0002 	ldrbteq	r0, [fp], #-2
	...
  58:	000001f4 	strdeq	r0, [r0], -r4
  5c:	000001f8 	strdeq	r0, [r0], -r8
  60:	007d0002 	rsbseq	r0, sp, r2
  64:	000001f8 	strdeq	r0, [r0], -r8
  68:	000001fc 	strdeq	r0, [r0], -ip
  6c:	087d0002 	ldmdaeq	sp!, {r1}^
  70:	000001fc 	strdeq	r0, [r0], -ip
  74:	00000260 	andeq	r0, r0, r0, ror #4
  78:	047b0002 	ldrbteq	r0, [fp], #-2
	...
  84:	00000260 	andeq	r0, r0, r0, ror #4
  88:	00000264 	andeq	r0, r0, r4, ror #4
  8c:	007d0002 	rsbseq	r0, sp, r2
  90:	00000264 	andeq	r0, r0, r4, ror #4
  94:	00000268 	andeq	r0, r0, r8, ror #4
  98:	047d0002 	ldrbteq	r0, [sp], #-2
  9c:	00000268 	andeq	r0, r0, r8, ror #4
  a0:	000002f4 	strdeq	r0, [r0], -r4
  a4:	047b0002 	ldrbteq	r0, [fp], #-2
	...
  b0:	000002f4 	strdeq	r0, [r0], -r4
  b4:	000002f8 	strdeq	r0, [r0], -r8
  b8:	007d0002 	rsbseq	r0, sp, r2
  bc:	000002f8 	strdeq	r0, [r0], -r8
  c0:	000002fc 	strdeq	r0, [r0], -ip
  c4:	087d0002 	ldmdaeq	sp!, {r1}^
  c8:	000002fc 	strdeq	r0, [r0], -ip
  cc:	00000784 	andeq	r0, r0, r4, lsl #15
  d0:	047b0002 	ldrbteq	r0, [fp], #-2
	...
  dc:	00000784 	andeq	r0, r0, r4, lsl #15
  e0:	00000788 	andeq	r0, r0, r8, lsl #15
  e4:	007d0002 	rsbseq	r0, sp, r2
  e8:	00000788 	andeq	r0, r0, r8, lsl #15
  ec:	0000078c 	andeq	r0, r0, ip, lsl #15
  f0:	047d0002 	ldrbteq	r0, [sp], #-2
  f4:	0000078c 	andeq	r0, r0, ip, lsl #15
  f8:	00000804 	andeq	r0, r0, r4, lsl #16
  fc:	047b0002 	ldrbteq	r0, [fp], #-2
	...
 108:	00000804 	andeq	r0, r0, r4, lsl #16
 10c:	00000808 	andeq	r0, r0, r8, lsl #16
 110:	007d0002 	rsbseq	r0, sp, r2
 114:	00000808 	andeq	r0, r0, r8, lsl #16
 118:	0000080c 	andeq	r0, r0, ip, lsl #16
 11c:	087d0002 	ldmdaeq	sp!, {r1}^
 120:	0000080c 	andeq	r0, r0, ip, lsl #16
 124:	00001138 	andeq	r1, r0, r8, lsr r1
 128:	047b0002 	ldrbteq	r0, [fp], #-2
	...
 134:	00001138 	andeq	r1, r0, r8, lsr r1
 138:	0000113c 	andeq	r1, r0, ip, lsr r1
 13c:	007d0002 	rsbseq	r0, sp, r2
 140:	0000113c 	andeq	r1, r0, ip, lsr r1
 144:	00001140 	andeq	r1, r0, r0, asr #2
 148:	0c7d0002 	ldcleq	0, cr0, [sp], #-8
 14c:	00001140 	andeq	r1, r0, r0, asr #2
 150:	00001144 	andeq	r1, r0, r4, asr #2
 154:	147d0002 	ldrbtne	r0, [sp], #-2
 158:	00001144 	andeq	r1, r0, r4, asr #2
 15c:	00001184 	andeq	r1, r0, r4, lsl #3
 160:	107b0002 	rsbsne	r0, fp, r2
	...
 16c:	00001184 	andeq	r1, r0, r4, lsl #3
 170:	00001188 	andeq	r1, r0, r8, lsl #3
 174:	007d0002 	rsbseq	r0, sp, r2
 178:	00001188 	andeq	r1, r0, r8, lsl #3
 17c:	0000118c 	andeq	r1, r0, ip, lsl #3
 180:	107d0002 	rsbsne	r0, sp, r2
 184:	0000118c 	andeq	r1, r0, ip, lsl #3
 188:	00001190 	muleq	r0, r0, r1
 18c:	187d0002 	ldmdane	sp!, {r1}^
 190:	00001190 	muleq	r0, r0, r1
 194:	000011d8 	ldrdeq	r1, [r0], -r8
 198:	147b0002 	ldrbtne	r0, [fp], #-2
	...
 1a8:	00000004 	andeq	r0, r0, r4
 1ac:	007d0002 	rsbseq	r0, sp, r2
 1b0:	00000004 	andeq	r0, r0, r4
 1b4:	00000008 	andeq	r0, r0, r8
 1b8:	047d0002 	ldrbteq	r0, [sp], #-2
 1bc:	00000008 	andeq	r0, r0, r8
 1c0:	00000064 	andeq	r0, r0, r4, rrx
 1c4:	047b0002 	ldrbteq	r0, [fp], #-2
	...
 1d0:	00000064 	andeq	r0, r0, r4, rrx
 1d4:	00000068 	andeq	r0, r0, r8, rrx
 1d8:	007d0002 	rsbseq	r0, sp, r2
 1dc:	00000068 	andeq	r0, r0, r8, rrx
 1e0:	0000006c 	andeq	r0, r0, ip, rrx
 1e4:	087d0002 	ldmdaeq	sp!, {r1}^
 1e8:	0000006c 	andeq	r0, r0, ip, rrx
 1ec:	000000bc 	strheq	r0, [r0], -ip
 1f0:	047b0002 	ldrbteq	r0, [fp], #-2
	...
 1fc:	000000bc 	strheq	r0, [r0], -ip
 200:	000000c0 	andeq	r0, r0, r0, asr #1
 204:	007d0002 	rsbseq	r0, sp, r2
 208:	000000c0 	andeq	r0, r0, r0, asr #1
 20c:	000000c4 	andeq	r0, r0, r4, asr #1
 210:	087d0002 	ldmdaeq	sp!, {r1}^
 214:	000000c4 	andeq	r0, r0, r4, asr #1
 218:	00000104 	andeq	r0, r0, r4, lsl #2
 21c:	047b0002 	ldrbteq	r0, [fp], #-2
	...
 22c:	00000004 	andeq	r0, r0, r4
 230:	007d0002 	rsbseq	r0, sp, r2
 234:	00000004 	andeq	r0, r0, r4
 238:	00000008 	andeq	r0, r0, r8
 23c:	087d0002 	ldmdaeq	sp!, {r1}^
 240:	00000008 	andeq	r0, r0, r8
 244:	00000070 	andeq	r0, r0, r0, ror r0
 248:	047b0002 	ldrbteq	r0, [fp], #-2
	...
 254:	00000070 	andeq	r0, r0, r0, ror r0
 258:	00000074 	andeq	r0, r0, r4, ror r0
 25c:	007d0002 	rsbseq	r0, sp, r2
 260:	00000074 	andeq	r0, r0, r4, ror r0
 264:	00000078 	andeq	r0, r0, r8, ror r0
 268:	087d0002 	ldmdaeq	sp!, {r1}^
 26c:	00000078 	andeq	r0, r0, r8, ror r0
 270:	00000118 	andeq	r0, r0, r8, lsl r1
 274:	047b0002 	ldrbteq	r0, [fp], #-2
	...
 284:	00000004 	andeq	r0, r0, r4
 288:	007d0002 	rsbseq	r0, sp, r2
 28c:	00000004 	andeq	r0, r0, r4
 290:	00000008 	andeq	r0, r0, r8
 294:	047d0002 	ldrbteq	r0, [sp], #-2
 298:	00000008 	andeq	r0, r0, r8
 29c:	00000098 	muleq	r0, r8, r0
 2a0:	047b0002 	ldrbteq	r0, [fp], #-2
	...
 2ac:	00000098 	muleq	r0, r8, r0
 2b0:	0000009c 	muleq	r0, ip, r0
 2b4:	007d0002 	rsbseq	r0, sp, r2
 2b8:	0000009c 	muleq	r0, ip, r0
 2bc:	000000a0 	andeq	r0, r0, r0, lsr #1
 2c0:	087d0002 	ldmdaeq	sp!, {r1}^
 2c4:	000000a0 	andeq	r0, r0, r0, lsr #1
 2c8:	000001bc 			; <UNDEFINED> instruction: 0x000001bc
 2cc:	047b0002 	ldrbteq	r0, [fp], #-2
	...
 2d8:	000001bc 			; <UNDEFINED> instruction: 0x000001bc
 2dc:	000001c0 	andeq	r0, r0, r0, asr #3
 2e0:	007d0002 	rsbseq	r0, sp, r2
 2e4:	000001c0 	andeq	r0, r0, r0, asr #3
 2e8:	000001c4 	andeq	r0, r0, r4, asr #3
 2ec:	087d0002 	ldmdaeq	sp!, {r1}^
 2f0:	000001c4 	andeq	r0, r0, r4, asr #3
 2f4:	00000334 	andeq	r0, r0, r4, lsr r3
 2f8:	047b0002 	ldrbteq	r0, [fp], #-2
	...
 304:	00000334 	andeq	r0, r0, r4, lsr r3
 308:	00000338 	andeq	r0, r0, r8, lsr r3
 30c:	007d0002 	rsbseq	r0, sp, r2
 310:	00000338 	andeq	r0, r0, r8, lsr r3
 314:	0000033c 	andeq	r0, r0, ip, lsr r3
 318:	087d0002 	ldmdaeq	sp!, {r1}^
 31c:	0000033c 	andeq	r0, r0, ip, lsr r3
 320:	00000390 	muleq	r0, r0, r3
 324:	047b0002 	ldrbteq	r0, [fp], #-2
	...
 330:	00000390 	muleq	r0, r0, r3
 334:	00000394 	muleq	r0, r4, r3
 338:	007d0002 	rsbseq	r0, sp, r2
 33c:	00000394 	muleq	r0, r4, r3
 340:	00000398 	muleq	r0, r8, r3
 344:	087d0002 	ldmdaeq	sp!, {r1}^
 348:	00000398 	muleq	r0, r8, r3
 34c:	00000450 	andeq	r0, r0, r0, asr r4
 350:	047b0002 	ldrbteq	r0, [fp], #-2
	...

Disassembly of section .debug_str:

00000000 <.debug_str>:
   0:	75625f5f 	strbvc	r5, [r2, #-3935]!	; 0xfffff0a1
   4:	69746c69 	ldmdbvs	r4!, {r0, r3, r5, r6, sl, fp, sp, lr}^
   8:	61765f6e 	cmnvs	r6, lr, ror #30
   c:	73696c5f 	cmnvc	r9, #24320	; 0x5f00
  10:	69730074 	ldmdbvs	r3!, {r2, r4, r5, r6}^
  14:	656c706d 	strbvs	r7, [ip, #-109]!	; 0xffffff93
  18:	7274735f 	rsbsvc	r7, r4, #2080374785	; 0x7c000001
  1c:	6c756f74 	ldclvs	15, cr6, [r5], #-464	; 0xfffffe30
  20:	756f6300 	strbvc	r6, [pc, #-768]!	; fffffd28 <_ctype+0xbfff59bc>
  24:	7300746e 	movwvc	r7, #1134	; 0x46e
  28:	5f70696b 	svcpl	0x0070696b
  2c:	696f7461 	stmdbvs	pc!, {r0, r5, r6, sl, ip, sp, lr}^	; <UNPREDICTABLE>
  30:	745f5f00 	ldrbvc	r5, [pc], #-3840	; 38 <_start-0x40007fc8>
  34:	7070756f 	rsbsvc	r7, r0, pc, ror #10
  38:	2f007265 	svccs	0x00007265
  3c:	656d6f68 	strbvs	r6, [sp, #-3944]!	; 0xfffff098
  40:	61696a2f 	cmnvs	r9, pc, lsr #20
  44:	442f676e 	strtmi	r6, [pc], #-1902	; 4c <_start-0x40007fb4>
  48:	746b7365 	strbtvc	r7, [fp], #-869	; 0xfffffc9b
  4c:	682f706f 	stmdavs	pc!, {r0, r1, r2, r3, r5, r6, ip, sp, lr}	; <UNPREDICTABLE>
  50:	2f6a7971 	svccs	0x006a7971
  54:	2f4d5241 	svccs	0x004d5241
  58:	72707845 	rsbsvc	r7, r0, #4521984	; 0x450000
  5c:	492f6d69 	stmdbmi	pc!, {r0, r3, r5, r6, r8, sl, fp, sp, lr}	; <UNPREDICTABLE>
  60:	655f4349 	ldrbvs	r4, [pc, #-841]	; fffffd1f <_ctype+0xbfff59b3>
  64:	6f6e7978 	svcvs	0x006e7978
  68:	31343473 	teqcc	r4, r3, ror r4
  6c:	706d5f32 	rsbvc	r5, sp, r2, lsr pc
  70:	35303675 	ldrcc	r3, [r0, #-1653]!	; 0xfffff98b
  74:	5f5f0030 	svcpl	0x005f0030
  78:	63756e67 	cmnvs	r5, #1648	; 0x670
  7c:	5f61765f 	svcpl	0x0061765f
  80:	7473696c 	ldrbtvc	r6, [r3], #-2412	; 0xfffff694
  84:	65727000 	ldrbvs	r7, [r2, #-0]!
  88:	69736963 	ldmdbvs	r3!, {r0, r1, r5, r6, r8, fp, sp, lr}^
  8c:	75006e6f 	strvc	r6, [r0, #-3695]	; 0xfffff191
  90:	6769736e 	strbvs	r7, [r9, -lr, ror #6]!
  94:	2064656e 	rsbcs	r6, r4, lr, ror #10
  98:	72616863 	rsbvc	r6, r1, #6488064	; 0x630000
  9c:	73616200 	cmnvc	r1, #0, 4
  a0:	6f6c0065 	svcvs	0x006c0065
  a4:	7520676e 	strvc	r6, [r0, #-1902]!	; 0xfffff892
  a8:	6769736e 	strbvs	r7, [r9, -lr, ror #6]!
  ac:	2064656e 	rsbcs	r6, r4, lr, ror #10
  b0:	00746e69 	rsbseq	r6, r4, r9, ror #28
  b4:	706d6973 	rsbvc	r6, sp, r3, ror r9
  b8:	735f656c 	cmpvc	pc, #108, 10	; 0x1b000000
  bc:	6f747274 	svcvs	0x00747274
  c0:	6f63006c 	svcvs	0x0063006c
  c4:	6e6f6d6d 	cdpvs	13, 6, cr6, cr15, cr13, {3}
  c8:	6372732f 	cmnvs	r2, #-1140850688	; 0xbc000000
  cc:	6972702f 	ldmdbvs	r2!, {r0, r1, r2, r3, r5, ip, sp, lr}^
  d0:	2e66746e 	cdpcs	4, 6, cr7, cr6, cr14, {3}
  d4:	6c660063 	stclvs	0, cr0, [r6], #-396	; 0xfffffe74
  d8:	00736761 	rsbseq	r6, r3, r1, ror #14
  dc:	6c617571 	cfstr64vs	mvdx7, [r1], #-452	; 0xfffffe3c
  e0:	65696669 	strbvs	r6, [r9, #-1641]!	; 0xfffff997
  e4:	65720072 	ldrbvs	r0, [r2, #-114]!	; 0xffffff8e
  e8:	746c7573 	strbtvc	r7, [ip], #-1395	; 0xfffffa8d
  ec:	70657200 	rsbvc	r7, r5, r0, lsl #4
  f0:	00746165 	rsbseq	r6, r4, r5, ror #2
  f4:	6e727473 	mrcvs	4, 3, r7, cr2, cr3, {3}
  f8:	006e656c 	rsbeq	r6, lr, ip, ror #10
  fc:	70646e65 	rsbvc	r6, r4, r5, ror #28
 100:	7a697300 	bvc	1a5cd08 <_start-0x3e5ab2f8>
 104:	70797465 	rsbsvc	r7, r9, r5, ror #8
 108:	635f0065 	cmpvs	pc, #101	; 0x65
 10c:	65707974 	ldrbvs	r7, [r0, #-2420]!	; 0xfffff68c
 110:	67696400 	strbvs	r6, [r9, -r0, lsl #8]!
 114:	00737469 	rsbseq	r7, r3, r9, ror #8
 118:	20554e47 	subscs	r4, r5, r7, asr #28
 11c:	2e342043 	cdpcs	0, 3, cr2, cr4, cr3, {2}
 120:	00342e37 	eorseq	r2, r4, r7, lsr lr
 124:	6c656966 	stclvs	9, cr6, [r5], #-408	; 0xfffffe68
 128:	69775f64 	ldmdbvs	r7!, {r2, r5, r6, r8, r9, sl, fp, ip, lr}^
 12c:	00687464 	rsbeq	r7, r8, r4, ror #8
 130:	73677261 	cmnvc	r7, #268435462	; 0x10000006
 134:	6d756e00 	ldclvs	14, cr6, [r5, #-0]
 138:	00726562 	rsbseq	r6, r2, r2, ror #10
 13c:	6e697270 	mcrvs	2, 3, r7, cr9, cr0, {3}
 140:	66756274 			; <UNDEFINED> instruction: 0x66756274
 144:	00726566 	rsbseq	r6, r2, r6, ror #10
 148:	676e6f6c 	strbvs	r6, [lr, -ip, ror #30]!
 14c:	746e6920 	strbtvc	r6, [lr], #-2336	; 0xfffff6e0
 150:	67697300 	strbvs	r7, [r9, -r0, lsl #6]!
 154:	5f5f006e 	svcpl	0x005f006e
 158:	00736572 	rsbseq	r6, r3, r2, ror r5
 15c:	657a6973 	ldrbvs	r6, [sl, #-2419]!	; 0xfffff68d
 160:	70737600 	rsbsvc	r7, r3, r0, lsl #12
 164:	746e6972 	strbtvc	r6, [lr], #-2418	; 0xfffff68e
 168:	61750066 	cmnvs	r5, r6, rrx
 16c:	00327472 	eorseq	r7, r2, r2, ror r4
 170:	544e4955 	strbpl	r4, [lr], #-2389	; 0xfffff6ab
 174:	55003250 	strpl	r3, [r0, #-592]	; 0xfffffdb0
 178:	53544e49 	cmppl	r4, #1168	; 0x490
 17c:	64003250 	strvs	r3, [r0], #-592	; 0xfffffdb0
 180:	00617461 	rsbeq	r7, r1, r1, ror #8
 184:	44524255 	ldrbmi	r4, [r2], #-597	; 0xfffffdab
 188:	00325649 	eorseq	r5, r2, r9, asr #12
 18c:	72747370 	rsbsvc	r7, r4, #112, 6	; 0xc0000001
 190:	53465500 	movtpl	r5, #25856	; 0x6500
 194:	32544154 	subscc	r4, r4, #84, 2
 198:	52545500 	subspl	r5, r4, #0, 10
 19c:	54415453 	strbpl	r5, [r1], #-1107	; 0xfffffbad
 1a0:	61750032 	cmnvs	r5, r2, lsr r0
 1a4:	695f7472 	ldmdbvs	pc, {r1, r4, r5, r6, sl, ip, sp, lr}^	; <UNPREDICTABLE>
 1a8:	0074696e 	rsbseq	r6, r4, lr, ror #18
 1ac:	4f434655 	svcmi	0x00434655
 1b0:	5500324e 	strpl	r3, [r0, #-590]	; 0xfffffdb2
 1b4:	32485854 	subcc	r5, r8, #84, 16	; 0x540000
 1b8:	4e4f4300 	cdpmi	3, 4, cr4, cr15, cr0, {0}
 1bc:	004e4450 	subeq	r4, lr, r0, asr r4
 1c0:	4e4f4355 	mcrmi	3, 2, r4, cr15, cr5, {2}
 1c4:	4d550032 	ldclmi	0, cr0, [r5, #-200]	; 0xffffff38
 1c8:	54415453 	strbpl	r5, [r1], #-1107	; 0xfffffbad
 1cc:	49550032 	ldmdbmi	r5, {r1, r4, r5}^
 1d0:	324d544e 	subcc	r5, sp, #1308622848	; 0x4e000000
 1d4:	434c5500 	movtmi	r5, #50432	; 0xc500
 1d8:	00324e4f 	eorseq	r4, r2, pc, asr #28
 1dc:	31617067 	cmncc	r1, r7, rrx
 1e0:	74757000 	ldrbtvc	r7, [r5], #-0
 1e4:	45550063 	ldrbmi	r0, [r5, #-99]	; 0xffffff9d
 1e8:	41545352 	cmpmi	r4, r2, asr r3
 1ec:	50003254 	andpl	r3, r0, r4, asr r2
 1f0:	44504455 	ldrbmi	r4, [r0], #-1109	; 0xfffffbab
 1f4:	6f63004e 	svcvs	0x0063004e
 1f8:	6e6f6d6d 	cdpvs	13, 6, cr6, cr15, cr13, {3}
 1fc:	6372732f 	cmnvs	r2, #-1140850688	; 0xbc000000
 200:	7261752f 	rsbvc	r7, r1, #197132288	; 0xbc00000
 204:	00632e74 	rsbeq	r2, r3, r4, ror lr
 208:	73747570 	cmnvc	r4, #112, 10	; 0x1c000000
 20c:	434d5500 	movtmi	r5, #54528	; 0xd500
 210:	00324e4f 	eorseq	r4, r2, pc, asr #28
 214:	48585255 	ldmdami	r8, {r0, r2, r4, r6, r9, ip, lr}^
 218:	46550032 			; <UNDEFINED> instruction: 0x46550032
 21c:	56434152 			; <UNDEFINED> instruction: 0x56434152
 220:	00324c41 	eorseq	r4, r2, r1, asr #24
 224:	65686f74 	strbvs	r6, [r8, #-3956]!	; 0xfffff08c
 228:	6f630078 	svcvs	0x00630078
 22c:	6e6f6d6d 	cdpvs	13, 6, cr6, cr15, cr13, {3}
 230:	6372732f 	cmnvs	r2, #-1140850688	; 0xbc000000
 234:	6265642f 	rsbvs	r6, r5, #788529152	; 0x2f000000
 238:	632e6775 	teqvs	lr, #30670848	; 0x1d40000
 23c:	63616600 	cmnvs	r1, #0, 12
 240:	00726f74 	rsbseq	r6, r2, r4, ror pc
 244:	72617473 	rsbvc	r7, r1, #1929379840	; 0x73000000
 248:	6f740074 	svcvs	0x00740074
 24c:	006e6962 	rsbeq	r6, lr, r2, ror #18
 250:	6564796d 	strbvs	r7, [r4, #-2413]!	; 0xfffff693
 254:	5f79616c 	svcpl	0x0079616c
 258:	7a00736d 	bvc	1d014 <_start-0x3ffeafec>
 25c:	756c6176 	strbvc	r6, [ip, #-374]!	; 0xfffffe8a
 260:	32490065 	subcc	r0, r9, #101	; 0x65
 264:	00534443 	subseq	r4, r3, r3, asr #8
 268:	4c433249 	sfmmi	f3, 2, [r3], {73}	; 0x49
 26c:	32490043 	subcc	r0, r9, #67	; 0x43
 270:	4e4f4343 	cdpmi	3, 4, cr4, cr15, cr3, {2}
 274:	63696900 	cmnvs	r9, #0, 18
 278:	6900632e 	stmdbvs	r0, {r1, r2, r3, r5, r8, r9, sp, lr}
 27c:	775f6369 	ldrbvc	r6, [pc, -r9, ror #6]
 280:	65746972 	ldrbvs	r6, [r4, #-2418]!	; 0xfffff68e
 284:	616c7300 	cmnvs	ip, r0, lsl #6
 288:	615f6576 	cmpvs	pc, r6, ror r5	; <UNPREDICTABLE>
 28c:	00726464 	rsbseq	r6, r2, r4, ror #8
 290:	6e69616d 	powvsez	f6, f1, #5.0
 294:	63696900 	cmnvs	r9, #0, 18
 298:	6165725f 	cmnvs	r5, pc, asr r2
 29c:	32490064 	subcc	r0, r9, #100	; 0x64
 2a0:	44444143 	strbmi	r4, [r4], #-323	; 0xfffffebd
 2a4:	43324900 	teqmi	r2, #0, 18
 2a8:	54415453 	strbpl	r5, [r1], #-1107	; 0xfffffbad
 2ac:	61767a00 	cmnvs	r6, r0, lsl #20
 2b0:	5f65756c 	svcpl	0x0065756c
 2b4:	69740068 	ldmdbvs	r4!, {r3, r5, r6}^
 2b8:	7a00656d 	bvc	19874 <_start-0x3ffee78c>
 2bc:	756c6176 	strbvc	r6, [ip, #-374]!	; 0xfffffe8a
 2c0:	006c5f65 	rsbeq	r5, ip, r5, ror #30
 2c4:	35633269 	strbcc	r3, [r3, #-617]!	; 0xfffffd97
 2c8:	6f687300 	svcvs	0x00687300
 2cc:	69207472 	stmdbvs	r0!, {r1, r4, r5, r6, sl, ip, sp, lr}
 2d0:	4d00746e 	cfstrsmi	mvf7, [r0, #-440]	; 0xfffffe48
 2d4:	30365550 	eorscc	r5, r6, r0, asr r5
 2d8:	495f3035 	ldmdbmi	pc, {r0, r2, r4, r5, ip, sp}^	; <UNPREDICTABLE>
 2dc:	0074696e 	rsbseq	r6, r4, lr, ror #18

Disassembly of section .debug_frame:

00000000 <.debug_frame>:
   0:	0000000c 	andeq	r0, r0, ip
   4:	ffffffff 			; <UNDEFINED> instruction: 0xffffffff
   8:	7c020001 	stcvc	0, cr0, [r2], {1}
   c:	000d0c0e 	andeq	r0, sp, lr, lsl #24
  10:	00000014 	andeq	r0, r0, r4, lsl r0
  14:	00000000 	andeq	r0, r0, r0
  18:	40008140 	andmi	r8, r0, r0, asr #2
  1c:	00000050 	andeq	r0, r0, r0, asr r0
  20:	8b040e42 	blhi	103930 <_start-0x3ff046d0>
  24:	0b0d4201 	bleq	350830 <_start-0x3fcb77d0>
  28:	00000018 	andeq	r0, r0, r8, lsl r0
  2c:	00000000 	andeq	r0, r0, r0
  30:	40008190 	mulmi	r0, r0, r1
  34:	000001a4 	andeq	r0, r0, r4, lsr #3
  38:	8b080e42 	blhi	203948 <_start-0x3fe046b8>
  3c:	42018e02 	andmi	r8, r1, #2, 28
  40:	00040b0c 	andeq	r0, r4, ip, lsl #22
  44:	00000018 	andeq	r0, r0, r8, lsl r0
  48:	00000000 	andeq	r0, r0, r0
  4c:	40008334 	andmi	r8, r0, r4, lsr r3
  50:	0000006c 	andeq	r0, r0, ip, rrx
  54:	8b080e42 	blhi	203964 <_start-0x3fe0469c>
  58:	42018e02 	andmi	r8, r1, #2, 28
  5c:	00040b0c 	andeq	r0, r4, ip, lsl #22
  60:	00000014 	andeq	r0, r0, r4, lsl r0
  64:	00000000 	andeq	r0, r0, r0
  68:	400083a0 	andmi	r8, r0, r0, lsr #7
  6c:	00000094 	muleq	r0, r4, r0
  70:	8b040e42 	blhi	103980 <_start-0x3ff04680>
  74:	0b0d4201 	bleq	350880 <_start-0x3fcb7780>
  78:	00000018 	andeq	r0, r0, r8, lsl r0
  7c:	00000000 	andeq	r0, r0, r0
  80:	40008434 	andmi	r8, r0, r4, lsr r4
  84:	00000490 	muleq	r0, r0, r4
  88:	8b080e42 	blhi	203998 <_start-0x3fe04668>
  8c:	42018e02 	andmi	r8, r1, #2, 28
  90:	00040b0c 	andeq	r0, r4, ip, lsl #22
  94:	00000014 	andeq	r0, r0, r4, lsl r0
  98:	00000000 	andeq	r0, r0, r0
  9c:	400088c4 	andmi	r8, r0, r4, asr #17
  a0:	00000080 	andeq	r0, r0, r0, lsl #1
  a4:	8b040e42 	blhi	1039b4 <_start-0x3ff0464c>
  a8:	0b0d4201 	bleq	3508b4 <_start-0x3fcb774c>
  ac:	00000018 	andeq	r0, r0, r8, lsl r0
  b0:	00000000 	andeq	r0, r0, r0
  b4:	40008944 	andmi	r8, r0, r4, asr #18
  b8:	00000934 	andeq	r0, r0, r4, lsr r9
  bc:	8b080e42 	blhi	2039cc <_start-0x3fe04634>
  c0:	42018e02 	andmi	r8, r1, #2, 28
  c4:	00040b0c 	andeq	r0, r4, ip, lsl #22
  c8:	00000020 	andeq	r0, r0, r0, lsr #32
  cc:	00000000 	andeq	r0, r0, r0
  d0:	40009278 	andmi	r9, r0, r8, ror r2
  d4:	0000004c 	andeq	r0, r0, ip, asr #32
  d8:	810c0e42 	tsthi	ip, r2, asr #28
  dc:	83028203 	movwhi	r8, #8707	; 0x2203
  e0:	140e4201 	strne	r4, [lr], #-513	; 0xfffffdff
  e4:	048e058b 	streq	r0, [lr], #1419	; 0x58b
  e8:	100b0c42 	andne	r0, fp, r2, asr #24
  ec:	00000024 	andeq	r0, r0, r4, lsr #32
  f0:	00000000 	andeq	r0, r0, r0
  f4:	400092c4 	andmi	r9, r0, r4, asr #5
  f8:	00000054 	andeq	r0, r0, r4, asr r0
  fc:	80100e42 	andshi	r0, r0, r2, asr #28
 100:	82038104 	andhi	r8, r3, #4, 2
 104:	42018302 	andmi	r8, r1, #134217728	; 0x8000000
 108:	068b180e 	streq	r1, [fp], lr, lsl #16
 10c:	0c42058e 	cfstr64eq	mvdx0, [r2], {142}	; 0x8e
 110:	0000140b 	andeq	r1, r0, fp, lsl #8
 114:	0000000c 	andeq	r0, r0, ip
 118:	ffffffff 			; <UNDEFINED> instruction: 0xffffffff
 11c:	7c020001 	stcvc	0, cr0, [r2], {1}
 120:	000d0c0e 	andeq	r0, sp, lr, lsl #24
 124:	00000014 	andeq	r0, r0, r4, lsl r0
 128:	00000114 	andeq	r0, r0, r4, lsl r1
 12c:	40009318 	andmi	r9, r0, r8, lsl r3
 130:	00000064 	andeq	r0, r0, r4, rrx
 134:	8b040e42 	blhi	103a44 <_start-0x3ff045bc>
 138:	0b0d4201 	bleq	350944 <_start-0x3fcb76bc>
 13c:	00000018 	andeq	r0, r0, r8, lsl r0
 140:	00000114 	andeq	r0, r0, r4, lsl r1
 144:	4000937c 	andmi	r9, r0, ip, ror r3
 148:	00000058 	andeq	r0, r0, r8, asr r0
 14c:	8b080e42 	blhi	203a5c <_start-0x3fe045a4>
 150:	42018e02 	andmi	r8, r1, #2, 28
 154:	00040b0c 	andeq	r0, r4, ip, lsl #22
 158:	00000018 	andeq	r0, r0, r8, lsl r0
 15c:	00000114 	andeq	r0, r0, r4, lsl r1
 160:	400093d4 	ldrdmi	r9, [r0], -r4
 164:	00000048 	andeq	r0, r0, r8, asr #32
 168:	8b080e42 	blhi	203a78 <_start-0x3fe04588>
 16c:	42018e02 	andmi	r8, r1, #2, 28
 170:	00040b0c 	andeq	r0, r4, ip, lsl #22
 174:	0000000c 	andeq	r0, r0, ip
 178:	ffffffff 			; <UNDEFINED> instruction: 0xffffffff
 17c:	7c020001 	stcvc	0, cr0, [r2], {1}
 180:	000d0c0e 	andeq	r0, sp, lr, lsl #24
 184:	00000018 	andeq	r0, r0, r8, lsl r0
 188:	00000174 	andeq	r0, r0, r4, ror r1
 18c:	4000941c 	andmi	r9, r0, ip, lsl r4
 190:	00000070 	andeq	r0, r0, r0, ror r0
 194:	8b080e42 	blhi	203aa4 <_start-0x3fe0455c>
 198:	42018e02 	andmi	r8, r1, #2, 28
 19c:	00040b0c 	andeq	r0, r4, ip, lsl #22
 1a0:	00000018 	andeq	r0, r0, r8, lsl r0
 1a4:	00000174 	andeq	r0, r0, r4, ror r1
 1a8:	4000948c 	andmi	r9, r0, ip, lsl #9
 1ac:	000000a8 	andeq	r0, r0, r8, lsr #1
 1b0:	8b080e42 	blhi	203ac0 <_start-0x3fe04540>
 1b4:	42018e02 	andmi	r8, r1, #2, 28
 1b8:	00040b0c 	andeq	r0, r4, ip, lsl #22
 1bc:	0000000c 	andeq	r0, r0, ip
 1c0:	ffffffff 			; <UNDEFINED> instruction: 0xffffffff
 1c4:	7c020001 	stcvc	0, cr0, [r2], {1}
 1c8:	000d0c0e 	andeq	r0, sp, lr, lsl #24
 1cc:	00000014 	andeq	r0, r0, r4, lsl r0
 1d0:	000001bc 			; <UNDEFINED> instruction: 0x000001bc
 1d4:	40009678 	andmi	r9, r0, r8, ror r6
 1d8:	00000098 	muleq	r0, r8, r0
 1dc:	8b040e42 	blhi	103aec <_start-0x3ff04514>
 1e0:	0b0d4201 	bleq	3509ec <_start-0x3fcb7614>
 1e4:	00000018 	andeq	r0, r0, r8, lsl r0
 1e8:	000001bc 			; <UNDEFINED> instruction: 0x000001bc
 1ec:	40009710 	andmi	r9, r0, r0, lsl r7
 1f0:	00000124 	andeq	r0, r0, r4, lsr #2
 1f4:	8b080e42 	blhi	203b04 <_start-0x3fe044fc>
 1f8:	42018e02 	andmi	r8, r1, #2, 28
 1fc:	00040b0c 	andeq	r0, r4, ip, lsl #22
 200:	00000018 	andeq	r0, r0, r8, lsl r0
 204:	000001bc 			; <UNDEFINED> instruction: 0x000001bc
 208:	40009834 	andmi	r9, r0, r4, lsr r8
 20c:	00000178 	andeq	r0, r0, r8, ror r1
 210:	8b080e42 	blhi	203b20 <_start-0x3fe044e0>
 214:	42018e02 	andmi	r8, r1, #2, 28
 218:	00040b0c 	andeq	r0, r4, ip, lsl #22
 21c:	00000018 	andeq	r0, r0, r8, lsl r0
 220:	000001bc 			; <UNDEFINED> instruction: 0x000001bc
 224:	400099ac 	andmi	r9, r0, ip, lsr #19
 228:	0000005c 	andeq	r0, r0, ip, asr r0
 22c:	8b080e42 	blhi	203b3c <_start-0x3fe044c4>
 230:	42018e02 	andmi	r8, r1, #2, 28
 234:	00040b0c 	andeq	r0, r4, ip, lsl #22
 238:	00000018 	andeq	r0, r0, r8, lsl r0
 23c:	000001bc 			; <UNDEFINED> instruction: 0x000001bc
 240:	40009a08 	andmi	r9, r0, r8, lsl #20
 244:	000000c0 	andeq	r0, r0, r0, asr #1
 248:	8b080e42 	blhi	203b58 <_start-0x3fe044a8>
 24c:	42018e02 	andmi	r8, r1, #2, 28
 250:	00040b0c 	andeq	r0, r4, ip, lsl #22
