
rtc.elf:     file format elf32-littlearm


Disassembly of section .text:

40008000 <_start>:
40008000:	ea00000d 	b	4000803c <reset>
40008004:	e59ff014 	ldr	pc, [pc, #20]	; 40008020 <_undefined_instruction>
40008008:	e59ff014 	ldr	pc, [pc, #20]	; 40008024 <_software_interrupt>
4000800c:	e59ff014 	ldr	pc, [pc, #20]	; 40008028 <_prefetch_abort>
40008010:	e59ff014 	ldr	pc, [pc, #20]	; 4000802c <_data_abort>
40008014:	e59ff014 	ldr	pc, [pc, #20]	; 40008030 <_not_used>
40008018:	e59ff014 	ldr	pc, [pc, #20]	; 40008034 <_irq>
4000801c:	e59ff014 	ldr	pc, [pc, #20]	; 40008038 <_fiq>

40008020 <_undefined_instruction>:
40008020:	40008020 	andmi	r8, r0, r0, lsr #32

40008024 <_software_interrupt>:
40008024:	40008024 	andmi	r8, r0, r4, lsr #32

40008028 <_prefetch_abort>:
40008028:	40008028 	andmi	r8, r0, r8, lsr #32

4000802c <_data_abort>:
4000802c:	4000802c 	andmi	r8, r0, ip, lsr #32

40008030 <_not_used>:
40008030:	40008030 	andmi	r8, r0, r0, lsr r0

40008034 <_irq>:
40008034:	40008110 	andmi	r8, r0, r0, lsl r1

40008038 <_fiq>:
40008038:	40008038 	andmi	r8, r0, r8, lsr r0

4000803c <reset>:
4000803c:	e59f00e0 	ldr	r0, [pc, #224]	; 40008124 <stacktop+0x4>
40008040:	ee0c0f10 	mcr	15, 0, r0, cr12, cr0, {0}
40008044:	e10f0000 	mrs	r0, CPSR
40008048:	e3c0001f 	bic	r0, r0, #31
4000804c:	e38000d3 	orr	r0, r0, #211	; 0xd3
40008050:	e129f000 	msr	CPSR_fc, r0
40008054:	e3e0020f 	mvn	r0, #-268435456	; 0xf0000000
40008058:	ee010f50 	mcr	15, 0, r0, cr1, cr0, {2}
4000805c:	e3a00000 	mov	r0, #0
40008060:	ee080f17 	mcr	15, 0, r0, cr8, cr7, {0}
40008064:	ee070f15 	mcr	15, 0, r0, cr7, cr5, {0}
40008068:	e3a03101 	mov	r3, #1073741824	; 0x40000000
4000806c:	eee83a10 	vmsr	fpexc, r3
40008070:	ee110f10 	mrc	15, 0, r0, cr1, cr0, {0}
40008074:	e3c00a02 	bic	r0, r0, #8192	; 0x2000
40008078:	e3c00007 	bic	r0, r0, #7
4000807c:	e3800a01 	orr	r0, r0, #4096	; 0x1000
40008080:	e3800002 	orr	r0, r0, #2
40008084:	e3800b02 	orr	r0, r0, #2048	; 0x800
40008088:	ee010f10 	mcr	15, 0, r0, cr1, cr0, {0}
4000808c:	e59f0094 	ldr	r0, [pc, #148]	; 40008128 <stacktop+0x8>
40008090:	e5901000 	ldr	r1, [r0]
40008094:	e3c1180f 	bic	r1, r1, #983040	; 0xf0000
40008098:	e3811801 	orr	r1, r1, #65536	; 0x10000
4000809c:	e5801000 	str	r1, [r0]
400080a0:	e59f0084 	ldr	r0, [pc, #132]	; 4000812c <stacktop+0xc>
400080a4:	e5901000 	ldr	r1, [r0]
400080a8:	e3c11c03 	bic	r1, r1, #768	; 0x300
400080ac:	e5801000 	str	r1, [r0]
400080b0:	e59f0078 	ldr	r0, [pc, #120]	; 40008130 <stacktop+0x10>
400080b4:	e5901000 	ldr	r1, [r0]
400080b8:	e3811010 	orr	r1, r1, #16
400080bc:	e5801000 	str	r1, [r0]

400080c0 <init_stack>:
400080c0:	e59f0058 	ldr	r0, [pc, #88]	; 40008120 <stacktop>
400080c4:	e1a0d000 	mov	sp, r0
400080c8:	e2400c02 	sub	r0, r0, #512	; 0x200
400080cc:	e329f0d2 	msr	CPSR_fc, #210	; 0xd2
400080d0:	e1a0d000 	mov	sp, r0
400080d4:	e2400c02 	sub	r0, r0, #512	; 0x200
400080d8:	e329f0d1 	msr	CPSR_fc, #209	; 0xd1
400080dc:	e1a0d000 	mov	sp, r0
400080e0:	e2400000 	sub	r0, r0, #0
400080e4:	e329f0d7 	msr	CPSR_fc, #215	; 0xd7
400080e8:	e1a0d000 	mov	sp, r0
400080ec:	e2400000 	sub	r0, r0, #0
400080f0:	e329f0db 	msr	CPSR_fc, #219	; 0xdb
400080f4:	e1a0d000 	mov	sp, r0
400080f8:	e2400000 	sub	r0, r0, #0
400080fc:	e329f010 	msr	CPSR_fc, #16
40008100:	e1a0d000 	mov	sp, r0
40008104:	ea00058a 	b	40009734 <main>
40008108:	e1a00000 	nop			; (mov r0, r0)
4000810c:	e1a00000 	nop			; (mov r0, r0)

40008110 <irq_handler>:
40008110:	e24ee004 	sub	lr, lr, #4
40008114:	e92d5fff 	push	{r0, r1, r2, r3, r4, r5, r6, r7, r8, r9, sl, fp, ip, lr}
40008118:	e1a00000 	nop			; (mov r0, r0)
4000811c:	e8fd9fff 	ldm	sp!, {r0, r1, r2, r3, r4, r5, r6, r7, r8, r9, sl, fp, ip, pc}^

40008120 <stacktop>:
40008120:	4000a0d8 	ldrdmi	sl, [r0], -r8
40008124:	40008000 	andmi	r8, r0, r0
40008128:	114001e0 	smlalttne	r0, r0, r0, r1	; <UNPREDICTABLE>
4000812c:	114001e8 	smlalttne	r0, r0, r8, r1	; <UNPREDICTABLE>
40008130:	114001e4 	smlalttne	r0, r0, r4, r1	; <UNPREDICTABLE>
40008134:	e1a00000 	nop			; (mov r0, r0)
40008138:	e1a00000 	nop			; (mov r0, r0)
4000813c:	e1a00000 	nop			; (mov r0, r0)

40008140 <__udivsi3>:
40008140:	e3510000 	cmp	r1, #0
40008144:	0a00001f 	beq	400081c8 <Ldiv0>
40008148:	e3a03001 	mov	r3, #1
4000814c:	e3a02000 	mov	r2, #0
40008150:	e1500001 	cmp	r0, r1
40008154:	3a000019 	bcc	400081c0 <Lgot_result>

40008158 <Loop1>:
40008158:	e3510201 	cmp	r1, #268435456	; 0x10000000
4000815c:	31510000 	cmpcc	r1, r0
40008160:	31a01201 	lslcc	r1, r1, #4
40008164:	31a03203 	lslcc	r3, r3, #4
40008168:	3afffffa 	bcc	40008158 <Loop1>

4000816c <Lbignum>:
4000816c:	e3510102 	cmp	r1, #-2147483648	; 0x80000000
40008170:	31510000 	cmpcc	r1, r0
40008174:	31a01081 	lslcc	r1, r1, #1
40008178:	31a03083 	lslcc	r3, r3, #1
4000817c:	3afffffa 	bcc	4000816c <Lbignum>

40008180 <Loop3>:
40008180:	e1500001 	cmp	r0, r1
40008184:	20400001 	subcs	r0, r0, r1
40008188:	21822003 	orrcs	r2, r2, r3
4000818c:	e15000a1 	cmp	r0, r1, lsr #1
40008190:	204000a1 	subcs	r0, r0, r1, lsr #1
40008194:	218220a3 	orrcs	r2, r2, r3, lsr #1
40008198:	e1500121 	cmp	r0, r1, lsr #2
4000819c:	20400121 	subcs	r0, r0, r1, lsr #2
400081a0:	21822123 	orrcs	r2, r2, r3, lsr #2
400081a4:	e15001a1 	cmp	r0, r1, lsr #3
400081a8:	204001a1 	subcs	r0, r0, r1, lsr #3
400081ac:	218221a3 	orrcs	r2, r2, r3, lsr #3
400081b0:	e3500000 	cmp	r0, #0
400081b4:	11b03223 	lsrsne	r3, r3, #4
400081b8:	11a01221 	lsrne	r1, r1, #4
400081bc:	1affffef 	bne	40008180 <Loop3>

400081c0 <Lgot_result>:
400081c0:	e1a00002 	mov	r0, r2
400081c4:	e1a0f00e 	mov	pc, lr

400081c8 <Ldiv0>:
400081c8:	e52de004 	push	{lr}		; (str lr, [sp, #-4]!)
400081cc:	e3a00000 	mov	r0, #0
400081d0:	e8bd8000 	pop	{pc}

400081d4 <__umodsi3>:
400081d4:	e3510000 	cmp	r1, #0
400081d8:	0a000026 	beq	40008278 <Ldiv0>
400081dc:	e3a03001 	mov	r3, #1
400081e0:	e1500001 	cmp	r0, r1
400081e4:	31a0f00e 	movcc	pc, lr

400081e8 <Loop1>:
400081e8:	e3510201 	cmp	r1, #268435456	; 0x10000000
400081ec:	31510000 	cmpcc	r1, r0
400081f0:	31a01201 	lslcc	r1, r1, #4
400081f4:	31a03203 	lslcc	r3, r3, #4
400081f8:	3afffffa 	bcc	400081e8 <Loop1>

400081fc <Lbignum>:
400081fc:	e3510102 	cmp	r1, #-2147483648	; 0x80000000
40008200:	31510000 	cmpcc	r1, r0
40008204:	31a01081 	lslcc	r1, r1, #1
40008208:	31a03083 	lslcc	r3, r3, #1
4000820c:	3afffffa 	bcc	400081fc <Lbignum>

40008210 <Loop3>:
40008210:	e3a02000 	mov	r2, #0
40008214:	e1500001 	cmp	r0, r1
40008218:	20400001 	subcs	r0, r0, r1
4000821c:	e15000a1 	cmp	r0, r1, lsr #1
40008220:	204000a1 	subcs	r0, r0, r1, lsr #1
40008224:	218220e3 	orrcs	r2, r2, r3, ror #1
40008228:	e1500121 	cmp	r0, r1, lsr #2
4000822c:	20400121 	subcs	r0, r0, r1, lsr #2
40008230:	21822163 	orrcs	r2, r2, r3, ror #2
40008234:	e15001a1 	cmp	r0, r1, lsr #3
40008238:	204001a1 	subcs	r0, r0, r1, lsr #3
4000823c:	218221e3 	orrcs	r2, r2, r3, ror #3
40008240:	e1a0c003 	mov	ip, r3
40008244:	e3500000 	cmp	r0, #0
40008248:	11b03223 	lsrsne	r3, r3, #4
4000824c:	11a01221 	lsrne	r1, r1, #4
40008250:	1affffee 	bne	40008210 <Loop3>
40008254:	e212220e 	ands	r2, r2, #-536870912	; 0xe0000000
40008258:	01a0f00e 	moveq	pc, lr
4000825c:	e11201ec 	tst	r2, ip, ror #3
40008260:	108001a1 	addne	r0, r0, r1, lsr #3
40008264:	e112016c 	tst	r2, ip, ror #2
40008268:	10800121 	addne	r0, r0, r1, lsr #2
4000826c:	e11200ec 	tst	r2, ip, ror #1
40008270:	108000a1 	addne	r0, r0, r1, lsr #1
40008274:	e1a0f00e 	mov	pc, lr

40008278 <Ldiv0>:
40008278:	e52de004 	push	{lr}		; (str lr, [sp, #-4]!)
4000827c:	e3a00000 	mov	r0, #0
40008280:	e8bd8000 	pop	{pc}

40008284 <__toupper>:
40008284:	e52db004 	push	{fp}		; (str fp, [sp, #-4]!)
40008288:	e28db000 	add	fp, sp, #0
4000828c:	e24dd004 	sub	sp, sp, #4
40008290:	e1a03000 	mov	r3, r0
40008294:	e54b3004 	strb	r3, [fp, #-4]
40008298:	e55b3004 	ldrb	r3, [fp, #-4]
4000829c:	e59f202c 	ldr	r2, [pc, #44]	; 400082d0 <__toupper+0x4c>
400082a0:	e7d23003 	ldrb	r3, [r2, r3]
400082a4:	e2033002 	and	r3, r3, #2
400082a8:	e3530000 	cmp	r3, #0
400082ac:	0a000002 	beq	400082bc <__toupper+0x38>
400082b0:	e55b3004 	ldrb	r3, [fp, #-4]
400082b4:	e2433020 	sub	r3, r3, #32
400082b8:	e54b3004 	strb	r3, [fp, #-4]
400082bc:	e55b3004 	ldrb	r3, [fp, #-4]
400082c0:	e1a00003 	mov	r0, r3
400082c4:	e28bd000 	add	sp, fp, #0
400082c8:	e8bd0800 	pop	{fp}
400082cc:	e12fff1e 	bx	lr
400082d0:	4000a0d8 	ldrdmi	sl, [r0], -r8

400082d4 <simple_strtoul>:
400082d4:	e92d4800 	push	{fp, lr}
400082d8:	e28db004 	add	fp, sp, #4
400082dc:	e24dd014 	sub	sp, sp, #20
400082e0:	e50b0010 	str	r0, [fp, #-16]
400082e4:	e50b1014 	str	r1, [fp, #-20]
400082e8:	e50b2018 	str	r2, [fp, #-24]
400082ec:	e3a03000 	mov	r3, #0
400082f0:	e50b3008 	str	r3, [fp, #-8]
400082f4:	e51b3010 	ldr	r3, [fp, #-16]
400082f8:	e5d33000 	ldrb	r3, [r3]
400082fc:	e3530030 	cmp	r3, #48	; 0x30
40008300:	1a000018 	bne	40008368 <simple_strtoul+0x94>
40008304:	e51b3010 	ldr	r3, [fp, #-16]
40008308:	e2833001 	add	r3, r3, #1
4000830c:	e50b3010 	str	r3, [fp, #-16]
40008310:	e51b3010 	ldr	r3, [fp, #-16]
40008314:	e5d33000 	ldrb	r3, [r3]
40008318:	e3530078 	cmp	r3, #120	; 0x78
4000831c:	1a00000c 	bne	40008354 <simple_strtoul+0x80>
40008320:	e51b3010 	ldr	r3, [fp, #-16]
40008324:	e2833001 	add	r3, r3, #1
40008328:	e5d33000 	ldrb	r3, [r3]
4000832c:	e59f2144 	ldr	r2, [pc, #324]	; 40008478 <simple_strtoul+0x1a4>
40008330:	e7d23003 	ldrb	r3, [r2, r3]
40008334:	e2033044 	and	r3, r3, #68	; 0x44
40008338:	e3530000 	cmp	r3, #0
4000833c:	0a000004 	beq	40008354 <simple_strtoul+0x80>
40008340:	e3a03010 	mov	r3, #16
40008344:	e50b3018 	str	r3, [fp, #-24]
40008348:	e51b3010 	ldr	r3, [fp, #-16]
4000834c:	e2833001 	add	r3, r3, #1
40008350:	e50b3010 	str	r3, [fp, #-16]
40008354:	e51b3018 	ldr	r3, [fp, #-24]
40008358:	e3530000 	cmp	r3, #0
4000835c:	1a000001 	bne	40008368 <simple_strtoul+0x94>
40008360:	e3a03008 	mov	r3, #8
40008364:	e50b3018 	str	r3, [fp, #-24]
40008368:	e51b3018 	ldr	r3, [fp, #-24]
4000836c:	e3530000 	cmp	r3, #0
40008370:	1a00000c 	bne	400083a8 <simple_strtoul+0xd4>
40008374:	e3a0300a 	mov	r3, #10
40008378:	e50b3018 	str	r3, [fp, #-24]
4000837c:	ea000009 	b	400083a8 <simple_strtoul+0xd4>
40008380:	e51b3008 	ldr	r3, [fp, #-8]
40008384:	e51b2018 	ldr	r2, [fp, #-24]
40008388:	e0020293 	mul	r2, r3, r2
4000838c:	e51b300c 	ldr	r3, [fp, #-12]
40008390:	e0823003 	add	r3, r2, r3
40008394:	e50b3008 	str	r3, [fp, #-8]
40008398:	e51b3010 	ldr	r3, [fp, #-16]
4000839c:	e2833001 	add	r3, r3, #1
400083a0:	e50b3010 	str	r3, [fp, #-16]
400083a4:	ea000000 	b	400083ac <simple_strtoul+0xd8>
400083a8:	e1a00000 	nop			; (mov r0, r0)
400083ac:	e51b3010 	ldr	r3, [fp, #-16]
400083b0:	e5d33000 	ldrb	r3, [r3]
400083b4:	e59f20bc 	ldr	r2, [pc, #188]	; 40008478 <simple_strtoul+0x1a4>
400083b8:	e7d23003 	ldrb	r3, [r2, r3]
400083bc:	e2033044 	and	r3, r3, #68	; 0x44
400083c0:	e3530000 	cmp	r3, #0
400083c4:	0a000020 	beq	4000844c <simple_strtoul+0x178>
400083c8:	e51b3010 	ldr	r3, [fp, #-16]
400083cc:	e5d33000 	ldrb	r3, [r3]
400083d0:	e59f20a0 	ldr	r2, [pc, #160]	; 40008478 <simple_strtoul+0x1a4>
400083d4:	e7d23003 	ldrb	r3, [r2, r3]
400083d8:	e2033004 	and	r3, r3, #4
400083dc:	e3530000 	cmp	r3, #0
400083e0:	0a000003 	beq	400083f4 <simple_strtoul+0x120>
400083e4:	e51b3010 	ldr	r3, [fp, #-16]
400083e8:	e5d33000 	ldrb	r3, [r3]
400083ec:	e2433030 	sub	r3, r3, #48	; 0x30
400083f0:	ea000010 	b	40008438 <simple_strtoul+0x164>
400083f4:	e51b3010 	ldr	r3, [fp, #-16]
400083f8:	e5d33000 	ldrb	r3, [r3]
400083fc:	e59f2074 	ldr	r2, [pc, #116]	; 40008478 <simple_strtoul+0x1a4>
40008400:	e7d23003 	ldrb	r3, [r2, r3]
40008404:	e2033002 	and	r3, r3, #2
40008408:	e3530000 	cmp	r3, #0
4000840c:	0a000006 	beq	4000842c <simple_strtoul+0x158>
40008410:	e51b3010 	ldr	r3, [fp, #-16]
40008414:	e5d33000 	ldrb	r3, [r3]
40008418:	e1a00003 	mov	r0, r3
4000841c:	ebffff98 	bl	40008284 <__toupper>
40008420:	e1a03000 	mov	r3, r0
40008424:	e2433037 	sub	r3, r3, #55	; 0x37
40008428:	ea000002 	b	40008438 <simple_strtoul+0x164>
4000842c:	e51b3010 	ldr	r3, [fp, #-16]
40008430:	e5d33000 	ldrb	r3, [r3]
40008434:	e2433037 	sub	r3, r3, #55	; 0x37
40008438:	e50b300c 	str	r3, [fp, #-12]
4000843c:	e51b200c 	ldr	r2, [fp, #-12]
40008440:	e51b3018 	ldr	r3, [fp, #-24]
40008444:	e1520003 	cmp	r2, r3
40008448:	3affffcc 	bcc	40008380 <simple_strtoul+0xac>
4000844c:	e51b3014 	ldr	r3, [fp, #-20]
40008450:	e3530000 	cmp	r3, #0
40008454:	0a000002 	beq	40008464 <simple_strtoul+0x190>
40008458:	e51b3014 	ldr	r3, [fp, #-20]
4000845c:	e51b2010 	ldr	r2, [fp, #-16]
40008460:	e5832000 	str	r2, [r3]
40008464:	e51b3008 	ldr	r3, [fp, #-8]
40008468:	e1a00003 	mov	r0, r3
4000846c:	e24bd004 	sub	sp, fp, #4
40008470:	e8bd4800 	pop	{fp, lr}
40008474:	e12fff1e 	bx	lr
40008478:	4000a0d8 	ldrdmi	sl, [r0], -r8

4000847c <simple_strtol>:
4000847c:	e92d4800 	push	{fp, lr}
40008480:	e28db004 	add	fp, sp, #4
40008484:	e24dd00c 	sub	sp, sp, #12
40008488:	e50b0008 	str	r0, [fp, #-8]
4000848c:	e50b100c 	str	r1, [fp, #-12]
40008490:	e50b2010 	str	r2, [fp, #-16]
40008494:	e51b3008 	ldr	r3, [fp, #-8]
40008498:	e5d33000 	ldrb	r3, [r3]
4000849c:	e353002d 	cmp	r3, #45	; 0x2d
400084a0:	1a000008 	bne	400084c8 <simple_strtol+0x4c>
400084a4:	e51b3008 	ldr	r3, [fp, #-8]
400084a8:	e2833001 	add	r3, r3, #1
400084ac:	e1a00003 	mov	r0, r3
400084b0:	e51b100c 	ldr	r1, [fp, #-12]
400084b4:	e51b2010 	ldr	r2, [fp, #-16]
400084b8:	ebffff85 	bl	400082d4 <simple_strtoul>
400084bc:	e1a03000 	mov	r3, r0
400084c0:	e2633000 	rsb	r3, r3, #0
400084c4:	ea000004 	b	400084dc <simple_strtol+0x60>
400084c8:	e51b0008 	ldr	r0, [fp, #-8]
400084cc:	e51b100c 	ldr	r1, [fp, #-12]
400084d0:	e51b2010 	ldr	r2, [fp, #-16]
400084d4:	ebffff7e 	bl	400082d4 <simple_strtoul>
400084d8:	e1a03000 	mov	r3, r0
400084dc:	e1a00003 	mov	r0, r3
400084e0:	e24bd004 	sub	sp, fp, #4
400084e4:	e8bd4800 	pop	{fp, lr}
400084e8:	e12fff1e 	bx	lr

400084ec <skip_atoi>:
400084ec:	e52db004 	push	{fp}		; (str fp, [sp, #-4]!)
400084f0:	e28db000 	add	fp, sp, #0
400084f4:	e24dd008 	sub	sp, sp, #8
400084f8:	e50b0008 	str	r0, [fp, #-8]
400084fc:	e3a03000 	mov	r3, #0
40008500:	e50b3004 	str	r3, [fp, #-4]
40008504:	ea00000e 	b	40008544 <skip_atoi+0x58>
40008508:	e51b2004 	ldr	r2, [fp, #-4]
4000850c:	e1a03002 	mov	r3, r2
40008510:	e1a03103 	lsl	r3, r3, #2
40008514:	e0833002 	add	r3, r3, r2
40008518:	e1a03083 	lsl	r3, r3, #1
4000851c:	e1a01003 	mov	r1, r3
40008520:	e51b3008 	ldr	r3, [fp, #-8]
40008524:	e5933000 	ldr	r3, [r3]
40008528:	e5d32000 	ldrb	r2, [r3]
4000852c:	e0812002 	add	r2, r1, r2
40008530:	e2422030 	sub	r2, r2, #48	; 0x30
40008534:	e50b2004 	str	r2, [fp, #-4]
40008538:	e2832001 	add	r2, r3, #1
4000853c:	e51b3008 	ldr	r3, [fp, #-8]
40008540:	e5832000 	str	r2, [r3]
40008544:	e51b3008 	ldr	r3, [fp, #-8]
40008548:	e5933000 	ldr	r3, [r3]
4000854c:	e5d33000 	ldrb	r3, [r3]
40008550:	e353002f 	cmp	r3, #47	; 0x2f
40008554:	9a000004 	bls	4000856c <skip_atoi+0x80>
40008558:	e51b3008 	ldr	r3, [fp, #-8]
4000855c:	e5933000 	ldr	r3, [r3]
40008560:	e5d33000 	ldrb	r3, [r3]
40008564:	e3530039 	cmp	r3, #57	; 0x39
40008568:	9affffe6 	bls	40008508 <skip_atoi+0x1c>
4000856c:	e51b3004 	ldr	r3, [fp, #-4]
40008570:	e1a00003 	mov	r0, r3
40008574:	e28bd000 	add	sp, fp, #0
40008578:	e8bd0800 	pop	{fp}
4000857c:	e12fff1e 	bx	lr

40008580 <number>:
40008580:	e92d4800 	push	{fp, lr}
40008584:	e28db004 	add	fp, sp, #4
40008588:	e24dd068 	sub	sp, sp, #104	; 0x68
4000858c:	e50b0060 	str	r0, [fp, #-96]	; 0x60
40008590:	e50b1064 	str	r1, [fp, #-100]	; 0x64
40008594:	e50b2068 	str	r2, [fp, #-104]	; 0x68
40008598:	e50b306c 	str	r3, [fp, #-108]	; 0x6c
4000859c:	e59f346c 	ldr	r3, [pc, #1132]	; 40008a10 <number+0x490>
400085a0:	e50b300c 	str	r3, [fp, #-12]
400085a4:	e59b3008 	ldr	r3, [fp, #8]
400085a8:	e2033040 	and	r3, r3, #64	; 0x40
400085ac:	e3530000 	cmp	r3, #0
400085b0:	0a000001 	beq	400085bc <number+0x3c>
400085b4:	e59f3458 	ldr	r3, [pc, #1112]	; 40008a14 <number+0x494>
400085b8:	e50b300c 	str	r3, [fp, #-12]
400085bc:	e59b3008 	ldr	r3, [fp, #8]
400085c0:	e2033010 	and	r3, r3, #16
400085c4:	e3530000 	cmp	r3, #0
400085c8:	0a000002 	beq	400085d8 <number+0x58>
400085cc:	e59b3008 	ldr	r3, [fp, #8]
400085d0:	e3c33001 	bic	r3, r3, #1
400085d4:	e58b3008 	str	r3, [fp, #8]
400085d8:	e51b3068 	ldr	r3, [fp, #-104]	; 0x68
400085dc:	e3530001 	cmp	r3, #1
400085e0:	9a000002 	bls	400085f0 <number+0x70>
400085e4:	e51b3068 	ldr	r3, [fp, #-104]	; 0x68
400085e8:	e3530024 	cmp	r3, #36	; 0x24
400085ec:	9a000001 	bls	400085f8 <number+0x78>
400085f0:	e3a03000 	mov	r3, #0
400085f4:	ea000101 	b	40008a00 <number+0x480>
400085f8:	e59b3008 	ldr	r3, [fp, #8]
400085fc:	e2033001 	and	r3, r3, #1
40008600:	e20330ff 	and	r3, r3, #255	; 0xff
40008604:	e3530000 	cmp	r3, #0
40008608:	0a000001 	beq	40008614 <number+0x94>
4000860c:	e3a03030 	mov	r3, #48	; 0x30
40008610:	ea000000 	b	40008618 <number+0x98>
40008614:	e3a03020 	mov	r3, #32
40008618:	e54b3011 	strb	r3, [fp, #-17]
4000861c:	e3a03000 	mov	r3, #0
40008620:	e54b3005 	strb	r3, [fp, #-5]
40008624:	e59b3008 	ldr	r3, [fp, #8]
40008628:	e2033002 	and	r3, r3, #2
4000862c:	e3530000 	cmp	r3, #0
40008630:	0a00001e 	beq	400086b0 <number+0x130>
40008634:	e51b3064 	ldr	r3, [fp, #-100]	; 0x64
40008638:	e3530000 	cmp	r3, #0
4000863c:	aa000008 	bge	40008664 <number+0xe4>
40008640:	e3a0302d 	mov	r3, #45	; 0x2d
40008644:	e54b3005 	strb	r3, [fp, #-5]
40008648:	e51b3064 	ldr	r3, [fp, #-100]	; 0x64
4000864c:	e2633000 	rsb	r3, r3, #0
40008650:	e50b3064 	str	r3, [fp, #-100]	; 0x64
40008654:	e51b306c 	ldr	r3, [fp, #-108]	; 0x6c
40008658:	e2433001 	sub	r3, r3, #1
4000865c:	e50b306c 	str	r3, [fp, #-108]	; 0x6c
40008660:	ea000012 	b	400086b0 <number+0x130>
40008664:	e59b3008 	ldr	r3, [fp, #8]
40008668:	e2033004 	and	r3, r3, #4
4000866c:	e3530000 	cmp	r3, #0
40008670:	0a000005 	beq	4000868c <number+0x10c>
40008674:	e3a0302b 	mov	r3, #43	; 0x2b
40008678:	e54b3005 	strb	r3, [fp, #-5]
4000867c:	e51b306c 	ldr	r3, [fp, #-108]	; 0x6c
40008680:	e2433001 	sub	r3, r3, #1
40008684:	e50b306c 	str	r3, [fp, #-108]	; 0x6c
40008688:	ea000008 	b	400086b0 <number+0x130>
4000868c:	e59b3008 	ldr	r3, [fp, #8]
40008690:	e2033008 	and	r3, r3, #8
40008694:	e3530000 	cmp	r3, #0
40008698:	0a000004 	beq	400086b0 <number+0x130>
4000869c:	e3a03020 	mov	r3, #32
400086a0:	e54b3005 	strb	r3, [fp, #-5]
400086a4:	e51b306c 	ldr	r3, [fp, #-108]	; 0x6c
400086a8:	e2433001 	sub	r3, r3, #1
400086ac:	e50b306c 	str	r3, [fp, #-108]	; 0x6c
400086b0:	e59b3008 	ldr	r3, [fp, #8]
400086b4:	e2033020 	and	r3, r3, #32
400086b8:	e3530000 	cmp	r3, #0
400086bc:	0a00000c 	beq	400086f4 <number+0x174>
400086c0:	e51b3068 	ldr	r3, [fp, #-104]	; 0x68
400086c4:	e3530010 	cmp	r3, #16
400086c8:	1a000003 	bne	400086dc <number+0x15c>
400086cc:	e51b306c 	ldr	r3, [fp, #-108]	; 0x6c
400086d0:	e2433002 	sub	r3, r3, #2
400086d4:	e50b306c 	str	r3, [fp, #-108]	; 0x6c
400086d8:	ea000005 	b	400086f4 <number+0x174>
400086dc:	e51b3068 	ldr	r3, [fp, #-104]	; 0x68
400086e0:	e3530008 	cmp	r3, #8
400086e4:	1a000002 	bne	400086f4 <number+0x174>
400086e8:	e51b306c 	ldr	r3, [fp, #-108]	; 0x6c
400086ec:	e2433001 	sub	r3, r3, #1
400086f0:	e50b306c 	str	r3, [fp, #-108]	; 0x6c
400086f4:	e3a03000 	mov	r3, #0
400086f8:	e50b3010 	str	r3, [fp, #-16]
400086fc:	e51b3064 	ldr	r3, [fp, #-100]	; 0x64
40008700:	e3530000 	cmp	r3, #0
40008704:	1a000027 	bne	400087a8 <number+0x228>
40008708:	e3e03057 	mvn	r3, #87	; 0x57
4000870c:	e51b2010 	ldr	r2, [fp, #-16]
40008710:	e24b0004 	sub	r0, fp, #4
40008714:	e0802002 	add	r2, r0, r2
40008718:	e0823003 	add	r3, r2, r3
4000871c:	e3a02030 	mov	r2, #48	; 0x30
40008720:	e5c32000 	strb	r2, [r3]
40008724:	e51b3010 	ldr	r3, [fp, #-16]
40008728:	e2833001 	add	r3, r3, #1
4000872c:	e50b3010 	str	r3, [fp, #-16]
40008730:	ea00001f 	b	400087b4 <number+0x234>
40008734:	e51b2010 	ldr	r2, [fp, #-16]
40008738:	e59b3004 	ldr	r3, [fp, #4]
4000873c:	e1520003 	cmp	r2, r3
40008740:	da000018 	ble	400087a8 <number+0x228>
40008744:	e51b3064 	ldr	r3, [fp, #-100]	; 0x64
40008748:	e1a00003 	mov	r0, r3
4000874c:	e51b1068 	ldr	r1, [fp, #-104]	; 0x68
40008750:	ebfffe9f 	bl	400081d4 <__umodsi3>
40008754:	e1a03000 	mov	r3, r0
40008758:	e50b3018 	str	r3, [fp, #-24]
4000875c:	e51b3064 	ldr	r3, [fp, #-100]	; 0x64
40008760:	e1a00003 	mov	r0, r3
40008764:	e51b1068 	ldr	r1, [fp, #-104]	; 0x68
40008768:	ebfffe74 	bl	40008140 <__udivsi3>
4000876c:	e1a03000 	mov	r3, r0
40008770:	e50b3064 	str	r3, [fp, #-100]	; 0x64
40008774:	e51b3018 	ldr	r3, [fp, #-24]
40008778:	e51b200c 	ldr	r2, [fp, #-12]
4000877c:	e0823003 	add	r3, r2, r3
40008780:	e5d32000 	ldrb	r2, [r3]
40008784:	e3e03057 	mvn	r3, #87	; 0x57
40008788:	e51b1010 	ldr	r1, [fp, #-16]
4000878c:	e24b0004 	sub	r0, fp, #4
40008790:	e0801001 	add	r1, r0, r1
40008794:	e0813003 	add	r3, r1, r3
40008798:	e5c32000 	strb	r2, [r3]
4000879c:	e51b3010 	ldr	r3, [fp, #-16]
400087a0:	e2833001 	add	r3, r3, #1
400087a4:	e50b3010 	str	r3, [fp, #-16]
400087a8:	e51b3064 	ldr	r3, [fp, #-100]	; 0x64
400087ac:	e3530000 	cmp	r3, #0
400087b0:	1affffdf 	bne	40008734 <number+0x1b4>
400087b4:	e51b3010 	ldr	r3, [fp, #-16]
400087b8:	e58b3004 	str	r3, [fp, #4]
400087bc:	e51b206c 	ldr	r2, [fp, #-108]	; 0x6c
400087c0:	e59b3004 	ldr	r3, [fp, #4]
400087c4:	e0633002 	rsb	r3, r3, r2
400087c8:	e50b306c 	str	r3, [fp, #-108]	; 0x6c
400087cc:	e59b3008 	ldr	r3, [fp, #8]
400087d0:	e2033011 	and	r3, r3, #17
400087d4:	e3530000 	cmp	r3, #0
400087d8:	1a000010 	bne	40008820 <number+0x2a0>
400087dc:	ea000005 	b	400087f8 <number+0x278>
400087e0:	e51b3060 	ldr	r3, [fp, #-96]	; 0x60
400087e4:	e3a02020 	mov	r2, #32
400087e8:	e5c32000 	strb	r2, [r3]
400087ec:	e51b3060 	ldr	r3, [fp, #-96]	; 0x60
400087f0:	e2833001 	add	r3, r3, #1
400087f4:	e50b3060 	str	r3, [fp, #-96]	; 0x60
400087f8:	e51b306c 	ldr	r3, [fp, #-108]	; 0x6c
400087fc:	e3530000 	cmp	r3, #0
40008800:	d3a03000 	movle	r3, #0
40008804:	c3a03001 	movgt	r3, #1
40008808:	e20330ff 	and	r3, r3, #255	; 0xff
4000880c:	e51b206c 	ldr	r2, [fp, #-108]	; 0x6c
40008810:	e2422001 	sub	r2, r2, #1
40008814:	e50b206c 	str	r2, [fp, #-108]	; 0x6c
40008818:	e3530000 	cmp	r3, #0
4000881c:	1affffef 	bne	400087e0 <number+0x260>
40008820:	e55b3005 	ldrb	r3, [fp, #-5]
40008824:	e3530000 	cmp	r3, #0
40008828:	0a000005 	beq	40008844 <number+0x2c4>
4000882c:	e51b3060 	ldr	r3, [fp, #-96]	; 0x60
40008830:	e55b2005 	ldrb	r2, [fp, #-5]
40008834:	e5c32000 	strb	r2, [r3]
40008838:	e51b3060 	ldr	r3, [fp, #-96]	; 0x60
4000883c:	e2833001 	add	r3, r3, #1
40008840:	e50b3060 	str	r3, [fp, #-96]	; 0x60
40008844:	e59b3008 	ldr	r3, [fp, #8]
40008848:	e2033020 	and	r3, r3, #32
4000884c:	e3530000 	cmp	r3, #0
40008850:	0a000019 	beq	400088bc <number+0x33c>
40008854:	e51b3068 	ldr	r3, [fp, #-104]	; 0x68
40008858:	e3530008 	cmp	r3, #8
4000885c:	1a000006 	bne	4000887c <number+0x2fc>
40008860:	e51b3060 	ldr	r3, [fp, #-96]	; 0x60
40008864:	e3a02030 	mov	r2, #48	; 0x30
40008868:	e5c32000 	strb	r2, [r3]
4000886c:	e51b3060 	ldr	r3, [fp, #-96]	; 0x60
40008870:	e2833001 	add	r3, r3, #1
40008874:	e50b3060 	str	r3, [fp, #-96]	; 0x60
40008878:	ea00000f 	b	400088bc <number+0x33c>
4000887c:	e51b3068 	ldr	r3, [fp, #-104]	; 0x68
40008880:	e3530010 	cmp	r3, #16
40008884:	1a00000c 	bne	400088bc <number+0x33c>
40008888:	e51b3060 	ldr	r3, [fp, #-96]	; 0x60
4000888c:	e3a02030 	mov	r2, #48	; 0x30
40008890:	e5c32000 	strb	r2, [r3]
40008894:	e51b3060 	ldr	r3, [fp, #-96]	; 0x60
40008898:	e2833001 	add	r3, r3, #1
4000889c:	e50b3060 	str	r3, [fp, #-96]	; 0x60
400088a0:	e51b300c 	ldr	r3, [fp, #-12]
400088a4:	e5d32021 	ldrb	r2, [r3, #33]	; 0x21
400088a8:	e51b3060 	ldr	r3, [fp, #-96]	; 0x60
400088ac:	e5c32000 	strb	r2, [r3]
400088b0:	e51b3060 	ldr	r3, [fp, #-96]	; 0x60
400088b4:	e2833001 	add	r3, r3, #1
400088b8:	e50b3060 	str	r3, [fp, #-96]	; 0x60
400088bc:	e59b3008 	ldr	r3, [fp, #8]
400088c0:	e2033010 	and	r3, r3, #16
400088c4:	e3530000 	cmp	r3, #0
400088c8:	1a000018 	bne	40008930 <number+0x3b0>
400088cc:	ea000005 	b	400088e8 <number+0x368>
400088d0:	e51b3060 	ldr	r3, [fp, #-96]	; 0x60
400088d4:	e55b2011 	ldrb	r2, [fp, #-17]
400088d8:	e5c32000 	strb	r2, [r3]
400088dc:	e51b3060 	ldr	r3, [fp, #-96]	; 0x60
400088e0:	e2833001 	add	r3, r3, #1
400088e4:	e50b3060 	str	r3, [fp, #-96]	; 0x60
400088e8:	e51b306c 	ldr	r3, [fp, #-108]	; 0x6c
400088ec:	e3530000 	cmp	r3, #0
400088f0:	d3a03000 	movle	r3, #0
400088f4:	c3a03001 	movgt	r3, #1
400088f8:	e20330ff 	and	r3, r3, #255	; 0xff
400088fc:	e51b206c 	ldr	r2, [fp, #-108]	; 0x6c
40008900:	e2422001 	sub	r2, r2, #1
40008904:	e50b206c 	str	r2, [fp, #-108]	; 0x6c
40008908:	e3530000 	cmp	r3, #0
4000890c:	1affffef 	bne	400088d0 <number+0x350>
40008910:	ea000006 	b	40008930 <number+0x3b0>
40008914:	e51b3060 	ldr	r3, [fp, #-96]	; 0x60
40008918:	e3a02030 	mov	r2, #48	; 0x30
4000891c:	e5c32000 	strb	r2, [r3]
40008920:	e51b3060 	ldr	r3, [fp, #-96]	; 0x60
40008924:	e2833001 	add	r3, r3, #1
40008928:	e50b3060 	str	r3, [fp, #-96]	; 0x60
4000892c:	ea000000 	b	40008934 <number+0x3b4>
40008930:	e1a00000 	nop			; (mov r0, r0)
40008934:	e59b2004 	ldr	r2, [fp, #4]
40008938:	e51b3010 	ldr	r3, [fp, #-16]
4000893c:	e1520003 	cmp	r2, r3
40008940:	d3a03000 	movle	r3, #0
40008944:	c3a03001 	movgt	r3, #1
40008948:	e20330ff 	and	r3, r3, #255	; 0xff
4000894c:	e59b2004 	ldr	r2, [fp, #4]
40008950:	e2422001 	sub	r2, r2, #1
40008954:	e58b2004 	str	r2, [fp, #4]
40008958:	e3530000 	cmp	r3, #0
4000895c:	1affffec 	bne	40008914 <number+0x394>
40008960:	ea00000a 	b	40008990 <number+0x410>
40008964:	e3e03057 	mvn	r3, #87	; 0x57
40008968:	e51b2010 	ldr	r2, [fp, #-16]
4000896c:	e24b1004 	sub	r1, fp, #4
40008970:	e0812002 	add	r2, r1, r2
40008974:	e0823003 	add	r3, r2, r3
40008978:	e5d32000 	ldrb	r2, [r3]
4000897c:	e51b3060 	ldr	r3, [fp, #-96]	; 0x60
40008980:	e5c32000 	strb	r2, [r3]
40008984:	e51b3060 	ldr	r3, [fp, #-96]	; 0x60
40008988:	e2833001 	add	r3, r3, #1
4000898c:	e50b3060 	str	r3, [fp, #-96]	; 0x60
40008990:	e51b3010 	ldr	r3, [fp, #-16]
40008994:	e3530000 	cmp	r3, #0
40008998:	d3a03000 	movle	r3, #0
4000899c:	c3a03001 	movgt	r3, #1
400089a0:	e20330ff 	and	r3, r3, #255	; 0xff
400089a4:	e51b2010 	ldr	r2, [fp, #-16]
400089a8:	e2422001 	sub	r2, r2, #1
400089ac:	e50b2010 	str	r2, [fp, #-16]
400089b0:	e3530000 	cmp	r3, #0
400089b4:	1affffea 	bne	40008964 <number+0x3e4>
400089b8:	ea000005 	b	400089d4 <number+0x454>
400089bc:	e51b3060 	ldr	r3, [fp, #-96]	; 0x60
400089c0:	e3a02020 	mov	r2, #32
400089c4:	e5c32000 	strb	r2, [r3]
400089c8:	e51b3060 	ldr	r3, [fp, #-96]	; 0x60
400089cc:	e2833001 	add	r3, r3, #1
400089d0:	e50b3060 	str	r3, [fp, #-96]	; 0x60
400089d4:	e51b306c 	ldr	r3, [fp, #-108]	; 0x6c
400089d8:	e3530000 	cmp	r3, #0
400089dc:	d3a03000 	movle	r3, #0
400089e0:	c3a03001 	movgt	r3, #1
400089e4:	e20330ff 	and	r3, r3, #255	; 0xff
400089e8:	e51b206c 	ldr	r2, [fp, #-108]	; 0x6c
400089ec:	e2422001 	sub	r2, r2, #1
400089f0:	e50b206c 	str	r2, [fp, #-108]	; 0x6c
400089f4:	e3530000 	cmp	r3, #0
400089f8:	1affffef 	bne	400089bc <number+0x43c>
400089fc:	e51b3060 	ldr	r3, [fp, #-96]	; 0x60
40008a00:	e1a00003 	mov	r0, r3
40008a04:	e24bd004 	sub	sp, fp, #4
40008a08:	e8bd4800 	pop	{fp, lr}
40008a0c:	e12fff1e 	bx	lr
40008a10:	40009880 	andmi	r9, r0, r0, lsl #17
40008a14:	400098a8 	andmi	r9, r0, r8, lsr #17

40008a18 <strnlen>:
40008a18:	e52db004 	push	{fp}		; (str fp, [sp, #-4]!)
40008a1c:	e28db000 	add	fp, sp, #0
40008a20:	e24dd00c 	sub	sp, sp, #12
40008a24:	e50b0008 	str	r0, [fp, #-8]
40008a28:	e50b100c 	str	r1, [fp, #-12]
40008a2c:	e51b3008 	ldr	r3, [fp, #-8]
40008a30:	e50b3004 	str	r3, [fp, #-4]
40008a34:	ea000002 	b	40008a44 <strnlen+0x2c>
40008a38:	e51b3004 	ldr	r3, [fp, #-4]
40008a3c:	e2833001 	add	r3, r3, #1
40008a40:	e50b3004 	str	r3, [fp, #-4]
40008a44:	e51b300c 	ldr	r3, [fp, #-12]
40008a48:	e3530000 	cmp	r3, #0
40008a4c:	03a03000 	moveq	r3, #0
40008a50:	13a03001 	movne	r3, #1
40008a54:	e20330ff 	and	r3, r3, #255	; 0xff
40008a58:	e51b200c 	ldr	r2, [fp, #-12]
40008a5c:	e2422001 	sub	r2, r2, #1
40008a60:	e50b200c 	str	r2, [fp, #-12]
40008a64:	e3530000 	cmp	r3, #0
40008a68:	0a000003 	beq	40008a7c <strnlen+0x64>
40008a6c:	e51b3004 	ldr	r3, [fp, #-4]
40008a70:	e5d33000 	ldrb	r3, [r3]
40008a74:	e3530000 	cmp	r3, #0
40008a78:	1affffee 	bne	40008a38 <strnlen+0x20>
40008a7c:	e51b2004 	ldr	r2, [fp, #-4]
40008a80:	e51b3008 	ldr	r3, [fp, #-8]
40008a84:	e0633002 	rsb	r3, r3, r2
40008a88:	e1a00003 	mov	r0, r3
40008a8c:	e28bd000 	add	sp, fp, #0
40008a90:	e8bd0800 	pop	{fp}
40008a94:	e12fff1e 	bx	lr

40008a98 <vsprintf>:
40008a98:	e92d4800 	push	{fp, lr}
40008a9c:	e28db004 	add	fp, sp, #4
40008aa0:	e24dd044 	sub	sp, sp, #68	; 0x44
40008aa4:	e50b0038 	str	r0, [fp, #-56]	; 0x38
40008aa8:	e50b103c 	str	r1, [fp, #-60]	; 0x3c
40008aac:	e50b2040 	str	r2, [fp, #-64]	; 0x40
40008ab0:	e51b3038 	ldr	r3, [fp, #-56]	; 0x38
40008ab4:	e50b3014 	str	r3, [fp, #-20]
40008ab8:	ea000235 	b	40009394 <vsprintf+0x8fc>
40008abc:	e51b303c 	ldr	r3, [fp, #-60]	; 0x3c
40008ac0:	e5d33000 	ldrb	r3, [r3]
40008ac4:	e3530025 	cmp	r3, #37	; 0x25
40008ac8:	0a000007 	beq	40008aec <vsprintf+0x54>
40008acc:	e51b303c 	ldr	r3, [fp, #-60]	; 0x3c
40008ad0:	e5d32000 	ldrb	r2, [r3]
40008ad4:	e51b3014 	ldr	r3, [fp, #-20]
40008ad8:	e5c32000 	strb	r2, [r3]
40008adc:	e51b3014 	ldr	r3, [fp, #-20]
40008ae0:	e2833001 	add	r3, r3, #1
40008ae4:	e50b3014 	str	r3, [fp, #-20]
40008ae8:	ea000226 	b	40009388 <vsprintf+0x8f0>
40008aec:	e3a03000 	mov	r3, #0
40008af0:	e50b301c 	str	r3, [fp, #-28]
40008af4:	e51b303c 	ldr	r3, [fp, #-60]	; 0x3c
40008af8:	e2833001 	add	r3, r3, #1
40008afc:	e50b303c 	str	r3, [fp, #-60]	; 0x3c
40008b00:	e51b303c 	ldr	r3, [fp, #-60]	; 0x3c
40008b04:	e5d33000 	ldrb	r3, [r3]
40008b08:	e2433020 	sub	r3, r3, #32
40008b0c:	e3530010 	cmp	r3, #16
40008b10:	979ff103 	ldrls	pc, [pc, r3, lsl #2]
40008b14:	ea000024 	b	40008bac <vsprintf+0x114>
40008b18:	40008b7c 	andmi	r8, r0, ip, ror fp
40008b1c:	40008bac 	andmi	r8, r0, ip, lsr #23
40008b20:	40008bac 	andmi	r8, r0, ip, lsr #23
40008b24:	40008b8c 	andmi	r8, r0, ip, lsl #23
40008b28:	40008bac 	andmi	r8, r0, ip, lsr #23
40008b2c:	40008bac 	andmi	r8, r0, ip, lsr #23
40008b30:	40008bac 	andmi	r8, r0, ip, lsr #23
40008b34:	40008bac 	andmi	r8, r0, ip, lsr #23
40008b38:	40008bac 	andmi	r8, r0, ip, lsr #23
40008b3c:	40008bac 	andmi	r8, r0, ip, lsr #23
40008b40:	40008bac 	andmi	r8, r0, ip, lsr #23
40008b44:	40008b6c 	andmi	r8, r0, ip, ror #22
40008b48:	40008bac 	andmi	r8, r0, ip, lsr #23
40008b4c:	40008b5c 	andmi	r8, r0, ip, asr fp
40008b50:	40008bac 	andmi	r8, r0, ip, lsr #23
40008b54:	40008bac 	andmi	r8, r0, ip, lsr #23
40008b58:	40008b9c 	mulmi	r0, ip, fp
40008b5c:	e51b301c 	ldr	r3, [fp, #-28]
40008b60:	e3833010 	orr	r3, r3, #16
40008b64:	e50b301c 	str	r3, [fp, #-28]
40008b68:	eaffffe1 	b	40008af4 <vsprintf+0x5c>
40008b6c:	e51b301c 	ldr	r3, [fp, #-28]
40008b70:	e3833004 	orr	r3, r3, #4
40008b74:	e50b301c 	str	r3, [fp, #-28]
40008b78:	eaffffdd 	b	40008af4 <vsprintf+0x5c>
40008b7c:	e51b301c 	ldr	r3, [fp, #-28]
40008b80:	e3833008 	orr	r3, r3, #8
40008b84:	e50b301c 	str	r3, [fp, #-28]
40008b88:	eaffffd9 	b	40008af4 <vsprintf+0x5c>
40008b8c:	e51b301c 	ldr	r3, [fp, #-28]
40008b90:	e3833020 	orr	r3, r3, #32
40008b94:	e50b301c 	str	r3, [fp, #-28]
40008b98:	eaffffd5 	b	40008af4 <vsprintf+0x5c>
40008b9c:	e51b301c 	ldr	r3, [fp, #-28]
40008ba0:	e3833001 	orr	r3, r3, #1
40008ba4:	e50b301c 	str	r3, [fp, #-28]
40008ba8:	eaffffd1 	b	40008af4 <vsprintf+0x5c>
40008bac:	e3e03000 	mvn	r3, #0
40008bb0:	e50b3020 	str	r3, [fp, #-32]
40008bb4:	e51b303c 	ldr	r3, [fp, #-60]	; 0x3c
40008bb8:	e5d33000 	ldrb	r3, [r3]
40008bbc:	e353002f 	cmp	r3, #47	; 0x2f
40008bc0:	9a000008 	bls	40008be8 <vsprintf+0x150>
40008bc4:	e51b303c 	ldr	r3, [fp, #-60]	; 0x3c
40008bc8:	e5d33000 	ldrb	r3, [r3]
40008bcc:	e3530039 	cmp	r3, #57	; 0x39
40008bd0:	8a000004 	bhi	40008be8 <vsprintf+0x150>
40008bd4:	e24b303c 	sub	r3, fp, #60	; 0x3c
40008bd8:	e1a00003 	mov	r0, r3
40008bdc:	ebfffe42 	bl	400084ec <skip_atoi>
40008be0:	e50b0020 	str	r0, [fp, #-32]
40008be4:	ea000014 	b	40008c3c <vsprintf+0x1a4>
40008be8:	e51b303c 	ldr	r3, [fp, #-60]	; 0x3c
40008bec:	e5d33000 	ldrb	r3, [r3]
40008bf0:	e353002a 	cmp	r3, #42	; 0x2a
40008bf4:	1a000010 	bne	40008c3c <vsprintf+0x1a4>
40008bf8:	e51b303c 	ldr	r3, [fp, #-60]	; 0x3c
40008bfc:	e2833001 	add	r3, r3, #1
40008c00:	e50b303c 	str	r3, [fp, #-60]	; 0x3c
40008c04:	e51b3040 	ldr	r3, [fp, #-64]	; 0x40
40008c08:	e2832004 	add	r2, r3, #4
40008c0c:	e50b2040 	str	r2, [fp, #-64]	; 0x40
40008c10:	e5933000 	ldr	r3, [r3]
40008c14:	e50b3020 	str	r3, [fp, #-32]
40008c18:	e51b3020 	ldr	r3, [fp, #-32]
40008c1c:	e3530000 	cmp	r3, #0
40008c20:	aa000005 	bge	40008c3c <vsprintf+0x1a4>
40008c24:	e51b3020 	ldr	r3, [fp, #-32]
40008c28:	e2633000 	rsb	r3, r3, #0
40008c2c:	e50b3020 	str	r3, [fp, #-32]
40008c30:	e51b301c 	ldr	r3, [fp, #-28]
40008c34:	e3833010 	orr	r3, r3, #16
40008c38:	e50b301c 	str	r3, [fp, #-28]
40008c3c:	e3e03000 	mvn	r3, #0
40008c40:	e50b3024 	str	r3, [fp, #-36]	; 0x24
40008c44:	e51b303c 	ldr	r3, [fp, #-60]	; 0x3c
40008c48:	e5d33000 	ldrb	r3, [r3]
40008c4c:	e353002e 	cmp	r3, #46	; 0x2e
40008c50:	1a000020 	bne	40008cd8 <vsprintf+0x240>
40008c54:	e51b303c 	ldr	r3, [fp, #-60]	; 0x3c
40008c58:	e2833001 	add	r3, r3, #1
40008c5c:	e50b303c 	str	r3, [fp, #-60]	; 0x3c
40008c60:	e51b303c 	ldr	r3, [fp, #-60]	; 0x3c
40008c64:	e5d33000 	ldrb	r3, [r3]
40008c68:	e353002f 	cmp	r3, #47	; 0x2f
40008c6c:	9a000008 	bls	40008c94 <vsprintf+0x1fc>
40008c70:	e51b303c 	ldr	r3, [fp, #-60]	; 0x3c
40008c74:	e5d33000 	ldrb	r3, [r3]
40008c78:	e3530039 	cmp	r3, #57	; 0x39
40008c7c:	8a000004 	bhi	40008c94 <vsprintf+0x1fc>
40008c80:	e24b303c 	sub	r3, fp, #60	; 0x3c
40008c84:	e1a00003 	mov	r0, r3
40008c88:	ebfffe17 	bl	400084ec <skip_atoi>
40008c8c:	e50b0024 	str	r0, [fp, #-36]	; 0x24
40008c90:	ea00000b 	b	40008cc4 <vsprintf+0x22c>
40008c94:	e51b303c 	ldr	r3, [fp, #-60]	; 0x3c
40008c98:	e5d33000 	ldrb	r3, [r3]
40008c9c:	e353002a 	cmp	r3, #42	; 0x2a
40008ca0:	1a000007 	bne	40008cc4 <vsprintf+0x22c>
40008ca4:	e51b303c 	ldr	r3, [fp, #-60]	; 0x3c
40008ca8:	e2833001 	add	r3, r3, #1
40008cac:	e50b303c 	str	r3, [fp, #-60]	; 0x3c
40008cb0:	e51b3040 	ldr	r3, [fp, #-64]	; 0x40
40008cb4:	e2832004 	add	r2, r3, #4
40008cb8:	e50b2040 	str	r2, [fp, #-64]	; 0x40
40008cbc:	e5933000 	ldr	r3, [r3]
40008cc0:	e50b3024 	str	r3, [fp, #-36]	; 0x24
40008cc4:	e51b3024 	ldr	r3, [fp, #-36]	; 0x24
40008cc8:	e3530000 	cmp	r3, #0
40008ccc:	aa000001 	bge	40008cd8 <vsprintf+0x240>
40008cd0:	e3a03000 	mov	r3, #0
40008cd4:	e50b3024 	str	r3, [fp, #-36]	; 0x24
40008cd8:	e3e03000 	mvn	r3, #0
40008cdc:	e50b3028 	str	r3, [fp, #-40]	; 0x28
40008ce0:	e51b303c 	ldr	r3, [fp, #-60]	; 0x3c
40008ce4:	e5d33000 	ldrb	r3, [r3]
40008ce8:	e3530068 	cmp	r3, #104	; 0x68
40008cec:	0a000017 	beq	40008d50 <vsprintf+0x2b8>
40008cf0:	e51b303c 	ldr	r3, [fp, #-60]	; 0x3c
40008cf4:	e5d33000 	ldrb	r3, [r3]
40008cf8:	e353006c 	cmp	r3, #108	; 0x6c
40008cfc:	0a000013 	beq	40008d50 <vsprintf+0x2b8>
40008d00:	e51b303c 	ldr	r3, [fp, #-60]	; 0x3c
40008d04:	e5d33000 	ldrb	r3, [r3]
40008d08:	e353004c 	cmp	r3, #76	; 0x4c
40008d0c:	0a00000f 	beq	40008d50 <vsprintf+0x2b8>
40008d10:	e51b303c 	ldr	r3, [fp, #-60]	; 0x3c
40008d14:	e5d33000 	ldrb	r3, [r3]
40008d18:	e353005a 	cmp	r3, #90	; 0x5a
40008d1c:	0a00000b 	beq	40008d50 <vsprintf+0x2b8>
40008d20:	e51b303c 	ldr	r3, [fp, #-60]	; 0x3c
40008d24:	e5d33000 	ldrb	r3, [r3]
40008d28:	e353007a 	cmp	r3, #122	; 0x7a
40008d2c:	0a000007 	beq	40008d50 <vsprintf+0x2b8>
40008d30:	e51b303c 	ldr	r3, [fp, #-60]	; 0x3c
40008d34:	e5d33000 	ldrb	r3, [r3]
40008d38:	e3530074 	cmp	r3, #116	; 0x74
40008d3c:	0a000003 	beq	40008d50 <vsprintf+0x2b8>
40008d40:	e51b303c 	ldr	r3, [fp, #-60]	; 0x3c
40008d44:	e5d33000 	ldrb	r3, [r3]
40008d48:	e3530071 	cmp	r3, #113	; 0x71
40008d4c:	1a000012 	bne	40008d9c <vsprintf+0x304>
40008d50:	e51b303c 	ldr	r3, [fp, #-60]	; 0x3c
40008d54:	e5d33000 	ldrb	r3, [r3]
40008d58:	e50b3028 	str	r3, [fp, #-40]	; 0x28
40008d5c:	e51b3028 	ldr	r3, [fp, #-40]	; 0x28
40008d60:	e353006c 	cmp	r3, #108	; 0x6c
40008d64:	1a000009 	bne	40008d90 <vsprintf+0x2f8>
40008d68:	e51b303c 	ldr	r3, [fp, #-60]	; 0x3c
40008d6c:	e2833001 	add	r3, r3, #1
40008d70:	e5d33000 	ldrb	r3, [r3]
40008d74:	e353006c 	cmp	r3, #108	; 0x6c
40008d78:	1a000004 	bne	40008d90 <vsprintf+0x2f8>
40008d7c:	e3a03071 	mov	r3, #113	; 0x71
40008d80:	e50b3028 	str	r3, [fp, #-40]	; 0x28
40008d84:	e51b303c 	ldr	r3, [fp, #-60]	; 0x3c
40008d88:	e2833001 	add	r3, r3, #1
40008d8c:	e50b303c 	str	r3, [fp, #-60]	; 0x3c
40008d90:	e51b303c 	ldr	r3, [fp, #-60]	; 0x3c
40008d94:	e2833001 	add	r3, r3, #1
40008d98:	e50b303c 	str	r3, [fp, #-60]	; 0x3c
40008d9c:	e3a0300a 	mov	r3, #10
40008da0:	e50b3010 	str	r3, [fp, #-16]
40008da4:	e51b303c 	ldr	r3, [fp, #-60]	; 0x3c
40008da8:	e5d33000 	ldrb	r3, [r3]
40008dac:	e2433025 	sub	r3, r3, #37	; 0x25
40008db0:	e3530053 	cmp	r3, #83	; 0x53
40008db4:	979ff103 	ldrls	pc, [pc, r3, lsl #2]
40008db8:	ea00010d 	b	400091f4 <vsprintf+0x75c>
40008dbc:	400091a4 	andmi	r9, r0, r4, lsr #3
40008dc0:	400091f4 	strdmi	r9, [r0], -r4
40008dc4:	400091f4 	strdmi	r9, [r0], -r4
40008dc8:	400091f4 	strdmi	r9, [r0], -r4
40008dcc:	400091f4 	strdmi	r9, [r0], -r4
40008dd0:	400091f4 	strdmi	r9, [r0], -r4
40008dd4:	400091f4 	strdmi	r9, [r0], -r4
40008dd8:	400091f4 	strdmi	r9, [r0], -r4
40008ddc:	400091f4 	strdmi	r9, [r0], -r4
40008de0:	400091f4 	strdmi	r9, [r0], -r4
40008de4:	400091f4 	strdmi	r9, [r0], -r4
40008de8:	400091f4 	strdmi	r9, [r0], -r4
40008dec:	400091f4 	strdmi	r9, [r0], -r4
40008df0:	400091f4 	strdmi	r9, [r0], -r4
40008df4:	400091f4 	strdmi	r9, [r0], -r4
40008df8:	400091f4 	strdmi	r9, [r0], -r4
40008dfc:	400091f4 	strdmi	r9, [r0], -r4
40008e00:	400091f4 	strdmi	r9, [r0], -r4
40008e04:	400091f4 	strdmi	r9, [r0], -r4
40008e08:	400091f4 	strdmi	r9, [r0], -r4
40008e0c:	400091f4 	strdmi	r9, [r0], -r4
40008e10:	400091f4 	strdmi	r9, [r0], -r4
40008e14:	400091f4 	strdmi	r9, [r0], -r4
40008e18:	400091f4 	strdmi	r9, [r0], -r4
40008e1c:	400091f4 	strdmi	r9, [r0], -r4
40008e20:	400091f4 	strdmi	r9, [r0], -r4
40008e24:	400091f4 	strdmi	r9, [r0], -r4
40008e28:	400091f4 	strdmi	r9, [r0], -r4
40008e2c:	400091f4 	strdmi	r9, [r0], -r4
40008e30:	400091f4 	strdmi	r9, [r0], -r4
40008e34:	400091f4 	strdmi	r9, [r0], -r4
40008e38:	400091f4 	strdmi	r9, [r0], -r4
40008e3c:	400091f4 	strdmi	r9, [r0], -r4
40008e40:	400091f4 	strdmi	r9, [r0], -r4
40008e44:	400091f4 	strdmi	r9, [r0], -r4
40008e48:	400091f4 	strdmi	r9, [r0], -r4
40008e4c:	400091f4 	strdmi	r9, [r0], -r4
40008e50:	400091f4 	strdmi	r9, [r0], -r4
40008e54:	400091f4 	strdmi	r9, [r0], -r4
40008e58:	400091f4 	strdmi	r9, [r0], -r4
40008e5c:	400091f4 	strdmi	r9, [r0], -r4
40008e60:	400091f4 	strdmi	r9, [r0], -r4
40008e64:	400091f4 	strdmi	r9, [r0], -r4
40008e68:	400091f4 	strdmi	r9, [r0], -r4
40008e6c:	400091f4 	strdmi	r9, [r0], -r4
40008e70:	400091f4 	strdmi	r9, [r0], -r4
40008e74:	400091f4 	strdmi	r9, [r0], -r4
40008e78:	400091f4 	strdmi	r9, [r0], -r4
40008e7c:	400091f4 	strdmi	r9, [r0], -r4
40008e80:	400091f4 	strdmi	r9, [r0], -r4
40008e84:	400091f4 	strdmi	r9, [r0], -r4
40008e88:	400091cc 	andmi	r9, r0, ip, asr #3
40008e8c:	400091f4 	strdmi	r9, [r0], -r4
40008e90:	400091f4 	strdmi	r9, [r0], -r4
40008e94:	400091f4 	strdmi	r9, [r0], -r4
40008e98:	400091f4 	strdmi	r9, [r0], -r4
40008e9c:	400091f4 	strdmi	r9, [r0], -r4
40008ea0:	400091f4 	strdmi	r9, [r0], -r4
40008ea4:	400091f4 	strdmi	r9, [r0], -r4
40008ea8:	400091f4 	strdmi	r9, [r0], -r4
40008eac:	400091f4 	strdmi	r9, [r0], -r4
40008eb0:	400091f4 	strdmi	r9, [r0], -r4
40008eb4:	40008f0c 	andmi	r8, r0, ip, lsl #30
40008eb8:	400091e4 	andmi	r9, r0, r4, ror #3
40008ebc:	400091f4 	strdmi	r9, [r0], -r4
40008ec0:	400091f4 	strdmi	r9, [r0], -r4
40008ec4:	400091f4 	strdmi	r9, [r0], -r4
40008ec8:	400091f4 	strdmi	r9, [r0], -r4
40008ecc:	400091e4 	andmi	r9, r0, r4, ror #3
40008ed0:	400091f4 	strdmi	r9, [r0], -r4
40008ed4:	400091f4 	strdmi	r9, [r0], -r4
40008ed8:	400091f4 	strdmi	r9, [r0], -r4
40008edc:	400091f4 	strdmi	r9, [r0], -r4
40008ee0:	40009140 	andmi	r9, r0, r0, asr #2
40008ee4:	400091c0 	andmi	r9, r0, r0, asr #3
40008ee8:	400090e4 	andmi	r9, r0, r4, ror #1
40008eec:	400091f4 	strdmi	r9, [r0], -r4
40008ef0:	400091f4 	strdmi	r9, [r0], -r4
40008ef4:	40008fb0 			; <UNDEFINED> instruction: 0x40008fb0
40008ef8:	400091f4 	strdmi	r9, [r0], -r4
40008efc:	4000924c 	andmi	r9, r0, ip, asr #4
40008f00:	400091f4 	strdmi	r9, [r0], -r4
40008f04:	400091f4 	strdmi	r9, [r0], -r4
40008f08:	400091d8 	ldrdmi	r9, [r0], -r8
40008f0c:	e51b301c 	ldr	r3, [fp, #-28]
40008f10:	e2033010 	and	r3, r3, #16
40008f14:	e3530000 	cmp	r3, #0
40008f18:	1a00000c 	bne	40008f50 <vsprintf+0x4b8>
40008f1c:	ea000005 	b	40008f38 <vsprintf+0x4a0>
40008f20:	e51b3014 	ldr	r3, [fp, #-20]
40008f24:	e3a02020 	mov	r2, #32
40008f28:	e5c32000 	strb	r2, [r3]
40008f2c:	e51b3014 	ldr	r3, [fp, #-20]
40008f30:	e2833001 	add	r3, r3, #1
40008f34:	e50b3014 	str	r3, [fp, #-20]
40008f38:	e51b3020 	ldr	r3, [fp, #-32]
40008f3c:	e2433001 	sub	r3, r3, #1
40008f40:	e50b3020 	str	r3, [fp, #-32]
40008f44:	e51b3020 	ldr	r3, [fp, #-32]
40008f48:	e3530000 	cmp	r3, #0
40008f4c:	cafffff3 	bgt	40008f20 <vsprintf+0x488>
40008f50:	e51b3040 	ldr	r3, [fp, #-64]	; 0x40
40008f54:	e2832004 	add	r2, r3, #4
40008f58:	e50b2040 	str	r2, [fp, #-64]	; 0x40
40008f5c:	e5933000 	ldr	r3, [r3]
40008f60:	e20320ff 	and	r2, r3, #255	; 0xff
40008f64:	e51b3014 	ldr	r3, [fp, #-20]
40008f68:	e5c32000 	strb	r2, [r3]
40008f6c:	e51b3014 	ldr	r3, [fp, #-20]
40008f70:	e2833001 	add	r3, r3, #1
40008f74:	e50b3014 	str	r3, [fp, #-20]
40008f78:	ea000005 	b	40008f94 <vsprintf+0x4fc>
40008f7c:	e51b3014 	ldr	r3, [fp, #-20]
40008f80:	e3a02020 	mov	r2, #32
40008f84:	e5c32000 	strb	r2, [r3]
40008f88:	e51b3014 	ldr	r3, [fp, #-20]
40008f8c:	e2833001 	add	r3, r3, #1
40008f90:	e50b3014 	str	r3, [fp, #-20]
40008f94:	e51b3020 	ldr	r3, [fp, #-32]
40008f98:	e2433001 	sub	r3, r3, #1
40008f9c:	e50b3020 	str	r3, [fp, #-32]
40008fa0:	e51b3020 	ldr	r3, [fp, #-32]
40008fa4:	e3530000 	cmp	r3, #0
40008fa8:	cafffff3 	bgt	40008f7c <vsprintf+0x4e4>
40008fac:	ea0000f5 	b	40009388 <vsprintf+0x8f0>
40008fb0:	e51b3040 	ldr	r3, [fp, #-64]	; 0x40
40008fb4:	e2832004 	add	r2, r3, #4
40008fb8:	e50b2040 	str	r2, [fp, #-64]	; 0x40
40008fbc:	e5933000 	ldr	r3, [r3]
40008fc0:	e50b3018 	str	r3, [fp, #-24]
40008fc4:	e51b3018 	ldr	r3, [fp, #-24]
40008fc8:	e3530000 	cmp	r3, #0
40008fcc:	1a000001 	bne	40008fd8 <vsprintf+0x540>
40008fd0:	e59f33f4 	ldr	r3, [pc, #1012]	; 400093cc <vsprintf+0x934>
40008fd4:	e50b3018 	str	r3, [fp, #-24]
40008fd8:	e51b3024 	ldr	r3, [fp, #-36]	; 0x24
40008fdc:	e51b0018 	ldr	r0, [fp, #-24]
40008fe0:	e1a01003 	mov	r1, r3
40008fe4:	ebfffe8b 	bl	40008a18 <strnlen>
40008fe8:	e1a03000 	mov	r3, r0
40008fec:	e50b302c 	str	r3, [fp, #-44]	; 0x2c
40008ff0:	e51b301c 	ldr	r3, [fp, #-28]
40008ff4:	e2033010 	and	r3, r3, #16
40008ff8:	e3530000 	cmp	r3, #0
40008ffc:	1a000011 	bne	40009048 <vsprintf+0x5b0>
40009000:	ea000005 	b	4000901c <vsprintf+0x584>
40009004:	e51b3014 	ldr	r3, [fp, #-20]
40009008:	e3a02020 	mov	r2, #32
4000900c:	e5c32000 	strb	r2, [r3]
40009010:	e51b3014 	ldr	r3, [fp, #-20]
40009014:	e2833001 	add	r3, r3, #1
40009018:	e50b3014 	str	r3, [fp, #-20]
4000901c:	e51b2020 	ldr	r2, [fp, #-32]
40009020:	e51b302c 	ldr	r3, [fp, #-44]	; 0x2c
40009024:	e1520003 	cmp	r2, r3
40009028:	d3a03000 	movle	r3, #0
4000902c:	c3a03001 	movgt	r3, #1
40009030:	e20330ff 	and	r3, r3, #255	; 0xff
40009034:	e51b2020 	ldr	r2, [fp, #-32]
40009038:	e2422001 	sub	r2, r2, #1
4000903c:	e50b2020 	str	r2, [fp, #-32]
40009040:	e3530000 	cmp	r3, #0
40009044:	1affffee 	bne	40009004 <vsprintf+0x56c>
40009048:	e3a03000 	mov	r3, #0
4000904c:	e50b300c 	str	r3, [fp, #-12]
40009050:	ea00000c 	b	40009088 <vsprintf+0x5f0>
40009054:	e51b3018 	ldr	r3, [fp, #-24]
40009058:	e5d32000 	ldrb	r2, [r3]
4000905c:	e51b3014 	ldr	r3, [fp, #-20]
40009060:	e5c32000 	strb	r2, [r3]
40009064:	e51b3014 	ldr	r3, [fp, #-20]
40009068:	e2833001 	add	r3, r3, #1
4000906c:	e50b3014 	str	r3, [fp, #-20]
40009070:	e51b3018 	ldr	r3, [fp, #-24]
40009074:	e2833001 	add	r3, r3, #1
40009078:	e50b3018 	str	r3, [fp, #-24]
4000907c:	e51b300c 	ldr	r3, [fp, #-12]
40009080:	e2833001 	add	r3, r3, #1
40009084:	e50b300c 	str	r3, [fp, #-12]
40009088:	e51b200c 	ldr	r2, [fp, #-12]
4000908c:	e51b302c 	ldr	r3, [fp, #-44]	; 0x2c
40009090:	e1520003 	cmp	r2, r3
40009094:	baffffee 	blt	40009054 <vsprintf+0x5bc>
40009098:	ea000005 	b	400090b4 <vsprintf+0x61c>
4000909c:	e51b3014 	ldr	r3, [fp, #-20]
400090a0:	e3a02020 	mov	r2, #32
400090a4:	e5c32000 	strb	r2, [r3]
400090a8:	e51b3014 	ldr	r3, [fp, #-20]
400090ac:	e2833001 	add	r3, r3, #1
400090b0:	e50b3014 	str	r3, [fp, #-20]
400090b4:	e51b2020 	ldr	r2, [fp, #-32]
400090b8:	e51b302c 	ldr	r3, [fp, #-44]	; 0x2c
400090bc:	e1520003 	cmp	r2, r3
400090c0:	d3a03000 	movle	r3, #0
400090c4:	c3a03001 	movgt	r3, #1
400090c8:	e20330ff 	and	r3, r3, #255	; 0xff
400090cc:	e51b2020 	ldr	r2, [fp, #-32]
400090d0:	e2422001 	sub	r2, r2, #1
400090d4:	e50b2020 	str	r2, [fp, #-32]
400090d8:	e3530000 	cmp	r3, #0
400090dc:	1affffee 	bne	4000909c <vsprintf+0x604>
400090e0:	ea0000a8 	b	40009388 <vsprintf+0x8f0>
400090e4:	e51b3020 	ldr	r3, [fp, #-32]
400090e8:	e3730001 	cmn	r3, #1
400090ec:	1a000004 	bne	40009104 <vsprintf+0x66c>
400090f0:	e3a03008 	mov	r3, #8
400090f4:	e50b3020 	str	r3, [fp, #-32]
400090f8:	e51b301c 	ldr	r3, [fp, #-28]
400090fc:	e3833001 	orr	r3, r3, #1
40009100:	e50b301c 	str	r3, [fp, #-28]
40009104:	e51b3040 	ldr	r3, [fp, #-64]	; 0x40
40009108:	e2832004 	add	r2, r3, #4
4000910c:	e50b2040 	str	r2, [fp, #-64]	; 0x40
40009110:	e5933000 	ldr	r3, [r3]
40009114:	e51b2024 	ldr	r2, [fp, #-36]	; 0x24
40009118:	e58d2000 	str	r2, [sp]
4000911c:	e51b201c 	ldr	r2, [fp, #-28]
40009120:	e58d2004 	str	r2, [sp, #4]
40009124:	e51b0014 	ldr	r0, [fp, #-20]
40009128:	e1a01003 	mov	r1, r3
4000912c:	e3a02010 	mov	r2, #16
40009130:	e51b3020 	ldr	r3, [fp, #-32]
40009134:	ebfffd11 	bl	40008580 <number>
40009138:	e50b0014 	str	r0, [fp, #-20]
4000913c:	ea000091 	b	40009388 <vsprintf+0x8f0>
40009140:	e51b3028 	ldr	r3, [fp, #-40]	; 0x28
40009144:	e353006c 	cmp	r3, #108	; 0x6c
40009148:	1a00000a 	bne	40009178 <vsprintf+0x6e0>
4000914c:	e51b3040 	ldr	r3, [fp, #-64]	; 0x40
40009150:	e2832004 	add	r2, r3, #4
40009154:	e50b2040 	str	r2, [fp, #-64]	; 0x40
40009158:	e5933000 	ldr	r3, [r3]
4000915c:	e50b3030 	str	r3, [fp, #-48]	; 0x30
40009160:	e51b2014 	ldr	r2, [fp, #-20]
40009164:	e51b3038 	ldr	r3, [fp, #-56]	; 0x38
40009168:	e0632002 	rsb	r2, r3, r2
4000916c:	e51b3030 	ldr	r3, [fp, #-48]	; 0x30
40009170:	e5832000 	str	r2, [r3]
40009174:	ea000083 	b	40009388 <vsprintf+0x8f0>
40009178:	e51b3040 	ldr	r3, [fp, #-64]	; 0x40
4000917c:	e2832004 	add	r2, r3, #4
40009180:	e50b2040 	str	r2, [fp, #-64]	; 0x40
40009184:	e5933000 	ldr	r3, [r3]
40009188:	e50b3034 	str	r3, [fp, #-52]	; 0x34
4000918c:	e51b2014 	ldr	r2, [fp, #-20]
40009190:	e51b3038 	ldr	r3, [fp, #-56]	; 0x38
40009194:	e0632002 	rsb	r2, r3, r2
40009198:	e51b3034 	ldr	r3, [fp, #-52]	; 0x34
4000919c:	e5832000 	str	r2, [r3]
400091a0:	ea000078 	b	40009388 <vsprintf+0x8f0>
400091a4:	e51b3014 	ldr	r3, [fp, #-20]
400091a8:	e3a02025 	mov	r2, #37	; 0x25
400091ac:	e5c32000 	strb	r2, [r3]
400091b0:	e51b3014 	ldr	r3, [fp, #-20]
400091b4:	e2833001 	add	r3, r3, #1
400091b8:	e50b3014 	str	r3, [fp, #-20]
400091bc:	ea000071 	b	40009388 <vsprintf+0x8f0>
400091c0:	e3a03008 	mov	r3, #8
400091c4:	e50b3010 	str	r3, [fp, #-16]
400091c8:	ea000020 	b	40009250 <vsprintf+0x7b8>
400091cc:	e51b301c 	ldr	r3, [fp, #-28]
400091d0:	e3833040 	orr	r3, r3, #64	; 0x40
400091d4:	e50b301c 	str	r3, [fp, #-28]
400091d8:	e3a03010 	mov	r3, #16
400091dc:	e50b3010 	str	r3, [fp, #-16]
400091e0:	ea00001a 	b	40009250 <vsprintf+0x7b8>
400091e4:	e51b301c 	ldr	r3, [fp, #-28]
400091e8:	e3833002 	orr	r3, r3, #2
400091ec:	e50b301c 	str	r3, [fp, #-28]
400091f0:	ea000015 	b	4000924c <vsprintf+0x7b4>
400091f4:	e51b3014 	ldr	r3, [fp, #-20]
400091f8:	e3a02025 	mov	r2, #37	; 0x25
400091fc:	e5c32000 	strb	r2, [r3]
40009200:	e51b3014 	ldr	r3, [fp, #-20]
40009204:	e2833001 	add	r3, r3, #1
40009208:	e50b3014 	str	r3, [fp, #-20]
4000920c:	e51b303c 	ldr	r3, [fp, #-60]	; 0x3c
40009210:	e5d33000 	ldrb	r3, [r3]
40009214:	e3530000 	cmp	r3, #0
40009218:	0a000007 	beq	4000923c <vsprintf+0x7a4>
4000921c:	e51b303c 	ldr	r3, [fp, #-60]	; 0x3c
40009220:	e5d32000 	ldrb	r2, [r3]
40009224:	e51b3014 	ldr	r3, [fp, #-20]
40009228:	e5c32000 	strb	r2, [r3]
4000922c:	e51b3014 	ldr	r3, [fp, #-20]
40009230:	e2833001 	add	r3, r3, #1
40009234:	e50b3014 	str	r3, [fp, #-20]
40009238:	ea000052 	b	40009388 <vsprintf+0x8f0>
4000923c:	e51b303c 	ldr	r3, [fp, #-60]	; 0x3c
40009240:	e2433001 	sub	r3, r3, #1
40009244:	e50b303c 	str	r3, [fp, #-60]	; 0x3c
40009248:	ea00004e 	b	40009388 <vsprintf+0x8f0>
4000924c:	e1a00000 	nop			; (mov r0, r0)
40009250:	e51b3028 	ldr	r3, [fp, #-40]	; 0x28
40009254:	e353006c 	cmp	r3, #108	; 0x6c
40009258:	1a000005 	bne	40009274 <vsprintf+0x7dc>
4000925c:	e51b3040 	ldr	r3, [fp, #-64]	; 0x40
40009260:	e2832004 	add	r2, r3, #4
40009264:	e50b2040 	str	r2, [fp, #-64]	; 0x40
40009268:	e5933000 	ldr	r3, [r3]
4000926c:	e50b3008 	str	r3, [fp, #-8]
40009270:	ea000038 	b	40009358 <vsprintf+0x8c0>
40009274:	e51b3028 	ldr	r3, [fp, #-40]	; 0x28
40009278:	e353005a 	cmp	r3, #90	; 0x5a
4000927c:	0a000002 	beq	4000928c <vsprintf+0x7f4>
40009280:	e51b3028 	ldr	r3, [fp, #-40]	; 0x28
40009284:	e353007a 	cmp	r3, #122	; 0x7a
40009288:	1a000005 	bne	400092a4 <vsprintf+0x80c>
4000928c:	e51b3040 	ldr	r3, [fp, #-64]	; 0x40
40009290:	e2832004 	add	r2, r3, #4
40009294:	e50b2040 	str	r2, [fp, #-64]	; 0x40
40009298:	e5933000 	ldr	r3, [r3]
4000929c:	e50b3008 	str	r3, [fp, #-8]
400092a0:	ea00002c 	b	40009358 <vsprintf+0x8c0>
400092a4:	e51b3028 	ldr	r3, [fp, #-40]	; 0x28
400092a8:	e3530074 	cmp	r3, #116	; 0x74
400092ac:	1a000005 	bne	400092c8 <vsprintf+0x830>
400092b0:	e51b3040 	ldr	r3, [fp, #-64]	; 0x40
400092b4:	e2832004 	add	r2, r3, #4
400092b8:	e50b2040 	str	r2, [fp, #-64]	; 0x40
400092bc:	e5933000 	ldr	r3, [r3]
400092c0:	e50b3008 	str	r3, [fp, #-8]
400092c4:	ea000023 	b	40009358 <vsprintf+0x8c0>
400092c8:	e51b3028 	ldr	r3, [fp, #-40]	; 0x28
400092cc:	e3530068 	cmp	r3, #104	; 0x68
400092d0:	1a000011 	bne	4000931c <vsprintf+0x884>
400092d4:	e51b3040 	ldr	r3, [fp, #-64]	; 0x40
400092d8:	e2832004 	add	r2, r3, #4
400092dc:	e50b2040 	str	r2, [fp, #-64]	; 0x40
400092e0:	e5933000 	ldr	r3, [r3]
400092e4:	e1a03803 	lsl	r3, r3, #16
400092e8:	e1a03823 	lsr	r3, r3, #16
400092ec:	e50b3008 	str	r3, [fp, #-8]
400092f0:	e51b301c 	ldr	r3, [fp, #-28]
400092f4:	e2033002 	and	r3, r3, #2
400092f8:	e3530000 	cmp	r3, #0
400092fc:	0a000015 	beq	40009358 <vsprintf+0x8c0>
40009300:	e51b3008 	ldr	r3, [fp, #-8]
40009304:	e1a03803 	lsl	r3, r3, #16
40009308:	e1a03823 	lsr	r3, r3, #16
4000930c:	e1a03803 	lsl	r3, r3, #16
40009310:	e1a03843 	asr	r3, r3, #16
40009314:	e50b3008 	str	r3, [fp, #-8]
40009318:	ea00000e 	b	40009358 <vsprintf+0x8c0>
4000931c:	e51b301c 	ldr	r3, [fp, #-28]
40009320:	e2033002 	and	r3, r3, #2
40009324:	e3530000 	cmp	r3, #0
40009328:	0a000005 	beq	40009344 <vsprintf+0x8ac>
4000932c:	e51b3040 	ldr	r3, [fp, #-64]	; 0x40
40009330:	e2832004 	add	r2, r3, #4
40009334:	e50b2040 	str	r2, [fp, #-64]	; 0x40
40009338:	e5933000 	ldr	r3, [r3]
4000933c:	e50b3008 	str	r3, [fp, #-8]
40009340:	ea000004 	b	40009358 <vsprintf+0x8c0>
40009344:	e51b3040 	ldr	r3, [fp, #-64]	; 0x40
40009348:	e2832004 	add	r2, r3, #4
4000934c:	e50b2040 	str	r2, [fp, #-64]	; 0x40
40009350:	e5933000 	ldr	r3, [r3]
40009354:	e50b3008 	str	r3, [fp, #-8]
40009358:	e51b2008 	ldr	r2, [fp, #-8]
4000935c:	e51b3010 	ldr	r3, [fp, #-16]
40009360:	e51b1024 	ldr	r1, [fp, #-36]	; 0x24
40009364:	e58d1000 	str	r1, [sp]
40009368:	e51b101c 	ldr	r1, [fp, #-28]
4000936c:	e58d1004 	str	r1, [sp, #4]
40009370:	e51b0014 	ldr	r0, [fp, #-20]
40009374:	e1a01002 	mov	r1, r2
40009378:	e1a02003 	mov	r2, r3
4000937c:	e51b3020 	ldr	r3, [fp, #-32]
40009380:	ebfffc7e 	bl	40008580 <number>
40009384:	e50b0014 	str	r0, [fp, #-20]
40009388:	e51b303c 	ldr	r3, [fp, #-60]	; 0x3c
4000938c:	e2833001 	add	r3, r3, #1
40009390:	e50b303c 	str	r3, [fp, #-60]	; 0x3c
40009394:	e51b303c 	ldr	r3, [fp, #-60]	; 0x3c
40009398:	e5d33000 	ldrb	r3, [r3]
4000939c:	e3530000 	cmp	r3, #0
400093a0:	1afffdc5 	bne	40008abc <vsprintf+0x24>
400093a4:	e51b3014 	ldr	r3, [fp, #-20]
400093a8:	e3a02000 	mov	r2, #0
400093ac:	e5c32000 	strb	r2, [r3]
400093b0:	e51b2014 	ldr	r2, [fp, #-20]
400093b4:	e51b3038 	ldr	r3, [fp, #-56]	; 0x38
400093b8:	e0633002 	rsb	r3, r3, r2
400093bc:	e1a00003 	mov	r0, r3
400093c0:	e24bd004 	sub	sp, fp, #4
400093c4:	e8bd4800 	pop	{fp, lr}
400093c8:	e12fff1e 	bx	lr
400093cc:	400098d0 	ldrdmi	r9, [r0], -r0

400093d0 <sprintf>:
400093d0:	e92d000e 	push	{r1, r2, r3}
400093d4:	e92d4800 	push	{fp, lr}
400093d8:	e28db004 	add	fp, sp, #4
400093dc:	e24dd00c 	sub	sp, sp, #12
400093e0:	e50b0010 	str	r0, [fp, #-16]
400093e4:	e28b2008 	add	r2, fp, #8
400093e8:	e24b300c 	sub	r3, fp, #12
400093ec:	e5832000 	str	r2, [r3]
400093f0:	e51b300c 	ldr	r3, [fp, #-12]
400093f4:	e51b0010 	ldr	r0, [fp, #-16]
400093f8:	e59b1004 	ldr	r1, [fp, #4]
400093fc:	e1a02003 	mov	r2, r3
40009400:	ebfffda4 	bl	40008a98 <vsprintf>
40009404:	e50b0008 	str	r0, [fp, #-8]
40009408:	e51b3008 	ldr	r3, [fp, #-8]
4000940c:	e1a00003 	mov	r0, r3
40009410:	e24bd004 	sub	sp, fp, #4
40009414:	e8bd4800 	pop	{fp, lr}
40009418:	e28dd00c 	add	sp, sp, #12
4000941c:	e12fff1e 	bx	lr

40009420 <printf>:
40009420:	e92d000f 	push	{r0, r1, r2, r3}
40009424:	e92d4800 	push	{fp, lr}
40009428:	e28db004 	add	fp, sp, #4
4000942c:	e24dd06c 	sub	sp, sp, #108	; 0x6c
40009430:	e28b2008 	add	r2, fp, #8
40009434:	e24b300c 	sub	r3, fp, #12
40009438:	e5832000 	str	r2, [r3]
4000943c:	e51b300c 	ldr	r3, [fp, #-12]
40009440:	e24b2070 	sub	r2, fp, #112	; 0x70
40009444:	e1a00002 	mov	r0, r2
40009448:	e59b1004 	ldr	r1, [fp, #4]
4000944c:	e1a02003 	mov	r2, r3
40009450:	ebfffd90 	bl	40008a98 <vsprintf>
40009454:	e1a03000 	mov	r3, r0
40009458:	e50b3008 	str	r3, [fp, #-8]
4000945c:	e24b3070 	sub	r3, fp, #112	; 0x70
40009460:	e1a00003 	mov	r0, r3
40009464:	eb000033 	bl	40009538 <puts>
40009468:	e24bd004 	sub	sp, fp, #4
4000946c:	e8bd4800 	pop	{fp, lr}
40009470:	e28dd010 	add	sp, sp, #16
40009474:	e12fff1e 	bx	lr

40009478 <uart_init>:
40009478:	e52db004 	push	{fp}		; (str fp, [sp, #-4]!)
4000947c:	e28db000 	add	fp, sp, #0
40009480:	e59f304c 	ldr	r3, [pc, #76]	; 400094d4 <uart_init+0x5c>
40009484:	e59f2048 	ldr	r2, [pc, #72]	; 400094d4 <uart_init+0x5c>
40009488:	e5922000 	ldr	r2, [r2]
4000948c:	e3c220ff 	bic	r2, r2, #255	; 0xff
40009490:	e3822022 	orr	r2, r2, #34	; 0x22
40009494:	e5832000 	str	r2, [r3]
40009498:	e59f3038 	ldr	r3, [pc, #56]	; 400094d8 <uart_init+0x60>
4000949c:	e3a02003 	mov	r2, #3
400094a0:	e5832000 	str	r2, [r3]
400094a4:	e59f302c 	ldr	r3, [pc, #44]	; 400094d8 <uart_init+0x60>
400094a8:	e3a02005 	mov	r2, #5
400094ac:	e5832004 	str	r2, [r3, #4]
400094b0:	e59f3020 	ldr	r3, [pc, #32]	; 400094d8 <uart_init+0x60>
400094b4:	e3a02035 	mov	r2, #53	; 0x35
400094b8:	e5832028 	str	r2, [r3, #40]	; 0x28
400094bc:	e59f3014 	ldr	r3, [pc, #20]	; 400094d8 <uart_init+0x60>
400094c0:	e3a02005 	mov	r2, #5
400094c4:	e583202c 	str	r2, [r3, #44]	; 0x2c
400094c8:	e28bd000 	add	sp, fp, #0
400094cc:	e8bd0800 	pop	{fp}
400094d0:	e12fff1e 	bx	lr
400094d4:	11400020 	cmpne	r0, r0, lsr #32
400094d8:	13820000 	orrne	r0, r2, #0

400094dc <putc>:
400094dc:	e92d4800 	push	{fp, lr}
400094e0:	e28db004 	add	fp, sp, #4
400094e4:	e24dd004 	sub	sp, sp, #4
400094e8:	e1a03000 	mov	r3, r0
400094ec:	e54b3008 	strb	r3, [fp, #-8]
400094f0:	e1a00000 	nop			; (mov r0, r0)
400094f4:	e59f3038 	ldr	r3, [pc, #56]	; 40009534 <putc+0x58>
400094f8:	e5933010 	ldr	r3, [r3, #16]
400094fc:	e2033002 	and	r3, r3, #2
40009500:	e3530000 	cmp	r3, #0
40009504:	0afffffa 	beq	400094f4 <putc+0x18>
40009508:	e59f3024 	ldr	r3, [pc, #36]	; 40009534 <putc+0x58>
4000950c:	e55b2008 	ldrb	r2, [fp, #-8]
40009510:	e5832020 	str	r2, [r3, #32]
40009514:	e55b3008 	ldrb	r3, [fp, #-8]
40009518:	e353000a 	cmp	r3, #10
4000951c:	1a000001 	bne	40009528 <putc+0x4c>
40009520:	e3a0000d 	mov	r0, #13
40009524:	ebffffec 	bl	400094dc <putc>
40009528:	e24bd004 	sub	sp, fp, #4
4000952c:	e8bd4800 	pop	{fp, lr}
40009530:	e12fff1e 	bx	lr
40009534:	13820000 	orrne	r0, r2, #0

40009538 <puts>:
40009538:	e92d4800 	push	{fp, lr}
4000953c:	e28db004 	add	fp, sp, #4
40009540:	e24dd004 	sub	sp, sp, #4
40009544:	e50b0008 	str	r0, [fp, #-8]
40009548:	ea000006 	b	40009568 <puts+0x30>
4000954c:	e51b3008 	ldr	r3, [fp, #-8]
40009550:	e5d33000 	ldrb	r3, [r3]
40009554:	e51b2008 	ldr	r2, [fp, #-8]
40009558:	e2822001 	add	r2, r2, #1
4000955c:	e50b2008 	str	r2, [fp, #-8]
40009560:	e1a00003 	mov	r0, r3
40009564:	ebffffdc 	bl	400094dc <putc>
40009568:	e51b3008 	ldr	r3, [fp, #-8]
4000956c:	e5d33000 	ldrb	r3, [r3]
40009570:	e3530000 	cmp	r3, #0
40009574:	1afffff4 	bne	4000954c <puts+0x14>
40009578:	e24bd004 	sub	sp, fp, #4
4000957c:	e8bd4800 	pop	{fp, lr}
40009580:	e12fff1e 	bx	lr

40009584 <Dealy_Ms>:
40009584:	e52db004 	push	{fp}		; (str fp, [sp, #-4]!)
40009588:	e28db000 	add	fp, sp, #0
4000958c:	e24dd00c 	sub	sp, sp, #12
40009590:	e50b000c 	str	r0, [fp, #-12]
40009594:	e3a03000 	mov	r3, #0
40009598:	e50b3004 	str	r3, [fp, #-4]
4000959c:	ea00000c 	b	400095d4 <Dealy_Ms+0x50>
400095a0:	e3a03000 	mov	r3, #0
400095a4:	e50b3008 	str	r3, [fp, #-8]
400095a8:	ea000002 	b	400095b8 <Dealy_Ms+0x34>
400095ac:	e51b3008 	ldr	r3, [fp, #-8]
400095b0:	e2833001 	add	r3, r3, #1
400095b4:	e50b3008 	str	r3, [fp, #-8]
400095b8:	e51b2008 	ldr	r2, [fp, #-8]
400095bc:	e59f302c 	ldr	r3, [pc, #44]	; 400095f0 <Dealy_Ms+0x6c>
400095c0:	e1520003 	cmp	r2, r3
400095c4:	9afffff8 	bls	400095ac <Dealy_Ms+0x28>
400095c8:	e51b3004 	ldr	r3, [fp, #-4]
400095cc:	e2833001 	add	r3, r3, #1
400095d0:	e50b3004 	str	r3, [fp, #-4]
400095d4:	e51b2004 	ldr	r2, [fp, #-4]
400095d8:	e51b300c 	ldr	r3, [fp, #-12]
400095dc:	e1520003 	cmp	r2, r3
400095e0:	3affffee 	bcc	400095a0 <Dealy_Ms+0x1c>
400095e4:	e28bd000 	add	sp, fp, #0
400095e8:	e8bd0800 	pop	{fp}
400095ec:	e12fff1e 	bx	lr
400095f0:	000009c3 	andeq	r0, r0, r3, asr #19

400095f4 <UART_INIT>:
400095f4:	e52db004 	push	{fp}		; (str fp, [sp, #-4]!)
400095f8:	e28db000 	add	fp, sp, #0
400095fc:	e59f3080 	ldr	r3, [pc, #128]	; 40009684 <UART_INIT+0x90>
40009600:	e59f207c 	ldr	r2, [pc, #124]	; 40009684 <UART_INIT+0x90>
40009604:	e5922000 	ldr	r2, [r2]
40009608:	e3c220ff 	bic	r2, r2, #255	; 0xff
4000960c:	e3822022 	orr	r2, r2, #34	; 0x22
40009610:	e5832000 	str	r2, [r3]
40009614:	e59f306c 	ldr	r3, [pc, #108]	; 40009688 <UART_INIT+0x94>
40009618:	e59f2068 	ldr	r2, [pc, #104]	; 40009688 <UART_INIT+0x94>
4000961c:	e5922000 	ldr	r2, [r2]
40009620:	e3c2207f 	bic	r2, r2, #127	; 0x7f
40009624:	e3822003 	orr	r2, r2, #3
40009628:	e5832000 	str	r2, [r3]
4000962c:	e59f3054 	ldr	r3, [pc, #84]	; 40009688 <UART_INIT+0x94>
40009630:	e59f2050 	ldr	r2, [pc, #80]	; 40009688 <UART_INIT+0x94>
40009634:	e5922004 	ldr	r2, [r2, #4]
40009638:	e3c2200f 	bic	r2, r2, #15
4000963c:	e3822005 	orr	r2, r2, #5
40009640:	e5832004 	str	r2, [r3, #4]
40009644:	e59f203c 	ldr	r2, [pc, #60]	; 40009688 <UART_INIT+0x94>
40009648:	e59f3038 	ldr	r3, [pc, #56]	; 40009688 <UART_INIT+0x94>
4000964c:	e5933028 	ldr	r3, [r3, #40]	; 0x28
40009650:	e1a03823 	lsr	r3, r3, #16
40009654:	e1a03803 	lsl	r3, r3, #16
40009658:	e3833035 	orr	r3, r3, #53	; 0x35
4000965c:	e5823028 	str	r3, [r2, #40]	; 0x28
40009660:	e59f3020 	ldr	r3, [pc, #32]	; 40009688 <UART_INIT+0x94>
40009664:	e59f201c 	ldr	r2, [pc, #28]	; 40009688 <UART_INIT+0x94>
40009668:	e592202c 	ldr	r2, [r2, #44]	; 0x2c
4000966c:	e3c2200f 	bic	r2, r2, #15
40009670:	e3822005 	orr	r2, r2, #5
40009674:	e583202c 	str	r2, [r3, #44]	; 0x2c
40009678:	e28bd000 	add	sp, fp, #0
4000967c:	e8bd0800 	pop	{fp}
40009680:	e12fff1e 	bx	lr
40009684:	11400020 	cmpne	r0, r0, lsr #32
40009688:	13820000 	orrne	r0, r2, #0

4000968c <UART_SEND_BYTE>:
4000968c:	e92d4800 	push	{fp, lr}
40009690:	e28db004 	add	fp, sp, #4
40009694:	e24dd004 	sub	sp, sp, #4
40009698:	e1a03000 	mov	r3, r0
4000969c:	e54b3008 	strb	r3, [fp, #-8]
400096a0:	e1a00000 	nop			; (mov r0, r0)
400096a4:	e59f3038 	ldr	r3, [pc, #56]	; 400096e4 <UART_SEND_BYTE+0x58>
400096a8:	e5933010 	ldr	r3, [r3, #16]
400096ac:	e2033002 	and	r3, r3, #2
400096b0:	e3530000 	cmp	r3, #0
400096b4:	0afffffa 	beq	400096a4 <UART_SEND_BYTE+0x18>
400096b8:	e59f3024 	ldr	r3, [pc, #36]	; 400096e4 <UART_SEND_BYTE+0x58>
400096bc:	e55b2008 	ldrb	r2, [fp, #-8]
400096c0:	e5832020 	str	r2, [r3, #32]
400096c4:	e55b3008 	ldrb	r3, [fp, #-8]
400096c8:	e353000a 	cmp	r3, #10
400096cc:	1a000001 	bne	400096d8 <UART_SEND_BYTE+0x4c>
400096d0:	e3a0000d 	mov	r0, #13
400096d4:	ebffffec 	bl	4000968c <UART_SEND_BYTE>
400096d8:	e24bd004 	sub	sp, fp, #4
400096dc:	e8bd4800 	pop	{fp, lr}
400096e0:	e12fff1e 	bx	lr
400096e4:	13820000 	orrne	r0, r2, #0

400096e8 <UART_SEND_STR>:
400096e8:	e92d4800 	push	{fp, lr}
400096ec:	e28db004 	add	fp, sp, #4
400096f0:	e24dd004 	sub	sp, sp, #4
400096f4:	e50b0008 	str	r0, [fp, #-8]
400096f8:	ea000006 	b	40009718 <UART_SEND_STR+0x30>
400096fc:	e51b3008 	ldr	r3, [fp, #-8]
40009700:	e5d33000 	ldrb	r3, [r3]
40009704:	e51b2008 	ldr	r2, [fp, #-8]
40009708:	e2822001 	add	r2, r2, #1
4000970c:	e50b2008 	str	r2, [fp, #-8]
40009710:	e1a00003 	mov	r0, r3
40009714:	ebffffdc 	bl	4000968c <UART_SEND_BYTE>
40009718:	e51b3008 	ldr	r3, [fp, #-8]
4000971c:	e5d33000 	ldrb	r3, [r3]
40009720:	e3530000 	cmp	r3, #0
40009724:	1afffff4 	bne	400096fc <UART_SEND_STR+0x14>
40009728:	e24bd004 	sub	sp, fp, #4
4000972c:	e8bd4800 	pop	{fp, lr}
40009730:	e12fff1e 	bx	lr

40009734 <main>:
40009734:	e92d4800 	push	{fp, lr}
40009738:	e28db004 	add	fp, sp, #4
4000973c:	e24dd004 	sub	sp, sp, #4
40009740:	e59f3130 	ldr	r3, [pc, #304]	; 40009878 <main+0x144>
40009744:	e59f212c 	ldr	r2, [pc, #300]	; 40009878 <main+0x144>
40009748:	e5922000 	ldr	r2, [r2]
4000974c:	e3822001 	orr	r2, r2, #1
40009750:	e5832000 	str	r2, [r3]
40009754:	e59f3120 	ldr	r3, [pc, #288]	; 4000987c <main+0x148>
40009758:	e3a02016 	mov	r2, #22
4000975c:	e5832018 	str	r2, [r3, #24]
40009760:	e59f3114 	ldr	r3, [pc, #276]	; 4000987c <main+0x148>
40009764:	e3a02005 	mov	r2, #5
40009768:	e5832014 	str	r2, [r3, #20]
4000976c:	e59f3108 	ldr	r3, [pc, #264]	; 4000987c <main+0x148>
40009770:	e3a02003 	mov	r2, #3
40009774:	e5832010 	str	r2, [r3, #16]
40009778:	e59f30fc 	ldr	r3, [pc, #252]	; 4000987c <main+0x148>
4000977c:	e3a02025 	mov	r2, #37	; 0x25
40009780:	e583200c 	str	r2, [r3, #12]
40009784:	e59f30f0 	ldr	r3, [pc, #240]	; 4000987c <main+0x148>
40009788:	e3a02016 	mov	r2, #22
4000978c:	e5832008 	str	r2, [r3, #8]
40009790:	e59f30e4 	ldr	r3, [pc, #228]	; 4000987c <main+0x148>
40009794:	e3a02021 	mov	r2, #33	; 0x21
40009798:	e5832004 	str	r2, [r3, #4]
4000979c:	e59f30d8 	ldr	r3, [pc, #216]	; 4000987c <main+0x148>
400097a0:	e3a02000 	mov	r2, #0
400097a4:	e5832000 	str	r2, [r3]
400097a8:	e59f30c8 	ldr	r3, [pc, #200]	; 40009878 <main+0x144>
400097ac:	e59f20c4 	ldr	r2, [pc, #196]	; 40009878 <main+0x144>
400097b0:	e5922000 	ldr	r2, [r2]
400097b4:	e3c22001 	bic	r2, r2, #1
400097b8:	e5832000 	str	r2, [r3]
400097bc:	ebffff8c 	bl	400095f4 <UART_INIT>
400097c0:	ea000000 	b	400097c8 <main+0x94>
400097c4:	e1a00000 	nop			; (mov r0, r0)
400097c8:	e59f30ac 	ldr	r3, [pc, #172]	; 4000987c <main+0x148>
400097cc:	e5932000 	ldr	r2, [r3]
400097d0:	e51b3008 	ldr	r3, [fp, #-8]
400097d4:	e1520003 	cmp	r2, r3
400097d8:	0afffff9 	beq	400097c4 <main+0x90>
400097dc:	e59f3098 	ldr	r3, [pc, #152]	; 4000987c <main+0x148>
400097e0:	e5933018 	ldr	r3, [r3, #24]
400097e4:	e20330ff 	and	r3, r3, #255	; 0xff
400097e8:	e1a00003 	mov	r0, r3
400097ec:	ebffffa6 	bl	4000968c <UART_SEND_BYTE>
400097f0:	e59f3084 	ldr	r3, [pc, #132]	; 4000987c <main+0x148>
400097f4:	e5933014 	ldr	r3, [r3, #20]
400097f8:	e20330ff 	and	r3, r3, #255	; 0xff
400097fc:	e1a00003 	mov	r0, r3
40009800:	ebffffa1 	bl	4000968c <UART_SEND_BYTE>
40009804:	e59f3070 	ldr	r3, [pc, #112]	; 4000987c <main+0x148>
40009808:	e593300c 	ldr	r3, [r3, #12]
4000980c:	e20330ff 	and	r3, r3, #255	; 0xff
40009810:	e1a00003 	mov	r0, r3
40009814:	ebffff9c 	bl	4000968c <UART_SEND_BYTE>
40009818:	e59f305c 	ldr	r3, [pc, #92]	; 4000987c <main+0x148>
4000981c:	e5933010 	ldr	r3, [r3, #16]
40009820:	e20330ff 	and	r3, r3, #255	; 0xff
40009824:	e1a00003 	mov	r0, r3
40009828:	ebffff97 	bl	4000968c <UART_SEND_BYTE>
4000982c:	e59f3048 	ldr	r3, [pc, #72]	; 4000987c <main+0x148>
40009830:	e5933008 	ldr	r3, [r3, #8]
40009834:	e20330ff 	and	r3, r3, #255	; 0xff
40009838:	e1a00003 	mov	r0, r3
4000983c:	ebffff92 	bl	4000968c <UART_SEND_BYTE>
40009840:	e59f3034 	ldr	r3, [pc, #52]	; 4000987c <main+0x148>
40009844:	e5933004 	ldr	r3, [r3, #4]
40009848:	e20330ff 	and	r3, r3, #255	; 0xff
4000984c:	e1a00003 	mov	r0, r3
40009850:	ebffff8d 	bl	4000968c <UART_SEND_BYTE>
40009854:	e59f3020 	ldr	r3, [pc, #32]	; 4000987c <main+0x148>
40009858:	e5933000 	ldr	r3, [r3]
4000985c:	e20330ff 	and	r3, r3, #255	; 0xff
40009860:	e1a00003 	mov	r0, r3
40009864:	ebffff88 	bl	4000968c <UART_SEND_BYTE>
40009868:	e59f300c 	ldr	r3, [pc, #12]	; 4000987c <main+0x148>
4000986c:	e5933000 	ldr	r3, [r3]
40009870:	e50b3008 	str	r3, [fp, #-8]
40009874:	eaffffd2 	b	400097c4 <main+0x90>
40009878:	10070040 	andne	r0, r7, r0, asr #32
4000987c:	10070070 	andne	r0, r7, r0, ror r0

Disassembly of section .rodata:

40009880 <.rodata>:
40009880:	33323130 	teqcc	r2, #12
40009884:	37363534 			; <UNDEFINED> instruction: 0x37363534
40009888:	62613938 	rsbvs	r3, r1, #917504	; 0xe0000
4000988c:	66656463 	strbtvs	r6, [r5], -r3, ror #8
40009890:	6a696867 	bvs	41a63a34 <_ctype+0x1a5995c>
40009894:	6e6d6c6b 	cdpvs	12, 6, cr6, cr13, cr11, {3}
40009898:	7271706f 	rsbsvc	r7, r1, #111	; 0x6f
4000989c:	76757473 			; <UNDEFINED> instruction: 0x76757473
400098a0:	7a797877 	bvc	41e67a84 <_ctype+0x1e5d9ac>
400098a4:	00000000 	andeq	r0, r0, r0
400098a8:	33323130 	teqcc	r2, #12
400098ac:	37363534 			; <UNDEFINED> instruction: 0x37363534
400098b0:	42413938 	submi	r3, r1, #917504	; 0xe0000
400098b4:	46454443 	strbmi	r4, [r5], -r3, asr #8
400098b8:	4a494847 	bmi	4125b9dc <_ctype+0x1251904>
400098bc:	4e4d4c4b 	cdpmi	12, 4, cr4, cr13, cr11, {2}
400098c0:	5251504f 	subspl	r5, r1, #79	; 0x4f
400098c4:	56555453 			; <UNDEFINED> instruction: 0x56555453
400098c8:	5a595857 	bpl	4165fa2c <_ctype+0x1655954>
400098cc:	00000000 	andeq	r0, r0, r0
400098d0:	4c554e3c 	mrrcmi	14, 3, r4, r5, cr12
400098d4:	00003e4c 	andeq	r3, r0, ip, asr #28

Disassembly of section .data:

400098d8 <stack>:
	...

4000a0d8 <_ctype>:
4000a0d8:	08080808 	stmdaeq	r8, {r3, fp}
4000a0dc:	08080808 	stmdaeq	r8, {r3, fp}
4000a0e0:	28282808 	stmdacs	r8!, {r3, fp, sp}
4000a0e4:	08082828 	stmdaeq	r8, {r3, r5, fp, sp}
4000a0e8:	08080808 	stmdaeq	r8, {r3, fp}
4000a0ec:	08080808 	stmdaeq	r8, {r3, fp}
4000a0f0:	08080808 	stmdaeq	r8, {r3, fp}
4000a0f4:	08080808 	stmdaeq	r8, {r3, fp}
4000a0f8:	101010a0 	andsne	r1, r0, r0, lsr #1
4000a0fc:	10101010 	andsne	r1, r0, r0, lsl r0
4000a100:	10101010 	andsne	r1, r0, r0, lsl r0
4000a104:	10101010 	andsne	r1, r0, r0, lsl r0
4000a108:	04040404 	streq	r0, [r4], #-1028	; 0x404
4000a10c:	04040404 	streq	r0, [r4], #-1028	; 0x404
4000a110:	10100404 	andsne	r0, r0, r4, lsl #8
4000a114:	10101010 	andsne	r1, r0, r0, lsl r0
4000a118:	41414110 	cmpmi	r1, r0, lsl r1
4000a11c:	01414141 	cmpeq	r1, r1, asr #2
4000a120:	01010101 	tsteq	r1, r1, lsl #2
4000a124:	01010101 	tsteq	r1, r1, lsl #2
4000a128:	01010101 	tsteq	r1, r1, lsl #2
4000a12c:	01010101 	tsteq	r1, r1, lsl #2
4000a130:	10010101 	andne	r0, r1, r1, lsl #2
4000a134:	10101010 	andsne	r1, r0, r0, lsl r0
4000a138:	42424210 	submi	r4, r2, #1
4000a13c:	02424242 	subeq	r4, r2, #536870916	; 0x20000004
4000a140:	02020202 	andeq	r0, r2, #536870912	; 0x20000000
4000a144:	02020202 	andeq	r0, r2, #536870912	; 0x20000000
4000a148:	02020202 	andeq	r0, r2, #536870912	; 0x20000000
4000a14c:	02020202 	andeq	r0, r2, #536870912	; 0x20000000
4000a150:	10020202 	andne	r0, r2, r2, lsl #4
4000a154:	08101010 	ldmdaeq	r0, {r4, ip}
	...
4000a178:	101010a0 	andsne	r1, r0, r0, lsr #1
4000a17c:	10101010 	andsne	r1, r0, r0, lsl r0
4000a180:	10101010 	andsne	r1, r0, r0, lsl r0
4000a184:	10101010 	andsne	r1, r0, r0, lsl r0
4000a188:	10101010 	andsne	r1, r0, r0, lsl r0
4000a18c:	10101010 	andsne	r1, r0, r0, lsl r0
4000a190:	10101010 	andsne	r1, r0, r0, lsl r0
4000a194:	10101010 	andsne	r1, r0, r0, lsl r0
4000a198:	01010101 	tsteq	r1, r1, lsl #2
4000a19c:	01010101 	tsteq	r1, r1, lsl #2
4000a1a0:	01010101 	tsteq	r1, r1, lsl #2
4000a1a4:	01010101 	tsteq	r1, r1, lsl #2
4000a1a8:	01010101 	tsteq	r1, r1, lsl #2
4000a1ac:	10010101 	andne	r0, r1, r1, lsl #2
4000a1b0:	01010101 	tsteq	r1, r1, lsl #2
4000a1b4:	02010101 	andeq	r0, r1, #1073741824	; 0x40000000
4000a1b8:	02020202 	andeq	r0, r2, #536870912	; 0x20000000
4000a1bc:	02020202 	andeq	r0, r2, #536870912	; 0x20000000
4000a1c0:	02020202 	andeq	r0, r2, #536870912	; 0x20000000
4000a1c4:	02020202 	andeq	r0, r2, #536870912	; 0x20000000
4000a1c8:	02020202 	andeq	r0, r2, #536870912	; 0x20000000
4000a1cc:	10020202 	andne	r0, r2, r2, lsl #4
4000a1d0:	02020202 	andeq	r0, r2, #536870912	; 0x20000000
4000a1d4:	02020202 	andeq	r0, r2, #536870912	; 0x20000000

Disassembly of section .ARM.attributes:

00000000 <.ARM.attributes>:
   0:	00000f41 	andeq	r0, r0, r1, asr #30
   4:	61656100 	cmnvs	r5, r0, lsl #2
   8:	01006962 	tsteq	r0, r2, ror #18
   c:	00000005 	andeq	r0, r0, r5

Disassembly of section .comment:

00000000 <.comment>:
   0:	3a434347 	bcc	10d0d24 <_start-0x3ef372dc>
   4:	4e472820 	cdpmi	8, 4, cr2, cr7, cr0, {1}
   8:	34202955 	strtcc	r2, [r0], #-2389	; 0x955
   c:	322e362e 	eorcc	r3, lr, #48234496	; 0x2e00000
	...

Disassembly of section .debug_line:

00000000 <.debug_line>:
   0:	00000079 	andeq	r0, r0, r9, ror r0
   4:	00240002 	eoreq	r0, r4, r2
   8:	01020000 	mrseq	r0, (UNDEF: 2)
   c:	000d0efb 	strdeq	r0, [sp], -fp
  10:	01010101 	tsteq	r1, r1, lsl #2
  14:	01000000 	mrseq	r0, (UNDEF: 0)
  18:	73010000 	movwvc	r0, #4096	; 0x1000
  1c:	74726174 	ldrbtvc	r6, [r2], #-372	; 0x174
  20:	74730000 	ldrbtvc	r0, [r3]
  24:	2e747261 	cdpcs	2, 7, cr7, cr4, cr1, {3}
  28:	00010053 	andeq	r0, r1, r3, asr r0
  2c:	05000000 	streq	r0, [r0]
  30:	00800002 	addeq	r0, r0, r2
  34:	2f2f1540 	svccs	0x002f1540
  38:	2f2f2f2f 	svccs	0x002f2f2f
  3c:	f20d032f 	vcgt.s8	d0, d13, d31
  40:	2f2f302f 	svccs	0x002f302f
  44:	342f302f 	strtcc	r3, [pc], #-47	; 4c <_start-0x40007fb4>
  48:	2f322f2f 	svccs	0x00322f2f
  4c:	2f2f2f33 	svccs	0x002f2f33
  50:	322f2f2f 	eorcc	r2, pc, #188	; 0xbc
  54:	2f2f2f2f 	svccs	0x002f2f2f
  58:	2f2f2f30 	svccs	0x002f2f30
  5c:	2f2f2f30 	svccs	0x002f2f30
  60:	302f3131 	eorcc	r3, pc, r1, lsr r1	; <UNPREDICTABLE>
  64:	2f302f2f 	svccs	0x00302f2f
  68:	2f2f302f 	svccs	0x002f302f
  6c:	302f2f30 	eorcc	r2, pc, r0, lsr pc	; <UNPREDICTABLE>
  70:	0a03302f 	beq	cc134 <_start-0x3ff3becc>
  74:	2f302f66 	svccs	0x00302f66
  78:	01000c02 	tsteq	r0, r2, lsl #24
  7c:	00006501 	andeq	r6, r0, r1, lsl #10
  80:	2c000200 	sfmcs	f0, 4, [r0], {0}
  84:	02000000 	andeq	r0, r0, #0
  88:	0d0efb01 	vstreq	d15, [lr, #-4]
  8c:	01010100 	mrseq	r0, (UNDEF: 17)
  90:	00000001 	andeq	r0, r0, r1
  94:	01000001 	tsteq	r0, r1
  98:	6d6d6f63 	stclvs	15, cr6, [sp, #-396]!	; 0xfffffe74
  9c:	732f6e6f 	teqvc	pc, #1776	; 0x6f0
  a0:	00006372 	andeq	r6, r0, r2, ror r3
  a4:	6964755f 	stmdbvs	r4!, {r0, r1, r2, r3, r4, r6, r8, sl, ip, sp, lr}^
  a8:	33697376 	cmncc	r9, #-671088639	; 0xd8000001
  ac:	0100532e 	tsteq	r0, lr, lsr #6
  b0:	00000000 	andeq	r0, r0, r0
  b4:	81400205 	cmphi	r0, r5, lsl #4
  b8:	11034000 	mrsne	r4, (UNDEF: 3)
  bc:	2f2f2f01 	svccs	0x002f2f01
  c0:	2f342f2f 	svccs	0x00342f2f
  c4:	322f2f2f 	eorcc	r2, pc, #188	; 0xbc
  c8:	2f2f2f2f 	svccs	0x002f2f2f
  cc:	2f2f2f34 	svccs	0x002f2f34
  d0:	2f2f2f2f 	svccs	0x002f2f2f
  d4:	2f2f2f2f 	svccs	0x002f2f2f
  d8:	2f2f2f2f 	svccs	0x002f2f2f
  dc:	30302f30 	eorscc	r2, r0, r0, lsr pc
  e0:	0002022f 	andeq	r0, r2, pc, lsr #4
  e4:	006c0101 	rsbeq	r0, ip, r1, lsl #2
  e8:	00020000 	andeq	r0, r2, r0
  ec:	0000002c 	andeq	r0, r0, ip, lsr #32
  f0:	0efb0102 	cdpeq	1, 15, cr0, cr11, cr2, {0}
  f4:	0101000d 	tsteq	r1, sp
  f8:	00000101 	andeq	r0, r0, r1, lsl #2
  fc:	00000100 	andeq	r0, r0, r0, lsl #2
 100:	6d6f6301 	stclvs	3, cr6, [pc, #-4]!	; 104 <_start-0x40007efc>
 104:	2f6e6f6d 	svccs	0x006e6f6d
 108:	00637273 	rsbeq	r7, r3, r3, ror r2
 10c:	6d755f00 	ldclvs	15, cr5, [r5]
 110:	6973646f 	ldmdbvs	r3!, {r0, r1, r2, r3, r5, r6, sl, sp, lr}^
 114:	00532e33 	subseq	r2, r3, r3, lsr lr
 118:	00000001 	andeq	r0, r0, r1
 11c:	d4020500 	strle	r0, [r2], #-1280	; 0x500
 120:	03400081 	movteq	r0, #129	; 0x81
 124:	2f2f0112 	svccs	0x002f0112
 128:	2f342f2f 	svccs	0x00342f2f
 12c:	322f2f2f 	eorcc	r2, pc, #188	; 0xbc
 130:	2f2f2f2f 	svccs	0x002f2f2f
 134:	2f2f2f33 	svccs	0x002f2f33
 138:	2f2f2f2f 	svccs	0x002f2f2f
 13c:	2f2f2f2f 	svccs	0x002f2f2f
 140:	2f2f2f2f 	svccs	0x002f2f2f
 144:	2f2f352f 	svccs	0x002f352f
 148:	2f2f2f2f 	svccs	0x002f2f2f
 14c:	30302f2f 	eorscc	r2, r0, pc, lsr #30
 150:	0002022f 	andeq	r0, r2, pc, lsr #4
 154:	02530101 	subseq	r0, r3, #1073741824	; 0x40000000
 158:	00020000 	andeq	r0, r2, r0
 15c:	00000052 	andeq	r0, r0, r2, asr r0
 160:	0efb0102 	cdpeq	1, 15, cr0, cr11, cr2, {0}
 164:	0101000d 	tsteq	r1, sp
 168:	00000101 	andeq	r0, r0, r1, lsl #2
 16c:	00000100 	andeq	r0, r0, r0, lsl #2
 170:	632f2e01 	teqvs	pc, #16
 174:	6f6d6d6f 	svcvs	0x006d6d6f
 178:	6e692f6e 	cdpvs	15, 6, cr2, cr9, cr14, {3}
 17c:	64756c63 	ldrbtvs	r6, [r5], #-3171	; 0xc63
 180:	6f630065 	svcvs	0x00630065
 184:	6e6f6d6d 	cdpvs	13, 6, cr6, cr15, cr13, {3}
 188:	6372732f 	cmnvs	r2, #-1140850688	; 0xbc000000
 18c:	74630000 	strbtvc	r0, [r3]
 190:	2e657079 	mcrcs	0, 3, r7, cr5, cr9, {3}
 194:	00010068 	andeq	r0, r1, r8, rrx
 198:	69727000 	ldmdbvs	r2!, {ip, sp, lr}^
 19c:	2e66746e 	cdpcs	4, 6, cr7, cr6, cr14, {3}
 1a0:	00020063 	andeq	r0, r2, r3, rrx
 1a4:	64747300 	ldrbtvs	r7, [r4], #-768	; 0x300
 1a8:	2e677261 	cdpcs	2, 6, cr7, cr7, cr1, {3}
 1ac:	00010068 	andeq	r0, r1, r8, rrx
 1b0:	05000000 	streq	r0, [r0]
 1b4:	00828402 	addeq	r8, r2, r2, lsl #8
 1b8:	00c40340 	sbceq	r0, r4, r0, asr #6
 1bc:	67bb9f01 	ldrvs	r9, [fp, r1, lsl #30]!
 1c0:	0302042f 	movweq	r0, #9263	; 0x242f
 1c4:	bb9e7fbf 	bllt	fe7a00c8 <_ctype+0xbe795ff0>
 1c8:	0067834c 	rsbeq	r8, r7, ip, asr #6
 1cc:	06010402 	streq	r0, [r1], -r2, lsl #8
 1d0:	4bf30682 	blmi	ffcc1be0 <_ctype+0xbfcb7b08>
 1d4:	674d6768 	strbvs	r6, [sp, -r8, ror #14]
 1d8:	7fbb304c 	svcvc	0x00bb304c
 1dc:	01040200 	mrseq	r0, R12_usr
 1e0:	02002e06 	andeq	r2, r0, #96	; 0x60
 1e4:	00d60204 	sbcseq	r0, r6, r4, lsl #4
 1e8:	d6010402 	strle	r0, [r1], -r2, lsl #8
 1ec:	02040200 	andeq	r0, r4, #0
 1f0:	00d70682 	sbcseq	r0, r7, r2, lsl #13
 1f4:	06030402 	streq	r0, [r3], -r2, lsl #8
 1f8:	040200d6 	streq	r0, [r2], #-214	; 0xd6
 1fc:	a3650605 	cmnge	r5, #5242880	; 0x500000
 200:	a12f6767 	teqge	pc, r7, ror #14
 204:	210883bb 			; <UNDEFINED> instruction: 0x210883bb
 208:	8224039f 	eorhi	r0, r4, #2080374786	; 0x7c000002
 20c:	002f4c83 	eoreq	r4, pc, r3, lsl #25
 210:	08010402 	stmdaeq	r1, {r1, sl}
 214:	040200c7 	streq	r0, [r2], #-199	; 0xc7
 218:	069e0602 	ldreq	r0, [lr], r2, lsl #12
 21c:	20032fa0 	andcs	r2, r3, r0, lsr #31
 220:	834dd882 	movthi	sp, #55426	; 0xd882
 224:	0067834b 	rsbeq	r8, r7, fp, asr #6
 228:	06010402 	streq	r0, [r1], -r2, lsl #8
 22c:	4b670666 	blmi	19c1bcc <_start-0x3e646434>
 230:	01040200 	mrseq	r0, R12_usr
 234:	02009e06 	andeq	r9, r0, #96	; 0x60
 238:	004a0204 	subeq	r0, sl, r4, lsl #4
 23c:	2e030402 	cdpcs	4, 0, cr0, cr3, cr2, {0}
 240:	03040200 	movweq	r0, #16896	; 0x4200
 244:	02002f06 	andeq	r2, r0, #24
 248:	834b0304 	movthi	r0, #45828	; 0xb304
 24c:	83674b67 	cmnhi	r7, #105472	; 0x19c00
 250:	83834b83 	orrhi	r4, r3, #134144	; 0x20c00
 254:	6783694b 	strvs	r6, [r3, fp, asr #18]
 258:	4b686783 	blmi	1a1a06c <_start-0x3e5edf94>
 25c:	835a0867 	cmphi	sl, #6750208	; 0x670000
 260:	01040200 	mrseq	r0, R12_usr
 264:	69103202 	ldmdbvs	r0, {r1, r9, ip, sp}
 268:	2f83834b 	svccs	0x0083834b
 26c:	01040200 	mrseq	r0, R12_usr
 270:	673e08b9 			; <UNDEFINED> instruction: 0x673e08b9
 274:	d76783bb 			; <UNDEFINED> instruction: 0xd76783bb
 278:	83d9bb67 	bicshi	fp, r9, #105472	; 0x19c00
 27c:	0402002f 	streq	r0, [r2], #-47	; 0x2f
 280:	3e08b901 	cdpcc	9, 0, cr11, cr8, cr1, {0}
 284:	0200d52f 	andeq	sp, r0, #197132288	; 0xbc00000
 288:	2e060104 	adfcss	f0, f6, f4
 28c:	2f5a0806 	svccs	0x005a0806
 290:	01040200 	mrseq	r0, R12_usr
 294:	3e085708 	cdpcc	7, 0, cr5, cr8, cr8, {0}
 298:	0402002f 	streq	r0, [r2], #-47	; 0x2f
 29c:	3e08b901 	cdpcc	9, 0, cr11, cr8, cr1, {0}
 2a0:	00a1bf2f 	adceq	fp, r1, pc, lsr #30
 2a4:	06010402 	streq	r0, [r1], -r2, lsl #8
 2a8:	04020066 	streq	r0, [r2], #-102	; 0x66
 2ac:	06900802 	ldreq	r0, [r0], r2, lsl #16
 2b0:	03846784 	orreq	r6, r4, #34603008	; 0x2100000
 2b4:	8367ba12 	cmnhi	r7, #73728	; 0x12000
 2b8:	674c32d7 			; <UNDEFINED> instruction: 0x674c32d7
 2bc:	83132e02 	tsthi	r3, #32
 2c0:	86838383 	strhi	r8, [r3], r3, lsl #7
 2c4:	0402004b 	streq	r0, [r2], #-75	; 0x4b
 2c8:	06820601 	streq	r0, [r2], r1, lsl #12
 2cc:	68839f83 	stmvs	r3, {r0, r1, r7, r8, r9, sl, fp, ip, pc}
 2d0:	6b67679f 	blvs	19da154 <_start-0x3e62deac>
 2d4:	0067834b 	rsbeq	r8, r7, fp, asr #6
 2d8:	06010402 	streq	r0, [r1], -r2, lsl #8
 2dc:	9f830682 	svcls	0x00830682
 2e0:	67a06883 	strvs	r6, [r0, r3, lsl #17]!
 2e4:	02004b4e 	andeq	r4, r0, #79872	; 0x13800
 2e8:	82060104 	andhi	r0, r6, #1
 2ec:	01040200 	mrseq	r0, R12_usr
 2f0:	0200f306 	andeq	pc, r0, #402653184	; 0x18000000
 2f4:	4b490104 	blmi	124070c <_start-0x3edc78f4>
 2f8:	01040200 	mrseq	r0, R12_usr
 2fc:	02008206 	andeq	r8, r0, #1610612736	; 0x60000000
 300:	83060104 	movwhi	r0, #24836	; 0x6104
 304:	01040200 	mrseq	r0, R12_usr
 308:	00674c49 	rsbeq	r4, r7, r9, asr #24
 30c:	06010402 	streq	r0, [r1], -r2, lsl #8
 310:	4b9f0666 	blmi	fe7c1cb0 <_ctype+0xbe7b7bd8>
 314:	024c6a68 	subeq	r6, ip, #425984	; 0x68000
 318:	831401b4 	tsthi	r4, #45	; 0x2d
 31c:	0402002f 	streq	r0, [r2], #-47	; 0x2f
 320:	08bcb901 	ldmeq	ip!, {r0, r8, fp, ip, sp, pc}
 324:	02002f3d 	andeq	r2, r0, #244	; 0xf4
 328:	bcb90104 	ldflts	f0, [r9], #16
 32c:	4c679f31 	stclmi	15, cr9, [r7], #-196	; 0xffffff3c
 330:	002f83bc 			; <UNDEFINED> instruction: 0x002f83bc
 334:	b9010402 	stmdblt	r1, {r1, sl}
 338:	02005a08 	andeq	r5, r0, #32768	; 0x8000
 33c:	00670204 	rsbeq	r0, r7, r4, lsl #4
 340:	08020402 	stmdaeq	r2, {r1, sl}
 344:	0402003b 	streq	r0, [r2], #-59	; 0x3b
 348:	06660601 	strbteq	r0, [r6], -r1, lsl #12
 34c:	02002f84 	andeq	r2, r0, #528	; 0x210
 350:	08b90104 	ldmeq	r9!, {r2, r8}
 354:	4b67315a 	blmi	19cc8c4 <_start-0x3e63b73c>
 358:	3f088169 	svccc	0x00088169
 35c:	a39f6732 	orrsge	r6, pc, #13107200	; 0xc80000
 360:	31a09f2b 	lsrcc	r9, fp, #30
 364:	314b32bb 	strhcc	r3, [fp, #-43]	; 0xffffffd5
 368:	68324b68 	ldmdavs	r2!, {r3, r5, r6, r8, r9, fp, lr}
 36c:	d983bb31 	stmible	r3, {r0, r4, r5, r8, r9, fp, ip, sp, pc}
 370:	7803672d 	stmdavc	r3, {r0, r2, r3, r5, r8, r9, sl, sp, lr}
 374:	2e0f032e 	cdpcs	3, 0, cr0, cr15, cr14, {1}
 378:	0200bb67 	andeq	fp, r0, #105472	; 0x19c00
 37c:	66060104 	strvs	r0, [r6], -r4, lsl #2
 380:	67bb6706 	ldrvs	r6, [fp, r6, lsl #14]!
 384:	83d767bb 	bicshi	r6, r7, #49020928	; 0x2ec0000
 388:	9fbc83d7 	svcls	0x00bc83d7
 38c:	087ee203 	ldmdaeq	lr!, {r0, r1, r9, sp, lr, pc}^
 390:	04020074 	streq	r0, [r2], #-116	; 0x74
 394:	06660601 	strbteq	r0, [r6], -r1, lsl #12
 398:	8201a003 	andhi	sl, r1, #3
 39c:	a2a16767 	adcge	r6, r1, #27000832	; 0x19c0000
 3a0:	a12fbc67 	teqge	pc, r7, ror #24
 3a4:	67f46b86 	ldrbvs	r6, [r4, r6, lsl #23]!
 3a8:	01000802 	tsteq	r0, r2, lsl #16
 3ac:	00007901 	andeq	r7, r0, r1, lsl #18
 3b0:	4a000200 	bmi	bb8 <_start-0x40007448>
 3b4:	02000000 	andeq	r0, r0, #0
 3b8:	0d0efb01 	vstreq	d15, [lr, #-4]
 3bc:	01010100 	mrseq	r0, (UNDEF: 17)
 3c0:	00000001 	andeq	r0, r0, r1
 3c4:	01000001 	tsteq	r0, r1
 3c8:	6d6d6f63 	stclvs	15, cr6, [sp, #-396]!	; 0xfffffe74
 3cc:	732f6e6f 	teqvc	pc, #1776	; 0x6f0
 3d0:	2e006372 	mcrcs	3, 0, r6, cr0, cr2, {3}
 3d4:	6d6f632f 	stclvs	3, cr6, [pc, #-188]!	; 320 <_start-0x40007ce0>
 3d8:	2f6e6f6d 	svccs	0x006e6f6d
 3dc:	6c636e69 	stclvs	14, cr6, [r3], #-420	; 0xfffffe5c
 3e0:	00656475 	rsbeq	r6, r5, r5, ror r4
 3e4:	72617500 	rsbvc	r7, r1, #0
 3e8:	00632e74 	rsbeq	r2, r3, r4, ror lr
 3ec:	65000001 	strvs	r0, [r0, #-1]
 3f0:	6f6e7978 	svcvs	0x006e7978
 3f4:	34345f73 	ldrtcc	r5, [r4], #-3955	; 0xf73
 3f8:	682e3231 	stmdavs	lr!, {r0, r4, r5, r9, ip, sp}
 3fc:	00000200 	andeq	r0, r0, r0, lsl #4
 400:	02050000 	andeq	r0, r5, #0
 404:	40009478 	andmi	r9, r0, r8, ror r4
 408:	67bc4d15 			; <UNDEFINED> instruction: 0x67bc4d15
 40c:	a1676768 	cmnge	r7, r8, ror #14
 410:	0402009f 	streq	r0, [r2], #-159	; 0x9f
 414:	062e0601 	strteq	r0, [lr], -r1, lsl #12
 418:	4b67679f 	blmi	19da29c <_start-0x3e62dd64>
 41c:	002f8384 	eoreq	r8, pc, r4, lsl #7
 420:	d5010402 	strle	r0, [r1, #-1026]	; 0x402
 424:	00060284 	andeq	r0, r6, r4, lsl #5
 428:	009f0101 	addseq	r0, pc, r1, lsl #2
 42c:	00020000 	andeq	r0, r2, r0
 430:	0000003e 	andeq	r0, r0, lr, lsr r0
 434:	0efb0102 	cdpeq	1, 15, cr0, cr11, cr2, {0}
 438:	0101000d 	tsteq	r1, sp
 43c:	00000101 	andeq	r0, r0, r1, lsl #2
 440:	00000100 	andeq	r0, r0, r0, lsl #2
 444:	632f2e01 	teqvs	pc, #16
 448:	6f6d6d6f 	svcvs	0x006d6d6f
 44c:	6e692f6e 	cdpvs	15, 6, cr2, cr9, cr14, {3}
 450:	64756c63 	ldrbtvs	r6, [r5], #-3171	; 0xc63
 454:	72000065 	andvc	r0, r0, #101	; 0x65
 458:	632e6374 	teqvs	lr, #-805306367	; 0xd0000001
 45c:	00000000 	andeq	r0, r0, r0
 460:	6e797865 	cdpvs	8, 7, cr7, cr9, cr5, {3}
 464:	345f736f 	ldrbcc	r7, [pc], #-879	; 46c <_start-0x40007b94>
 468:	2e323134 	mrccs	1, 1, r3, cr2, cr4, {1}
 46c:	00010068 	andeq	r0, r1, r8, rrx
 470:	05000000 	streq	r0, [r0]
 474:	00958402 	addseq	r8, r5, r2, lsl #8
 478:	67851540 	strvs	r1, [r5, r0, asr #10]
 47c:	02040200 	andeq	r0, r4, #0
 480:	02006606 	andeq	r6, r0, #6291456	; 0x600000
 484:	06660104 	strbteq	r0, [r6], -r4, lsl #2
 488:	04020081 	streq	r0, [r2], #-129	; 0x81
 48c:	06660601 	strbteq	r0, [r6], -r1, lsl #12
 490:	bc4c8584 	cfstr64lt	mvdx8, [ip], {132}	; 0x84
 494:	bbd7bcbc 	bllt	ff5ef78c <_ctype+0xbf5e56b4>
 498:	02009fa1 	andeq	r9, r0, #644	; 0x284
 49c:	2e060104 	adfcss	f0, f6, f4
 4a0:	6768a006 	strbvs	sl, [r8, -r6]!
 4a4:	2f83854b 	svccs	0x0083854b
 4a8:	01040200 	mrseq	r0, R12_usr
 4ac:	6a6984d5 	bvs	1a61808 <_start-0x3e5a67f8>
 4b0:	676767a0 	strbvs	r6, [r7, -r0, lsr #15]!
 4b4:	68676767 	stmdavs	r7!, {r0, r1, r2, r5, r6, r8, r9, sl, sp, lr}^
 4b8:	4a1003a0 	bmi	401340 <_start-0x3fc06cc0>
 4bc:	a02e7503 	eorge	r7, lr, r3, lsl #10
 4c0:	9f9f9f9f 	svcls	0x009f9f9f
 4c4:	689f9f9f 	ldmvs	pc, {r0, r1, r2, r3, r4, r7, r8, r9, sl, fp, ip, pc}	; <UNPREDICTABLE>
 4c8:	01000602 	tsteq	r0, r2, lsl #12
 4cc:	Address 0x000004cc is out of bounds.


Disassembly of section .debug_info:

00000000 <.debug_info>:
   0:	00000048 	andeq	r0, r0, r8, asr #32
   4:	00000002 	andeq	r0, r0, r2
   8:	01040000 	mrseq	r0, (UNDEF: 4)
   c:	00000000 	andeq	r0, r0, r0
  10:	40008000 	andmi	r8, r0, r0
  14:	40008134 	andmi	r8, r0, r4, lsr r1
  18:	72617473 	rsbvc	r7, r1, #1929379840	; 0x73000000
  1c:	74732f74 	ldrbtvc	r2, [r3], #-3956	; 0xf74
  20:	2e747261 	cdpcs	2, 7, cr7, cr4, cr1, {3}
  24:	3a450053 	bcc	1140178 <_start-0x3eec7e88>
  28:	6c63655c 	cfstr64vs	mvdx6, [r3], #-368	; 0xfffffe90
  2c:	65737069 	ldrbvs	r7, [r3, #-105]!	; 0x69
  30:	6f72705f 	svcvs	0x0072705f
  34:	7463656a 	strbtvc	r6, [r3], #-1386	; 0x56a
  38:	54525c73 	ldrbpl	r5, [r2], #-3187	; 0xc73
  3c:	4e470043 	cdpmi	0, 4, cr0, cr7, cr3, {2}
  40:	53412055 	movtpl	r2, #4181	; 0x1055
  44:	322e3220 	eorcc	r3, lr, #2
  48:	80010031 	andhi	r0, r1, r1, lsr r0
  4c:	00000050 	andeq	r0, r0, r0, asr r0
  50:	00140002 	andseq	r0, r4, r2
  54:	01040000 	mrseq	r0, (UNDEF: 4)
  58:	0000007d 	andeq	r0, r0, sp, ror r0
  5c:	40008140 	andmi	r8, r0, r0, asr #2
  60:	400081d4 	ldrdmi	r8, [r0], -r4
  64:	6d6d6f63 	stclvs	15, cr6, [sp, #-396]!	; 0xfffffe74
  68:	732f6e6f 	teqvc	pc, #1776	; 0x6f0
  6c:	5f2f6372 	svcpl	0x002f6372
  70:	76696475 			; <UNDEFINED> instruction: 0x76696475
  74:	2e336973 	mrccs	9, 1, r6, cr3, cr3, {3}
  78:	3a450053 	bcc	11401cc <_start-0x3eec7e34>
  7c:	6c63655c 	cfstr64vs	mvdx6, [r3], #-368	; 0xfffffe90
  80:	65737069 	ldrbvs	r7, [r3, #-105]!	; 0x69
  84:	6f72705f 	svcvs	0x0072705f
  88:	7463656a 	strbtvc	r6, [r3], #-1386	; 0x56a
  8c:	54525c73 	ldrbpl	r5, [r2], #-3187	; 0xc73
  90:	4e470043 	cdpmi	0, 4, cr0, cr7, cr3, {2}
  94:	53412055 	movtpl	r2, #4181	; 0x1055
  98:	322e3220 	eorcc	r3, lr, #2
  9c:	80010031 	andhi	r0, r1, r1, lsr r0
  a0:	00000050 	andeq	r0, r0, r0, asr r0
  a4:	00280002 	eoreq	r0, r8, r2
  a8:	01040000 	mrseq	r0, (UNDEF: 4)
  ac:	000000e6 	andeq	r0, r0, r6, ror #1
  b0:	400081d4 	ldrdmi	r8, [r0], -r4
  b4:	40008284 	andmi	r8, r0, r4, lsl #5
  b8:	6d6d6f63 	stclvs	15, cr6, [sp, #-396]!	; 0xfffffe74
  bc:	732f6e6f 	teqvc	pc, #1776	; 0x6f0
  c0:	5f2f6372 	svcpl	0x002f6372
  c4:	646f6d75 	strbtvs	r6, [pc], #-3445	; cc <_start-0x40007f34>
  c8:	2e336973 	mrccs	9, 1, r6, cr3, cr3, {3}
  cc:	3a450053 	bcc	1140220 <_start-0x3eec7de0>
  d0:	6c63655c 	cfstr64vs	mvdx6, [r3], #-368	; 0xfffffe90
  d4:	65737069 	ldrbvs	r7, [r3, #-105]!	; 0x69
  d8:	6f72705f 	svcvs	0x0072705f
  dc:	7463656a 	strbtvc	r6, [r3], #-1386	; 0x56a
  e0:	54525c73 	ldrbpl	r5, [r2], #-3187	; 0xc73
  e4:	4e470043 	cdpmi	0, 4, cr0, cr7, cr3, {2}
  e8:	53412055 	movtpl	r2, #4181	; 0x1055
  ec:	322e3220 	eorcc	r3, lr, #2
  f0:	80010031 	andhi	r0, r1, r1, lsr r0
  f4:	000004be 			; <UNDEFINED> instruction: 0x000004be
  f8:	003c0002 	eorseq	r0, ip, r2
  fc:	01040000 	mrseq	r0, (UNDEF: 4)
 100:	0000006d 	andeq	r0, r0, sp, rrx
 104:	00009901 	andeq	r9, r0, r1, lsl #18
 108:	0000d800 	andeq	sp, r0, r0, lsl #16
 10c:	00828400 	addeq	r8, r2, r0, lsl #8
 110:	00947840 	addseq	r7, r4, r0, asr #16
 114:	00015640 	andeq	r5, r1, r0, asr #12
 118:	00410200 	subeq	r0, r1, r0, lsl #4
 11c:	28030000 	stmdacs	r3, {}	; <UNPREDICTABLE>
 120:	00000030 	andeq	r0, r0, r0, lsr r0
 124:	00000403 	andeq	r0, r0, r3, lsl #8
 128:	48020000 	stmdami	r2, {}	; <UNPREDICTABLE>
 12c:	03000000 	movweq	r0, #0
 130:	00002566 	andeq	r2, r0, r6, ror #10
 134:	00370400 	eorseq	r0, r7, r0, lsl #8
 138:	44010000 	strmi	r0, [r1]
 13c:	00006a01 	andeq	r6, r0, r1, lsl #20
 140:	00828400 	addeq	r8, r2, r0, lsl #8
 144:	0082d440 	addeq	sp, r2, r0, asr #8
 148:	00000040 	andeq	r0, r0, r0, asr #32
 14c:	00006a00 	andeq	r6, r0, r0, lsl #20
 150:	00630500 	rsbeq	r0, r3, r0, lsl #10
 154:	006a4401 	rsbeq	r4, sl, r1, lsl #8
 158:	91020000 	mrsls	r0, (UNDEF: 2)
 15c:	01060078 	tsteq	r6, r8, ror r0
 160:	00005a08 	andeq	r5, r0, r8, lsl #20
 164:	12010700 	andne	r0, r1, #0
 168:	02000000 	andeq	r0, r0, #0
 16c:	00d40107 	sbcseq	r0, r4, r7, lsl #2
 170:	82d40000 	sbcshi	r0, r4, #0
 174:	847c4000 	ldrbthi	r4, [ip]
 178:	002c4000 	eoreq	r4, ip, r0
 17c:	00d40000 	sbcseq	r0, r4, r0
 180:	63050000 	movwvs	r0, #20480	; 0x5000
 184:	07020070 	smlsdxeq	r2, r0, r0, r0
 188:	000000db 	ldrdeq	r0, [r0], -fp
 18c:	086c9102 	stmdaeq	ip!, {r1, r8, ip, pc}^
 190:	000000d3 	ldrdeq	r0, [r0], -r3
 194:	00ed0702 	rsceq	r0, sp, r2, lsl #14
 198:	91020000 	mrsls	r0, (UNDEF: 2)
 19c:	00680868 	rsbeq	r0, r8, r8, ror #16
 1a0:	07020000 	streq	r0, [r2, -r0]
 1a4:	000000f9 	strdeq	r0, [r0], -r9
 1a8:	09649102 	stmdbeq	r4!, {r1, r8, ip, pc}^
 1ac:	000000bd 	strheq	r0, [r0], -sp
 1b0:	00d40902 	sbcseq	r0, r4, r2, lsl #18
 1b4:	91020000 	mrsls	r0, (UNDEF: 2)
 1b8:	00210974 	eoreq	r0, r1, r4, ror r9
 1bc:	09020000 	stmdbeq	r2, {}	; <UNPREDICTABLE>
 1c0:	000000d4 	ldrdeq	r0, [r0], -r4
 1c4:	00709102 	rsbseq	r9, r0, r2, lsl #2
 1c8:	79070406 	stmdbvc	r7, {r1, r2, sl}
 1cc:	0a000000 	beq	1d4 <_start-0x40007e2c>
 1d0:	0000e104 	andeq	lr, r0, r4, lsl #2
 1d4:	00e60b00 	rsceq	r0, r6, r0, lsl #22
 1d8:	01060000 	mrseq	r0, (UNDEF: 6)
 1dc:	00006308 	andeq	r6, r0, r8, lsl #6
 1e0:	f3040a00 	vpmax.u8	d0, d4, d0
 1e4:	0a000000 	beq	1ec <_start-0x40007e14>
 1e8:	0000e604 	andeq	lr, r0, r4, lsl #12
 1ec:	07040600 	streq	r0, [r4, -r0, lsl #12]
 1f0:	0000007e 	andeq	r0, r0, lr, ror r0
 1f4:	008b0107 	addeq	r0, fp, r7, lsl #2
 1f8:	22020000 	andcs	r0, r2, #0
 1fc:	00014701 	andeq	r4, r1, r1, lsl #14
 200:	00847c00 	addeq	r7, r4, r0, lsl #24
 204:	0084ec40 	addeq	lr, r4, r0, asr #24
 208:	00005840 	andeq	r5, r0, r0, asr #16
 20c:	00014700 	andeq	r4, r1, r0, lsl #14
 210:	70630500 	rsbvc	r0, r3, r0, lsl #10
 214:	db220200 	blle	880a1c <_start-0x3f7875e4>
 218:	02000000 	andeq	r0, r0, #0
 21c:	d3087491 	movwle	r7, #33937	; 0x8491
 220:	02000000 	andeq	r0, r0, #0
 224:	0000ed22 	andeq	lr, r0, r2, lsr #26
 228:	70910200 	addsvc	r0, r1, r0, lsl #4
 22c:	00006808 	andeq	r6, r0, r8, lsl #16
 230:	f9220200 			; <UNDEFINED> instruction: 0xf9220200
 234:	02000000 	andeq	r0, r0, #0
 238:	06006c91 			; <UNDEFINED> instruction: 0x06006c91
 23c:	01220504 	teqeq	r2, r4, lsl #10
 240:	2d040000 	stccs	0, cr0, [r4]
 244:	02000000 	andeq	r0, r0, #0
 248:	0183014a 	orreq	r0, r3, sl, asr #2
 24c:	84ec0000 	strbthi	r0, [ip]
 250:	85804000 	strhi	r4, [r0]
 254:	00844000 	addeq	r4, r4, r0
 258:	01830000 	orreq	r0, r3, r0
 25c:	73050000 	movwvc	r0, #20480	; 0x5000
 260:	8a4a0200 	bhi	1280a68 <_start-0x3ed87598>
 264:	02000001 	andeq	r0, r0, #1
 268:	690c7491 	stmdbvs	ip, {r0, r4, r7, sl, ip, sp, lr}
 26c:	834c0200 	movthi	r0, #49664	; 0xc200
 270:	02000001 	andeq	r0, r0, #1
 274:	0d007891 	stceq	8, cr7, [r0, #-580]	; 0xfffffdbc
 278:	6e690504 	cdpvs	5, 6, cr0, cr9, cr4, {0}
 27c:	040a0074 	streq	r0, [sl], #-116	; 0x74
 280:	000000db 	ldrdeq	r0, [r0], -fp
 284:	00011b04 	andeq	r1, r1, r4, lsl #22
 288:	016f0200 	cmneq	pc, r0, lsl #4
 28c:	000000f3 	strdeq	r0, [r0], -r3
 290:	40008580 	andmi	r8, r0, r0, lsl #11
 294:	40008a18 	andmi	r8, r0, r8, lsl sl
 298:	000000b0 	strheq	r0, [r0], -r0	; <UNPREDICTABLE>
 29c:	00000260 	andeq	r0, r0, r0, ror #4
 2a0:	72747305 	rsbsvc	r7, r4, #335544320	; 0x14000000
 2a4:	f36f0200 	vhsub.u32	d16, d15, d0
 2a8:	03000000 	movweq	r0, #0
 2ac:	057f9c91 	ldrbeq	r9, [pc, #-3217]!	; fffff623 <_ctype+0xbfff554b>
 2b0:	006d756e 	rsbeq	r7, sp, lr, ror #10
 2b4:	01476f02 	cmpeq	r7, r2, lsl #30
 2b8:	91030000 	mrsls	r0, (UNDEF: 3)
 2bc:	68087f98 	stmdavs	r8, {r3, r4, r7, r8, r9, sl, fp, ip, sp, lr}
 2c0:	02000000 	andeq	r0, r0, #0
 2c4:	0000f96f 	andeq	pc, r0, pc, ror #18
 2c8:	94910300 	ldrls	r0, [r1], #768	; 0x300
 2cc:	0136087f 	teqeq	r6, pc, ror r8
 2d0:	6f020000 	svcvs	0x00020000
 2d4:	00000183 	andeq	r0, r0, r3, lsl #3
 2d8:	7f909103 	svcvc	0x00909103
 2dc:	00005008 	andeq	r5, r0, r8
 2e0:	836f0200 	cmnhi	pc, #0
 2e4:	02000001 	andeq	r0, r0, #1
 2e8:	f2080091 	vqadd.s8	d0, d24, d1
 2ec:	02000000 	andeq	r0, r0, #0
 2f0:	0001836f 	andeq	r8, r1, pc, ror #6
 2f4:	04910200 	ldreq	r0, [r1], #512	; 0x200
 2f8:	0200630c 	andeq	r6, r0, #805306368	; 0x30000000
 2fc:	0000e672 	andeq	lr, r0, r2, ror r6
 300:	6b910200 	blvs	fe440b08 <_ctype+0xbe436a30>
 304:	00012b09 	andeq	r2, r1, r9, lsl #22
 308:	e6720200 	ldrbt	r0, [r2], -r0, lsl #4
 30c:	02000000 	andeq	r0, r0, #0
 310:	740c7791 	strvc	r7, [ip], #-1937	; 0x791
 314:	0200706d 	andeq	r7, r0, #109	; 0x6d
 318:	00026072 	andeq	r6, r2, r2, ror r0
 31c:	a0910300 	addsge	r0, r1, r0, lsl #6
 320:	00f7097f 	rscseq	r0, r7, pc, ror r9
 324:	73020000 	movwvc	r0, #8192	; 0x2000
 328:	000000db 	ldrdeq	r0, [r0], -fp
 32c:	0c709102 	ldfeqp	f1, [r0], #-8
 330:	74020069 	strvc	r0, [r2], #-105	; 0x69
 334:	00000183 	andeq	r0, r0, r3, lsl #3
 338:	0e6c9102 	lgneqe	f1, f2
 33c:	40008744 	andmi	r8, r0, r4, asr #14
 340:	40008778 	andmi	r8, r0, r8, ror r7
 344:	00013009 	andeq	r3, r1, r9
 348:	83960200 	orrshi	r0, r6, #0
 34c:	02000001 	andeq	r0, r0, #1
 350:	00006491 	muleq	r0, r1, r4
 354:	0000e60f 	andeq	lr, r0, pc, lsl #12
 358:	00027000 	andeq	r7, r2, r0
 35c:	00d41000 	sbcseq	r1, r4, r0
 360:	00410000 	subeq	r0, r1, r0
 364:	00cb0107 	sbceq	r0, fp, r7, lsl #2
 368:	b4020000 	strlt	r0, [r2]
 36c:	0000f901 	andeq	pc, r0, r1, lsl #18
 370:	008a1800 	addeq	r1, sl, r0, lsl #16
 374:	008a9840 	addeq	r9, sl, r0, asr #16
 378:	0000dc40 	andeq	sp, r0, r0, asr #24
 37c:	0002b500 	andeq	fp, r2, r0, lsl #10
 380:	00730500 	rsbseq	r0, r3, r0, lsl #10
 384:	00dbb402 	sbcseq	fp, fp, r2, lsl #8
 388:	91020000 	mrsls	r0, (UNDEF: 2)
 38c:	00270874 	eoreq	r0, r7, r4, ror r8
 390:	b4020000 	strlt	r0, [r2]
 394:	000000f9 	strdeq	r0, [r0], -r9
 398:	0c709102 	ldfeqp	f1, [r0], #-8
 39c:	02006373 	andeq	r6, r0, #-872415231	; 0xcc000001
 3a0:	0000dbb6 			; <UNDEFINED> instruction: 0x0000dbb6
 3a4:	78910200 	ldmvc	r1, {r9}
 3a8:	3b010700 	blcc	41fb0 <_start-0x3ffc6050>
 3ac:	02000001 	andeq	r0, r0, #1
 3b0:	018301bc 			; <UNDEFINED> instruction: 0x018301bc
 3b4:	8a980000 	bhi	fe6003bc <_ctype+0xbe5f62e4>
 3b8:	93d04000 	bicsls	r4, r0, #0
 3bc:	01084000 	mrseq	r4, (UNDEF: 8)
 3c0:	03c50000 	biceq	r0, r5, #0
 3c4:	62050000 	andvs	r0, r5, #0
 3c8:	02006675 	andeq	r6, r0, #122683392	; 0x7500000
 3cc:	0000f3bc 			; <UNDEFINED> instruction: 0x0000f3bc
 3d0:	44910200 	ldrmi	r0, [r1], #512	; 0x200
 3d4:	746d6605 	strbtvc	r6, [sp], #-1541	; 0x605
 3d8:	dbbc0200 	blle	fef00be0 <_ctype+0xbeef6b08>
 3dc:	02000000 	andeq	r0, r0, #0
 3e0:	16084091 			; <UNDEFINED> instruction: 0x16084091
 3e4:	02000001 	andeq	r0, r0, #1
 3e8:	000036bc 			; <UNDEFINED> instruction: 0x000036bc
 3ec:	bc910300 	ldclt	3, cr0, [r1], {0}
 3f0:	656c0c7f 	strbvs	r0, [ip, #-3199]!	; 0xc7f
 3f4:	be02006e 	cdplt	0, 0, cr0, cr2, cr14, {3}
 3f8:	00000183 	andeq	r0, r0, r3, lsl #3
 3fc:	0c509102 	ldfeqp	f1, [r0], {2}
 400:	006d756e 	rsbeq	r7, sp, lr, ror #10
 404:	00d4c202 	sbcseq	ip, r4, r2, lsl #4
 408:	91020000 	mrsls	r0, (UNDEF: 2)
 40c:	00690c74 	rsbeq	r0, r9, r4, ror ip
 410:	0183c402 	orreq	ip, r3, r2, lsl #8
 414:	91020000 	mrsls	r0, (UNDEF: 2)
 418:	00680970 	rsbeq	r0, r8, r0, ror r9
 41c:	c4020000 	strgt	r0, [r2]
 420:	00000183 	andeq	r0, r0, r3, lsl #3
 424:	0c6c9102 	stfeqp	f1, [ip], #-8
 428:	00727473 	rsbseq	r7, r2, r3, ror r4
 42c:	00f3c502 	rscseq	ip, r3, r2, lsl #10
 430:	91020000 	mrsls	r0, (UNDEF: 2)
 434:	00730c68 	rsbseq	r0, r3, r8, ror #24
 438:	00dbc602 	sbcseq	ip, fp, r2, lsl #12
 43c:	91020000 	mrsls	r0, (UNDEF: 2)
 440:	00ad0964 	adceq	r0, sp, r4, ror #18
 444:	c8020000 	stmdagt	r2, {}	; <UNPREDICTABLE>
 448:	00000183 	andeq	r0, r0, r3, lsl #3
 44c:	09609102 	stmdbeq	r0!, {r1, r8, ip, pc}^
 450:	0000010a 	andeq	r0, r0, sl, lsl #2
 454:	0183ca02 	orreq	ip, r3, r2, lsl #20
 458:	91020000 	mrsls	r0, (UNDEF: 2)
 45c:	0050095c 	subseq	r0, r0, ip, asr r9
 460:	cb020000 	blgt	80468 <_start-0x3ff87b98>
 464:	00000183 	andeq	r0, r0, r3, lsl #3
 468:	09589102 	ldmdbeq	r8, {r1, r8, ip, pc}^
 46c:	000000b3 	strheq	r0, [r0], -r3
 470:	0183cd02 	orreq	ip, r3, r2, lsl #26
 474:	91020000 	mrsls	r0, (UNDEF: 2)
 478:	00c41154 	sbceq	r1, r4, r4, asr r1
 47c:	d7020000 	strle	r0, [r2, -r0]
 480:	40008af4 	strdmi	r8, [r0], -r4
 484:	00914c12 	addseq	r4, r1, r2, lsl ip
 488:	00917440 	addseq	r7, r1, r0, asr #8
 48c:	0003ac40 	andeq	sl, r3, r0, asr #24
 490:	70691300 	rsbvc	r1, r9, r0, lsl #6
 494:	01350200 	teqeq	r5, r0, lsl #4
 498:	000003c5 	andeq	r0, r0, r5, asr #7
 49c:	004c9102 	subeq	r9, ip, r2, lsl #2
 4a0:	0091780e 	addseq	r7, r1, lr, lsl #16
 4a4:	0091a040 	addseq	sl, r1, r0, asr #32
 4a8:	70691340 	rsbvc	r1, r9, r0, asr #6
 4ac:	01380200 	teqeq	r8, r0, lsl #4
 4b0:	000003cb 	andeq	r0, r0, fp, asr #7
 4b4:	00489102 	subeq	r9, r8, r2, lsl #2
 4b8:	47040a00 	strmi	r0, [r4, -r0, lsl #20]
 4bc:	0a000001 	beq	4c8 <_start-0x40007b38>
 4c0:	00018304 	andeq	r8, r1, r4, lsl #6
 4c4:	3c011400 	cfstrscc	mvf1, [r1], {0}
 4c8:	02000001 	andeq	r0, r0, #1
 4cc:	83010173 	movwhi	r0, #4467	; 0x1173
 4d0:	d0000001 	andle	r0, r0, r1
 4d4:	20400093 	umaalcs	r0, r0, r3, r0
 4d8:	34400094 	strbcc	r0, [r0], #-148	; 0x94
 4dc:	2b000001 	blcs	4e8 <_start-0x40007b18>
 4e0:	15000004 	strne	r0, [r0, #-4]
 4e4:	00667562 	rsbeq	r7, r6, r2, ror #10
 4e8:	f3017302 	vcgt.u8	d7, d1, d2
 4ec:	02000000 	andeq	r0, r0, #0
 4f0:	66156091 			; <UNDEFINED> instruction: 0x66156091
 4f4:	0200746d 	andeq	r7, r0, #1828716544	; 0x6d000000
 4f8:	00db0173 	sbcseq	r0, fp, r3, ror r1
 4fc:	91020000 	mrsls	r0, (UNDEF: 2)
 500:	16171674 			; <UNDEFINED> instruction: 0x16171674
 504:	02000001 	andeq	r0, r0, #1
 508:	00360175 	eorseq	r0, r6, r5, ror r1
 50c:	91020000 	mrsls	r0, (UNDEF: 2)
 510:	00691364 	rsbeq	r1, r9, r4, ror #6
 514:	83017602 	movwhi	r7, #5634	; 0x1602
 518:	02000001 	andeq	r0, r0, #1
 51c:	18006891 	stmdane	r0, {r0, r4, r7, fp, sp, lr}
 520:	00013d01 	andeq	r3, r1, r1, lsl #26
 524:	017e0200 	cmneq	lr, r0, lsl #4
 528:	00942001 	addseq	r2, r4, r1
 52c:	00947840 	addseq	r7, r4, r0, asr #16
 530:	00016c40 	andeq	r6, r1, r0, asr #24
 534:	00048200 	andeq	r8, r4, r0, lsl #4
 538:	6d661500 	cfstr64vs	mvdx1, [r6]
 53c:	7e020074 	mcrvc	0, 0, r0, cr2, cr4, {3}
 540:	0000db01 	andeq	sp, r0, r1, lsl #22
 544:	70910200 	addsvc	r0, r1, r0, lsl #4
 548:	01161716 	tsteq	r6, r6, lsl r7
 54c:	80020000 	andhi	r0, r2, r0
 550:	00003601 	andeq	r3, r0, r1, lsl #12
 554:	60910200 	addsvs	r0, r1, r0, lsl #4
 558:	02006913 	andeq	r6, r0, #311296	; 0x4c000
 55c:	00f90181 	rscseq	r0, r9, r1, lsl #3
 560:	91020000 	mrsls	r0, (UNDEF: 2)
 564:	00fe1764 	rscseq	r1, lr, r4, ror #14
 568:	82020000 	andhi	r0, r2, #0
 56c:	00048201 	andeq	r8, r4, r1, lsl #4
 570:	fc910300 	ldc2	3, cr0, [r1], {0}
 574:	e60f007e 			; <UNDEFINED> instruction: 0xe60f007e
 578:	92000000 	andls	r0, r0, #0
 57c:	10000004 	andne	r0, r0, r4
 580:	000000d4 	ldrdeq	r0, [r0], -r4
 584:	6a0f0063 	bvs	3c0718 <_start-0x3fc478e8>
 588:	a2000000 	andge	r0, r0, #0
 58c:	10000004 	andne	r0, r0, r4
 590:	000000d4 	ldrdeq	r0, [r0], -r4
 594:	f01900ff 			; <UNDEFINED> instruction: 0xf01900ff
 598:	01000000 	mrseq	r0, (UNDEF: 0)
 59c:	00049211 	andeq	r9, r4, r1, lsl r2
 5a0:	1a010100 	bne	409a8 <_start-0x3ffc7658>
 5a4:	000000f0 	strdeq	r0, [r0], -r0	; <UNPREDICTABLE>
 5a8:	04921101 	ldreq	r1, [r2], #257	; 0x101
 5ac:	05010000 	streq	r0, [r1]
 5b0:	00a0d803 	adceq	sp, r0, r3, lsl #16
 5b4:	020d0040 	andeq	r0, sp, #64	; 0x40
 5b8:	00020000 	andeq	r0, r2, r0
 5bc:	000001af 	andeq	r0, r0, pc, lsr #3
 5c0:	006d0104 	rsbeq	r0, sp, r4, lsl #2
 5c4:	d0010000 	andle	r0, r1, r0
 5c8:	d8000001 	stmdale	r0, {r0}
 5cc:	78000000 	stmdavc	r0, {}	; <UNPREDICTABLE>
 5d0:	84400094 	strbhi	r0, [r0], #-148	; 0x94
 5d4:	ad400095 	stclge	0, cr0, [r0, #-596]	; 0xfffffdac
 5d8:	02000003 	andeq	r0, r0, #3
 5dc:	007e0704 	rsbseq	r0, lr, r4, lsl #14
 5e0:	18030000 	stmdane	r3, {}	; <UNPREDICTABLE>
 5e4:	90018902 	andls	r8, r1, r2, lsl #18
 5e8:	04000000 	streq	r0, [r0]
 5ec:	004e4f43 	subeq	r4, lr, r3, asr #30
 5f0:	25018a02 	strcs	r8, [r1, #-2562]	; 0xa02
 5f4:	02000000 	andeq	r0, r0, #0
 5f8:	44040023 	strmi	r0, [r4], #-35	; 0x23
 5fc:	02005441 	andeq	r5, r0, #1090519040	; 0x41000000
 600:	0025018b 	eoreq	r0, r5, fp, lsl #3
 604:	23020000 	movwcs	r0, #8192	; 0x2000
 608:	55500404 	ldrbpl	r0, [r0, #-1028]	; 0x404
 60c:	8c020044 	stchi	0, cr0, [r2], {68}	; 0x44
 610:	00002501 	andeq	r2, r0, r1, lsl #10
 614:	08230200 	stmdaeq	r3!, {r9}
 618:	56524404 	ldrbpl	r4, [r2], -r4, lsl #8
 61c:	018d0200 	orreq	r0, sp, r0, lsl #4
 620:	00000025 	andeq	r0, r0, r5, lsr #32
 624:	050c2302 	streq	r2, [ip, #-770]	; 0x302
 628:	00000198 	muleq	r0, r8, r1
 62c:	25018e02 	strcs	r8, [r1, #-3586]	; 0xe02
 630:	02000000 	andeq	r0, r0, #0
 634:	c9051023 	stmdbgt	r5, {r0, r1, r5, ip}
 638:	02000001 	andeq	r0, r0, #1
 63c:	0025018f 	eoreq	r0, r5, pc, lsl #3
 640:	23020000 	movwcs	r0, #8192	; 0x2000
 644:	4a060014 	bmi	18069c <_start-0x3fe87964>
 648:	02000001 	andeq	r0, r0, #1
 64c:	002c0190 	mlaeq	ip, r0, r1, r0
 650:	3c030000 	stccc	0, cr0, [r3], {0}
 654:	8703c902 	strhi	ip, [r3, -r2, lsl #18]
 658:	05000001 	streq	r0, [r0, #-1]
 65c:	000001b4 			; <UNDEFINED> instruction: 0x000001b4
 660:	2503ca02 	strcs	ip, [r3, #-2562]	; 0xa02
 664:	02000000 	andeq	r0, r0, #0
 668:	9f050023 	svcls	0x00050023
 66c:	02000001 	andeq	r0, r0, #1
 670:	002503cb 	eoreq	r0, r5, fp, asr #7
 674:	23020000 	movwcs	r0, #8192	; 0x2000
 678:	018b0504 	orreq	r0, fp, r4, lsl #10
 67c:	cc020000 	stcgt	0, cr0, [r2], {0}
 680:	00002503 	andeq	r2, r0, r3, lsl #10
 684:	08230200 	stmdaeq	r3!, {r9}
 688:	0001e705 	andeq	lr, r1, r5, lsl #14
 68c:	03cd0200 	biceq	r0, sp, #0
 690:	00000025 	andeq	r0, r0, r5, lsr #32
 694:	050c2302 	streq	r2, [ip, #-770]	; 0x302
 698:	00000173 	andeq	r0, r0, r3, ror r1
 69c:	2503ce02 	strcs	ip, [r3, #-3586]	; 0xe02
 6a0:	02000000 	andeq	r0, r0, #0
 6a4:	c0051023 	andgt	r1, r5, r3, lsr #32
 6a8:	02000001 	andeq	r0, r0, #1
 6ac:	002503cf 	eoreq	r0, r5, pc, asr #7
 6b0:	23020000 	movwcs	r0, #8192	; 0x2000
 6b4:	016b0514 	cmneq	fp, r4, lsl r5
 6b8:	d0020000 	andle	r0, r2, r0
 6bc:	00002503 	andeq	r2, r0, r3, lsl #10
 6c0:	18230200 	stmdane	r3!, {r9}
 6c4:	0001a505 	andeq	sl, r1, r5, lsl #10
 6c8:	03d10200 	bicseq	r0, r1, #0
 6cc:	00000025 	andeq	r0, r0, r5, lsr #32
 6d0:	051c2302 	ldreq	r2, [ip, #-770]	; 0x302
 6d4:	00000192 	muleq	r0, r2, r1
 6d8:	2503d202 	strcs	sp, [r3, #-514]	; 0x202
 6dc:	02000000 	andeq	r0, r0, #0
 6e0:	ee052023 	cdp	0, 0, cr2, cr5, cr3, {1}
 6e4:	02000001 	andeq	r0, r0, #1
 6e8:	002503d3 	ldrdeq	r0, [r5], -r3	; <UNPREDICTABLE>
 6ec:	23020000 	movwcs	r0, #8192	; 0x2000
 6f0:	015e0524 	cmpeq	lr, r4, lsr #10
 6f4:	d4020000 	strle	r0, [r2]
 6f8:	00002503 	andeq	r2, r0, r3, lsl #10
 6fc:	28230200 	stmdacs	r3!, {r9}
 700:	0001f405 	andeq	pc, r1, r5, lsl #8
 704:	03d50200 	bicseq	r0, r5, #0
 708:	00000025 	andeq	r0, r0, r5, lsr #32
 70c:	052c2302 	streq	r2, [ip, #-770]!	; 0x302
 710:	0000014f 	andeq	r0, r0, pc, asr #2
 714:	2503d602 	strcs	sp, [r3, #-1538]	; 0x602
 718:	02000000 	andeq	r0, r0, #0
 71c:	56053023 	strpl	r3, [r5], -r3, lsr #32
 720:	02000001 	andeq	r0, r0, #1
 724:	002503d7 	ldrdeq	r0, [r5], -r7	; <UNPREDICTABLE>
 728:	23020000 	movwcs	r0, #8192	; 0x2000
 72c:	01ad0534 			; <UNDEFINED> instruction: 0x01ad0534
 730:	d8020000 	stmdale	r2, {}	; <UNPREDICTABLE>
 734:	00002503 	andeq	r2, r0, r3, lsl #10
 738:	38230200 	stmdacc	r3!, {r9}
 73c:	01440600 	cmpeq	r4, r0, lsl #12
 740:	d9020000 	stmdble	r2, {}	; <UNPREDICTABLE>
 744:	00009c03 	andeq	r9, r0, r3, lsl #24
 748:	07040200 	streq	r0, [r4, -r0, lsl #4]
 74c:	00000079 	andeq	r0, r0, r9, ror r0
 750:	017c0107 	cmneq	ip, r7, lsl #2
 754:	03010000 	movweq	r0, #4096	; 0x1000
 758:	40009478 	andmi	r9, r0, r8, ror r4
 75c:	400094dc 	ldrdmi	r9, [r0], -ip
 760:	000001a4 	andeq	r0, r0, r4, lsr #3
 764:	01bb0108 			; <UNDEFINED> instruction: 0x01bb0108
 768:	10010000 	andne	r0, r1, r0
 76c:	0094dc01 	addseq	sp, r4, r1, lsl #24
 770:	00953840 	addseq	r3, r5, r0, asr #16
 774:	0001d040 	andeq	sp, r1, r0, asr #32
 778:	0001d600 	andeq	sp, r1, r0, lsl #12
 77c:	01860900 	orreq	r0, r6, r0, lsl #18
 780:	10010000 	andne	r0, r1, r0
 784:	000001d6 	ldrdeq	r0, [r0], -r6
 788:	00749102 	rsbseq	r9, r4, r2, lsl #2
 78c:	0001db0a 	andeq	sp, r1, sl, lsl #22
 790:	08010200 	stmdaeq	r1, {r9}
 794:	00000063 	andeq	r0, r0, r3, rrx
 798:	01e20108 	mvneq	r0, r8, lsl #2
 79c:	17010000 	strne	r0, [r1, -r0]
 7a0:	00953801 	addseq	r3, r5, r1, lsl #16
 7a4:	00958440 	addseq	r8, r5, r0, asr #8
 7a8:	0001fc40 	andeq	pc, r1, r0, asr #24
 7ac:	00020a00 	andeq	r0, r2, r0, lsl #20
 7b0:	01660900 	cmneq	r6, r0, lsl #18
 7b4:	17010000 	strne	r0, [r1, -r0]
 7b8:	0000020a 	andeq	r0, r0, sl, lsl #4
 7bc:	00749102 	rsbseq	r9, r4, r2, lsl #2
 7c0:	01d6040b 	bicseq	r0, r6, fp, lsl #8
 7c4:	ec000000 	stc	0, cr0, [r0], {0}
 7c8:	02000002 	andeq	r0, r0, #2
 7cc:	00024f00 	andeq	r4, r2, r0, lsl #30
 7d0:	6d010400 	cfstrsvs	mvf0, [r1]
 7d4:	01000000 	mrseq	r0, (UNDEF: 0)
 7d8:	0000025d 	andeq	r0, r0, sp, asr r2
 7dc:	000000d8 	ldrdeq	r0, [r0], -r8
 7e0:	40009584 	andmi	r9, r0, r4, lsl #11
 7e4:	40009880 	andmi	r9, r0, r0, lsl #17
 7e8:	0000042a 	andeq	r0, r0, sl, lsr #8
 7ec:	7e070402 	cdpvc	4, 0, cr0, cr7, cr2, {0}
 7f0:	03000000 	movweq	r0, #0
 7f4:	015b021c 	cmpeq	fp, ip, lsl r2
 7f8:	0000009f 	muleq	r0, pc, r0	; <UNPREDICTABLE>
 7fc:	00025104 	andeq	r5, r2, r4, lsl #2
 800:	015d0200 	cmpeq	sp, r0, lsl #4
 804:	00000025 	andeq	r0, r0, r5, lsr #32
 808:	04002302 	streq	r2, [r0], #-770	; 0x302
 80c:	00000263 	andeq	r0, r0, r3, ror #4
 810:	25015e02 	strcs	r5, [r1, #-3586]	; 0xe02
 814:	02000000 	andeq	r0, r0, #0
 818:	fe040423 	cdp2	4, 0, cr0, cr4, cr3, {1}
 81c:	02000001 	andeq	r0, r0, #1
 820:	0025015f 	eoreq	r0, r5, pc, asr r1
 824:	23020000 	movwcs	r0, #8192	; 0x2000
 828:	02100408 	andseq	r0, r0, #134217728	; 0x8000000
 82c:	60020000 	andvs	r0, r2, r0
 830:	00002501 	andeq	r2, r0, r1, lsl #10
 834:	0c230200 	sfmeq	f0, 4, [r3]
 838:	00022704 	andeq	r2, r2, r4, lsl #14
 83c:	01610200 	cmneq	r1, r0, lsl #4
 840:	00000025 	andeq	r0, r0, r5, lsr #32
 844:	04102302 	ldreq	r2, [r0], #-770	; 0x302
 848:	00000272 	andeq	r0, r0, r2, ror r2
 84c:	25016202 	strcs	r6, [r1, #-514]	; 0x202
 850:	02000000 	andeq	r0, r0, #0
 854:	6a041423 	bvs	1058e8 <_start-0x3ff02718>
 858:	02000002 	andeq	r0, r0, #2
 85c:	00250163 	eoreq	r0, r5, r3, ror #2
 860:	23020000 	movwcs	r0, #8192	; 0x2000
 864:	4a050018 	bmi	1408cc <_start-0x3fec7734>
 868:	02000002 	andeq	r0, r0, #2
 86c:	002c0164 	eoreq	r0, ip, r4, ror #2
 870:	18030000 	stmdane	r3, {}	; <UNPREDICTABLE>
 874:	0f018902 	svceq	0x00018902
 878:	06000001 	streq	r0, [r0], -r1
 87c:	004e4f43 	subeq	r4, lr, r3, asr #30
 880:	25018a02 	strcs	r8, [r1, #-2562]	; 0xa02
 884:	02000000 	andeq	r0, r0, #0
 888:	44060023 	strmi	r0, [r6], #-35	; 0x23
 88c:	02005441 	andeq	r5, r0, #1090519040	; 0x41000000
 890:	0025018b 	eoreq	r0, r5, fp, lsl #3
 894:	23020000 	movwcs	r0, #8192	; 0x2000
 898:	55500604 	ldrbpl	r0, [r0, #-1540]	; 0x604
 89c:	8c020044 	stchi	0, cr0, [r2], {68}	; 0x44
 8a0:	00002501 	andeq	r2, r0, r1, lsl #10
 8a4:	08230200 	stmdaeq	r3!, {r9}
 8a8:	56524406 	ldrbpl	r4, [r2], -r6, lsl #8
 8ac:	018d0200 	orreq	r0, sp, r0, lsl #4
 8b0:	00000025 	andeq	r0, r0, r5, lsr #32
 8b4:	040c2302 	streq	r2, [ip], #-770	; 0x302
 8b8:	00000198 	muleq	r0, r8, r1
 8bc:	25018e02 	strcs	r8, [r1, #-3586]	; 0xe02
 8c0:	02000000 	andeq	r0, r0, #0
 8c4:	c9041023 	stmdbgt	r4, {r0, r1, r5, ip}
 8c8:	02000001 	andeq	r0, r0, #1
 8cc:	0025018f 	eoreq	r0, r5, pc, lsl #3
 8d0:	23020000 	movwcs	r0, #8192	; 0x2000
 8d4:	4a050014 	bmi	14092c <_start-0x3fec76d4>
 8d8:	02000001 	andeq	r0, r0, #1
 8dc:	00ab0190 	umlaleq	r0, fp, r0, r1
 8e0:	3c030000 	stccc	0, cr0, [r3], {0}
 8e4:	0603c902 	streq	ip, [r3], -r2, lsl #18
 8e8:	04000002 	streq	r0, [r0], #-2
 8ec:	000001b4 			; <UNDEFINED> instruction: 0x000001b4
 8f0:	2503ca02 	strcs	ip, [r3, #-2562]	; 0xa02
 8f4:	02000000 	andeq	r0, r0, #0
 8f8:	9f040023 	svcls	0x00040023
 8fc:	02000001 	andeq	r0, r0, #1
 900:	002503cb 	eoreq	r0, r5, fp, asr #7
 904:	23020000 	movwcs	r0, #8192	; 0x2000
 908:	018b0404 	orreq	r0, fp, r4, lsl #8
 90c:	cc020000 	stcgt	0, cr0, [r2], {0}
 910:	00002503 	andeq	r2, r0, r3, lsl #10
 914:	08230200 	stmdaeq	r3!, {r9}
 918:	0001e704 	andeq	lr, r1, r4, lsl #14
 91c:	03cd0200 	biceq	r0, sp, #0
 920:	00000025 	andeq	r0, r0, r5, lsr #32
 924:	040c2302 	streq	r2, [ip], #-770	; 0x302
 928:	00000173 	andeq	r0, r0, r3, ror r1
 92c:	2503ce02 	strcs	ip, [r3, #-3586]	; 0xe02
 930:	02000000 	andeq	r0, r0, #0
 934:	c0041023 	andgt	r1, r4, r3, lsr #32
 938:	02000001 	andeq	r0, r0, #1
 93c:	002503cf 	eoreq	r0, r5, pc, asr #7
 940:	23020000 	movwcs	r0, #8192	; 0x2000
 944:	016b0414 	cmneq	fp, r4, lsl r4
 948:	d0020000 	andle	r0, r2, r0
 94c:	00002503 	andeq	r2, r0, r3, lsl #10
 950:	18230200 	stmdane	r3!, {r9}
 954:	0001a504 	andeq	sl, r1, r4, lsl #10
 958:	03d10200 	bicseq	r0, r1, #0
 95c:	00000025 	andeq	r0, r0, r5, lsr #32
 960:	041c2302 	ldreq	r2, [ip], #-770	; 0x302
 964:	00000192 	muleq	r0, r2, r1
 968:	2503d202 	strcs	sp, [r3, #-514]	; 0x202
 96c:	02000000 	andeq	r0, r0, #0
 970:	ee042023 	cdp	0, 0, cr2, cr4, cr3, {1}
 974:	02000001 	andeq	r0, r0, #1
 978:	002503d3 	ldrdeq	r0, [r5], -r3	; <UNPREDICTABLE>
 97c:	23020000 	movwcs	r0, #8192	; 0x2000
 980:	015e0424 	cmpeq	lr, r4, lsr #8
 984:	d4020000 	strle	r0, [r2]
 988:	00002503 	andeq	r2, r0, r3, lsl #10
 98c:	28230200 	stmdacs	r3!, {r9}
 990:	0001f404 	andeq	pc, r1, r4, lsl #8
 994:	03d50200 	bicseq	r0, r5, #0
 998:	00000025 	andeq	r0, r0, r5, lsr #32
 99c:	042c2302 	strteq	r2, [ip], #-770	; 0x302
 9a0:	0000014f 	andeq	r0, r0, pc, asr #2
 9a4:	2503d602 	strcs	sp, [r3, #-1538]	; 0x602
 9a8:	02000000 	andeq	r0, r0, #0
 9ac:	56043023 	strpl	r3, [r4], -r3, lsr #32
 9b0:	02000001 	andeq	r0, r0, #1
 9b4:	002503d7 	ldrdeq	r0, [r5], -r7	; <UNPREDICTABLE>
 9b8:	23020000 	movwcs	r0, #8192	; 0x2000
 9bc:	01ad0434 			; <UNDEFINED> instruction: 0x01ad0434
 9c0:	d8020000 	stmdale	r2, {}	; <UNPREDICTABLE>
 9c4:	00002503 	andeq	r2, r0, r3, lsl #10
 9c8:	38230200 	stmdacc	r3!, {r9}
 9cc:	01440500 	cmpeq	r4, r0, lsl #10
 9d0:	d9020000 	stmdble	r2, {}	; <UNPREDICTABLE>
 9d4:	00011b03 	andeq	r1, r1, r3, lsl #22
 9d8:	07040200 	streq	r0, [r4, -r0, lsl #4]
 9dc:	00000079 	andeq	r0, r0, r9, ror r0
 9e0:	02790107 	rsbseq	r0, r9, #-1073741823	; 0xc0000001
 9e4:	03010000 	movweq	r0, #4096	; 0x1000
 9e8:	00958401 	addseq	r8, r5, r1, lsl #8
 9ec:	0095f440 	addseq	pc, r5, r0, asr #8
 9f0:	00022840 	andeq	r2, r2, r0, asr #16
 9f4:	00025900 	andeq	r5, r2, r0, lsl #18
 9f8:	02370800 	eorseq	r0, r7, #0
 9fc:	03010000 	movweq	r0, #4096	; 0x1000
 a00:	00000025 	andeq	r0, r0, r5, lsr #32
 a04:	09709102 	ldmdbeq	r0!, {r1, r8, ip, pc}^
 a08:	05010069 	streq	r0, [r1, #-105]	; 0x69
 a0c:	00000025 	andeq	r0, r0, r5, lsr #32
 a10:	09789102 	ldmdbeq	r8!, {r1, r8, ip, pc}^
 a14:	0501006a 	streq	r0, [r1, #-106]	; 0x6a
 a18:	00000025 	andeq	r0, r0, r5, lsr #32
 a1c:	00749102 	rsbseq	r9, r4, r2, lsl #2
 a20:	0206010a 	andeq	r0, r6, #-2147483646	; 0x80000002
 a24:	0b010000 	bleq	40a2c <_start-0x3ffc75d4>
 a28:	0095f401 	addseq	pc, r5, r1, lsl #8
 a2c:	00968c40 	addseq	r8, r6, r0, asr #24
 a30:	00025440 	andeq	r5, r2, r0, asr #8
 a34:	18010700 	stmdane	r1, {r8, r9, sl}
 a38:	01000002 	tsteq	r0, r2
 a3c:	968c0118 	pkhbtls	r0, ip, r8, lsl #2
 a40:	96e84000 	strbtls	r4, [r8], r0
 a44:	02804000 	addeq	r4, r0, #0
 a48:	02960000 	addseq	r0, r6, #0
 a4c:	440b0000 	strmi	r0, [fp]
 a50:	01007461 	tsteq	r0, r1, ror #8
 a54:	00029618 	andeq	r9, r2, r8, lsl r6
 a58:	74910200 	ldrvc	r0, [r1], #512	; 0x200
 a5c:	08010200 	stmdaeq	r1, {r9}
 a60:	0000005a 	andeq	r0, r0, sl, asr r0
 a64:	023c0107 	eorseq	r0, ip, #-1073741823	; 0xc0000001
 a68:	22010000 	andcs	r0, r1, #0
 a6c:	0096e801 	addseq	lr, r6, r1, lsl #16
 a70:	00973440 	addseq	r3, r7, r0, asr #8
 a74:	0002ac40 	andeq	sl, r2, r0, asr #24
 a78:	0002c500 	andeq	ip, r2, r0, lsl #10
 a7c:	022e0800 	eoreq	r0, lr, #0
 a80:	22010000 	andcs	r0, r1, #0
 a84:	000002c5 	andeq	r0, r0, r5, asr #5
 a88:	00749102 	rsbseq	r9, r4, r2, lsl #2
 a8c:	0296040c 	addseq	r0, r6, #201326592	; 0xc000000
 a90:	010d0000 	mrseq	r0, (UNDEF: 13)
 a94:	00000258 	andeq	r0, r0, r8, asr r2
 a98:	34012801 	strcc	r2, [r1], #-2049	; 0x801
 a9c:	80400097 	umaalhi	r0, r0, r7, r0
 aa0:	d8400098 	stmdale	r0, {r3, r4, r7}^
 aa4:	0e000002 	cdpeq	0, 0, cr0, cr0, cr2, {0}
 aa8:	00000233 	andeq	r0, r0, r3, lsr r2
 aac:	00252a01 	eoreq	r2, r5, r1, lsl #20
 ab0:	91020000 	mrsls	r0, (UNDEF: 2)
 ab4:	Address 0x00000ab4 is out of bounds.


Disassembly of section .debug_abbrev:

00000000 <.debug_abbrev>:
   0:	10001101 	andne	r1, r0, r1, lsl #2
   4:	12011106 	andne	r1, r1, #-2147483647	; 0x80000001
   8:	1b080301 	blne	200c14 <_start-0x3fe073ec>
   c:	13082508 	movwne	r2, #34056	; 0x8508
  10:	00000005 	andeq	r0, r0, r5
  14:	10001101 	andne	r1, r0, r1, lsl #2
  18:	12011106 	andne	r1, r1, #-2147483647	; 0x80000001
  1c:	1b080301 	blne	200c28 <_start-0x3fe073d8>
  20:	13082508 	movwne	r2, #34056	; 0x8508
  24:	00000005 	andeq	r0, r0, r5
  28:	10001101 	andne	r1, r0, r1, lsl #2
  2c:	12011106 	andne	r1, r1, #-2147483647	; 0x80000001
  30:	1b080301 	blne	200c3c <_start-0x3fe073c4>
  34:	13082508 	movwne	r2, #34056	; 0x8508
  38:	00000005 	andeq	r0, r0, r5
  3c:	25011101 	strcs	r1, [r1, #-257]	; 0x101
  40:	030b130e 	movweq	r1, #45838	; 0xb30e
  44:	110e1b0e 	tstne	lr, lr, lsl #22
  48:	10011201 	andne	r1, r1, r1, lsl #4
  4c:	02000006 	andeq	r0, r0, #6
  50:	0e030016 	mcreq	0, 0, r0, cr3, cr6, {0}
  54:	0b3b0b3a 	bleq	ec2d44 <_start-0x3f1452bc>
  58:	00001349 	andeq	r1, r0, r9, asr #6
  5c:	0b000f03 	bleq	3c70 <_start-0x40004390>
  60:	000e030b 	andeq	r0, lr, fp, lsl #6
  64:	012e0400 	teqeq	lr, r0, lsl #8
  68:	0b3a0e03 	bleq	e8387c <_start-0x3f184784>
  6c:	0c270b3b 	stceq	11, cr0, [r7], #-236	; 0xffffff14
  70:	01111349 	tsteq	r1, r9, asr #6
  74:	06400112 			; <UNDEFINED> instruction: 0x06400112
  78:	00001301 	andeq	r1, r0, r1, lsl #6
  7c:	03000505 	movweq	r0, #1285	; 0x505
  80:	3b0b3a08 	blcc	2ce8a8 <_start-0x3fd39758>
  84:	0213490b 	andseq	r4, r3, #180224	; 0x2c000
  88:	0600000a 	streq	r0, [r0], -sl
  8c:	0b0b0024 	bleq	2c0124 <_start-0x3fd47edc>
  90:	0e030b3e 	vmoveq.16	d3[0], r0
  94:	2e070000 	cdpcs	0, 0, cr0, cr7, cr0, {0}
  98:	030c3f01 	movweq	r3, #52993	; 0xcf01
  9c:	3b0b3a0e 	blcc	2ce8dc <_start-0x3fd39724>
  a0:	490c270b 	stmdbmi	ip, {r0, r1, r3, r8, r9, sl, sp}
  a4:	12011113 	andne	r1, r1, #-1073741820	; 0xc0000004
  a8:	01064001 	tsteq	r6, r1
  ac:	08000013 	stmdaeq	r0, {r0, r1, r4}
  b0:	0e030005 	cdpeq	0, 0, cr0, cr3, cr5, {0}
  b4:	0b3b0b3a 	bleq	ec2da4 <_start-0x3f14525c>
  b8:	0a021349 	beq	84de4 <_start-0x3ff8321c>
  bc:	34090000 	strcc	r0, [r9]
  c0:	3a0e0300 	bcc	380cc8 <_start-0x3fc87338>
  c4:	490b3b0b 	stmdbmi	fp, {r0, r1, r3, r8, r9, fp, ip, sp}
  c8:	000a0213 	andeq	r0, sl, r3, lsl r2
  cc:	000f0a00 	andeq	r0, pc, r0, lsl #20
  d0:	13490b0b 	movtne	r0, #39691	; 0x9b0b
  d4:	260b0000 	strcs	r0, [fp], -r0
  d8:	00134900 	andseq	r4, r3, r0, lsl #18
  dc:	00340c00 	eorseq	r0, r4, r0, lsl #24
  e0:	0b3a0803 	bleq	e820f4 <_start-0x3f185f0c>
  e4:	13490b3b 	movtne	r0, #39739	; 0x9b3b
  e8:	00000a02 	andeq	r0, r0, r2, lsl #20
  ec:	0b00240d 	bleq	9128 <_start-0x3fffeed8>
  f0:	030b3e0b 	movweq	r3, #48651	; 0xbe0b
  f4:	0e000008 	cdpeq	0, 0, cr0, cr0, cr8, {0}
  f8:	0111010b 	tsteq	r1, fp, lsl #2
  fc:	00000112 	andeq	r0, r0, r2, lsl r1
 100:	4901010f 	stmdbmi	r1, {r0, r1, r2, r3, r8}
 104:	00130113 	andseq	r0, r3, r3, lsl r1
 108:	00211000 	eoreq	r1, r1, r0
 10c:	0b2f1349 	bleq	bc4e38 <_start-0x3f4431c8>
 110:	0a110000 	beq	440118 <_start-0x3fbc7ee8>
 114:	3a0e0300 	bcc	380d1c <_start-0x3fc872e4>
 118:	110b3b0b 	tstne	fp, fp, lsl #22
 11c:	12000001 	andne	r0, r0, #1
 120:	0111010b 	tsteq	r1, fp, lsl #2
 124:	13010112 	movwne	r0, #4370	; 0x1112
 128:	34130000 	ldrcc	r0, [r3]
 12c:	3a080300 	bcc	200d34 <_start-0x3fe072cc>
 130:	49053b0b 	stmdbmi	r5, {r0, r1, r3, r8, r9, fp, ip, sp}
 134:	000a0213 	andeq	r0, sl, r3, lsl r2
 138:	012e1400 	teqeq	lr, r0, lsl #8
 13c:	0e030c3f 	mcreq	12, 0, r0, cr3, cr15, {1}
 140:	053b0b3a 	ldreq	r0, [fp, #-2874]!	; 0xb3a
 144:	13490c27 	movtne	r0, #39975	; 0x9c27
 148:	01120111 	tsteq	r2, r1, lsl r1
 14c:	13010640 	movwne	r0, #5696	; 0x1640
 150:	05150000 	ldreq	r0, [r5]
 154:	3a080300 	bcc	200d5c <_start-0x3fe072a4>
 158:	49053b0b 	stmdbmi	r5, {r0, r1, r3, r8, r9, fp, ip, sp}
 15c:	000a0213 	andeq	r0, sl, r3, lsl r2
 160:	00181600 	andseq	r1, r8, r0, lsl #12
 164:	34170000 	ldrcc	r0, [r7]
 168:	3a0e0300 	bcc	380d70 <_start-0x3fc87290>
 16c:	49053b0b 	stmdbmi	r5, {r0, r1, r3, r8, r9, fp, ip, sp}
 170:	000a0213 	andeq	r0, sl, r3, lsl r2
 174:	012e1800 	teqeq	lr, r0, lsl #16
 178:	0e030c3f 	mcreq	12, 0, r0, cr3, cr15, {1}
 17c:	053b0b3a 	ldreq	r0, [fp, #-2874]!	; 0xb3a
 180:	01110c27 	tsteq	r1, r7, lsr #24
 184:	06400112 			; <UNDEFINED> instruction: 0x06400112
 188:	00001301 	andeq	r1, r0, r1, lsl #6
 18c:	03003419 	movweq	r3, #1049	; 0x419
 190:	3b0b3a0e 	blcc	2ce9d0 <_start-0x3fd39630>
 194:	3f13490b 	svccc	0x0013490b
 198:	000c3c0c 	andeq	r3, ip, ip, lsl #24
 19c:	00341a00 	eorseq	r1, r4, r0, lsl #20
 1a0:	0b3a0e03 	bleq	e839b4 <_start-0x3f18464c>
 1a4:	13490b3b 	movtne	r0, #39739	; 0x9b3b
 1a8:	0a020c3f 	beq	832ac <_start-0x3ff84d54>
 1ac:	01000000 	mrseq	r0, (UNDEF: 0)
 1b0:	0e250111 	mcreq	1, 1, r0, cr5, cr1, {0}
 1b4:	0e030b13 	vmoveq.32	d3[0], r0
 1b8:	01110e1b 	tsteq	r1, fp, lsl lr
 1bc:	06100112 			; <UNDEFINED> instruction: 0x06100112
 1c0:	24020000 	strcs	r0, [r2]
 1c4:	3e0b0b00 	vmlacc.f64	d0, d11, d0
 1c8:	000e030b 	andeq	r0, lr, fp, lsl #6
 1cc:	01130300 	tsteq	r3, r0, lsl #6
 1d0:	0b3a0b0b 	bleq	e82e04 <_start-0x3f1851fc>
 1d4:	1301053b 	movwne	r0, #5435	; 0x153b
 1d8:	0d040000 	stceq	0, cr0, [r4]
 1dc:	3a080300 	bcc	200de4 <_start-0x3fe0721c>
 1e0:	49053b0b 	stmdbmi	r5, {r0, r1, r3, r8, r9, fp, ip, sp}
 1e4:	000a3813 	andeq	r3, sl, r3, lsl r8
 1e8:	000d0500 	andeq	r0, sp, r0, lsl #10
 1ec:	0b3a0e03 	bleq	e83a00 <_start-0x3f184600>
 1f0:	1349053b 	movtne	r0, #38203	; 0x953b
 1f4:	00000a38 	andeq	r0, r0, r8, lsr sl
 1f8:	03001606 	movweq	r1, #1542	; 0x606
 1fc:	3b0b3a0e 	blcc	2cea3c <_start-0x3fd395c4>
 200:	00134905 	andseq	r4, r3, r5, lsl #18
 204:	002e0700 	eoreq	r0, lr, r0, lsl #14
 208:	0e030c3f 	mcreq	12, 0, r0, cr3, cr15, {1}
 20c:	0b3b0b3a 	bleq	ec2efc <_start-0x3f145104>
 210:	01120111 	tsteq	r2, r1, lsl r1
 214:	00000640 	andeq	r0, r0, r0, asr #12
 218:	3f012e08 	svccc	0x00012e08
 21c:	3a0e030c 	bcc	380e54 <_start-0x3fc871ac>
 220:	270b3b0b 	strcs	r3, [fp, -fp, lsl #22]
 224:	1201110c 	andne	r1, r1, #3
 228:	01064001 	tsteq	r6, r1
 22c:	09000013 	stmdbeq	r0, {r0, r1, r4}
 230:	0e030005 	cdpeq	0, 0, cr0, cr3, cr5, {0}
 234:	0b3b0b3a 	bleq	ec2f24 <_start-0x3f1450dc>
 238:	0a021349 	beq	84f64 <_start-0x3ff8309c>
 23c:	260a0000 	strcs	r0, [sl], -r0
 240:	00134900 	andseq	r4, r3, r0, lsl #18
 244:	000f0b00 	andeq	r0, pc, r0, lsl #22
 248:	13490b0b 	movtne	r0, #39691	; 0x9b0b
 24c:	01000000 	mrseq	r0, (UNDEF: 0)
 250:	0e250111 	mcreq	1, 1, r0, cr5, cr1, {0}
 254:	0e030b13 	vmoveq.32	d3[0], r0
 258:	01110e1b 	tsteq	r1, fp, lsl lr
 25c:	06100112 			; <UNDEFINED> instruction: 0x06100112
 260:	24020000 	strcs	r0, [r2]
 264:	3e0b0b00 	vmlacc.f64	d0, d11, d0
 268:	000e030b 	andeq	r0, lr, fp, lsl #6
 26c:	01130300 	tsteq	r3, r0, lsl #6
 270:	0b3a0b0b 	bleq	e82ea4 <_start-0x3f18515c>
 274:	1301053b 	movwne	r0, #5435	; 0x153b
 278:	0d040000 	stceq	0, cr0, [r4]
 27c:	3a0e0300 	bcc	380e84 <_start-0x3fc8717c>
 280:	49053b0b 	stmdbmi	r5, {r0, r1, r3, r8, r9, fp, ip, sp}
 284:	000a3813 	andeq	r3, sl, r3, lsl r8
 288:	00160500 	andseq	r0, r6, r0, lsl #10
 28c:	0b3a0e03 	bleq	e83aa0 <_start-0x3f184560>
 290:	1349053b 	movtne	r0, #38203	; 0x953b
 294:	0d060000 	stceq	0, cr0, [r6]
 298:	3a080300 	bcc	200ea0 <_start-0x3fe07160>
 29c:	49053b0b 	stmdbmi	r5, {r0, r1, r3, r8, r9, fp, ip, sp}
 2a0:	000a3813 	andeq	r3, sl, r3, lsl r8
 2a4:	012e0700 	teqeq	lr, r0, lsl #14
 2a8:	0e030c3f 	mcreq	12, 0, r0, cr3, cr15, {1}
 2ac:	0b3b0b3a 	bleq	ec2f9c <_start-0x3f145064>
 2b0:	01110c27 	tsteq	r1, r7, lsr #24
 2b4:	06400112 			; <UNDEFINED> instruction: 0x06400112
 2b8:	00001301 	andeq	r1, r0, r1, lsl #6
 2bc:	03000508 	movweq	r0, #1288	; 0x508
 2c0:	3b0b3a0e 	blcc	2ceb00 <_start-0x3fd39500>
 2c4:	0213490b 	andseq	r4, r3, #180224	; 0x2c000
 2c8:	0900000a 	stmdbeq	r0, {r1, r3}
 2cc:	08030034 	stmdaeq	r3, {r2, r4, r5}
 2d0:	0b3b0b3a 	bleq	ec2fc0 <_start-0x3f145040>
 2d4:	0a021349 	beq	85000 <_start-0x3ff83000>
 2d8:	2e0a0000 	cdpcs	0, 0, cr0, cr10, cr0, {0}
 2dc:	030c3f00 	movweq	r3, #52992	; 0xcf00
 2e0:	3b0b3a0e 	blcc	2ceb20 <_start-0x3fd394e0>
 2e4:	110c270b 	tstne	ip, fp, lsl #14
 2e8:	40011201 	andmi	r1, r1, r1, lsl #4
 2ec:	0b000006 	bleq	30c <_start-0x40007cf4>
 2f0:	08030005 	stmdaeq	r3, {r0, r2}
 2f4:	0b3b0b3a 	bleq	ec2fe4 <_start-0x3f14501c>
 2f8:	0a021349 	beq	85024 <_start-0x3ff82fdc>
 2fc:	0f0c0000 	svceq	0x000c0000
 300:	490b0b00 	stmdbmi	fp, {r8, r9, fp}
 304:	0d000013 	stceq	0, cr0, [r0, #-76]	; 0xffffffb4
 308:	0c3f012e 	ldfeqs	f0, [pc], #-184	; 258 <_start-0x40007da8>
 30c:	0b3a0e03 	bleq	e83b20 <_start-0x3f1844e0>
 310:	0c270b3b 	stceq	11, cr0, [r7], #-236	; 0xffffff14
 314:	01120111 	tsteq	r2, r1, lsl r1
 318:	00000640 	andeq	r0, r0, r0, asr #12
 31c:	0300340e 	movweq	r3, #1038	; 0x40e
 320:	3b0b3a0e 	blcc	2ceb60 <_start-0x3fd394a0>
 324:	0213490b 	andseq	r4, r3, #180224	; 0x2c000
 328:	0000000a 	andeq	r0, r0, sl

Disassembly of section .debug_aranges:

00000000 <.debug_aranges>:
   0:	0000001c 	andeq	r0, r0, ip, lsl r0
   4:	00000002 	andeq	r0, r0, r2
   8:	00040000 	andeq	r0, r4, r0
   c:	00000000 	andeq	r0, r0, r0
  10:	40008000 	andmi	r8, r0, r0
  14:	00000134 	andeq	r0, r0, r4, lsr r1
	...
  20:	0000001c 	andeq	r0, r0, ip, lsl r0
  24:	004c0002 	subeq	r0, ip, r2
  28:	00040000 	andeq	r0, r4, r0
  2c:	00000000 	andeq	r0, r0, r0
  30:	40008140 	andmi	r8, r0, r0, asr #2
  34:	00000094 	muleq	r0, r4, r0
	...
  40:	0000001c 	andeq	r0, r0, ip, lsl r0
  44:	00a00002 	adceq	r0, r0, r2
  48:	00040000 	andeq	r0, r4, r0
  4c:	00000000 	andeq	r0, r0, r0
  50:	400081d4 	ldrdmi	r8, [r0], -r4
  54:	000000b0 	strheq	r0, [r0], -r0	; <UNPREDICTABLE>
	...
  60:	0000001c 	andeq	r0, r0, ip, lsl r0
  64:	00f40002 	rscseq	r0, r4, r2
  68:	00040000 	andeq	r0, r4, r0
  6c:	00000000 	andeq	r0, r0, r0
  70:	40008284 	andmi	r8, r0, r4, lsl #5
  74:	000011f4 	strdeq	r1, [r0], -r4
	...
  80:	0000001c 	andeq	r0, r0, ip, lsl r0
  84:	05b60002 	ldreq	r0, [r6, #2]!
  88:	00040000 	andeq	r0, r4, r0
  8c:	00000000 	andeq	r0, r0, r0
  90:	40009478 	andmi	r9, r0, r8, ror r4
  94:	0000010c 	andeq	r0, r0, ip, lsl #2
	...
  a0:	0000001c 	andeq	r0, r0, ip, lsl r0
  a4:	07c70002 	strbeq	r0, [r7, r2]
  a8:	00040000 	andeq	r0, r4, r0
  ac:	00000000 	andeq	r0, r0, r0
  b0:	40009584 	andmi	r9, r0, r4, lsl #11
  b4:	000002fc 	strdeq	r0, [r0], -ip
	...

Disassembly of section .debug_loc:

00000000 <.debug_loc>:
   0:	00000000 	andeq	r0, r0, r0
   4:	00000004 	andeq	r0, r0, r4
   8:	007d0002 	rsbseq	r0, sp, r2
   c:	00000004 	andeq	r0, r0, r4
  10:	00000008 	andeq	r0, r0, r8
  14:	047d0002 	ldrbteq	r0, [sp], #-2
  18:	00000008 	andeq	r0, r0, r8
  1c:	00000050 	andeq	r0, r0, r0, asr r0
  20:	047b0002 	ldrbteq	r0, [fp], #-2
	...
  2c:	00000050 	andeq	r0, r0, r0, asr r0
  30:	00000054 	andeq	r0, r0, r4, asr r0
  34:	007d0002 	rsbseq	r0, sp, r2
  38:	00000054 	andeq	r0, r0, r4, asr r0
  3c:	00000058 	andeq	r0, r0, r8, asr r0
  40:	087d0002 	ldmdaeq	sp!, {r1}^
  44:	00000058 	andeq	r0, r0, r8, asr r0
  48:	000001f8 	strdeq	r0, [r0], -r8
  4c:	047b0002 	ldrbteq	r0, [fp], #-2
	...
  58:	000001f8 	strdeq	r0, [r0], -r8
  5c:	000001fc 	strdeq	r0, [r0], -ip
  60:	007d0002 	rsbseq	r0, sp, r2
  64:	000001fc 	strdeq	r0, [r0], -ip
  68:	00000200 	andeq	r0, r0, r0, lsl #4
  6c:	087d0002 	ldmdaeq	sp!, {r1}^
  70:	00000200 	andeq	r0, r0, r0, lsl #4
  74:	00000268 	andeq	r0, r0, r8, ror #4
  78:	047b0002 	ldrbteq	r0, [fp], #-2
	...
  84:	00000268 	andeq	r0, r0, r8, ror #4
  88:	0000026c 	andeq	r0, r0, ip, ror #4
  8c:	007d0002 	rsbseq	r0, sp, r2
  90:	0000026c 	andeq	r0, r0, ip, ror #4
  94:	00000270 	andeq	r0, r0, r0, ror r2
  98:	047d0002 	ldrbteq	r0, [sp], #-2
  9c:	00000270 	andeq	r0, r0, r0, ror r2
  a0:	000002fc 	strdeq	r0, [r0], -ip
  a4:	047b0002 	ldrbteq	r0, [fp], #-2
	...
  b0:	000002fc 	strdeq	r0, [r0], -ip
  b4:	00000300 	andeq	r0, r0, r0, lsl #6
  b8:	007d0002 	rsbseq	r0, sp, r2
  bc:	00000300 	andeq	r0, r0, r0, lsl #6
  c0:	00000304 	andeq	r0, r0, r4, lsl #6
  c4:	087d0002 	ldmdaeq	sp!, {r1}^
  c8:	00000304 	andeq	r0, r0, r4, lsl #6
  cc:	00000794 	muleq	r0, r4, r7
  d0:	047b0002 	ldrbteq	r0, [fp], #-2
	...
  dc:	00000794 	muleq	r0, r4, r7
  e0:	00000798 	muleq	r0, r8, r7
  e4:	007d0002 	rsbseq	r0, sp, r2
  e8:	00000798 	muleq	r0, r8, r7
  ec:	0000079c 	muleq	r0, ip, r7
  f0:	047d0002 	ldrbteq	r0, [sp], #-2
  f4:	0000079c 	muleq	r0, ip, r7
  f8:	00000814 	andeq	r0, r0, r4, lsl r8
  fc:	047b0002 	ldrbteq	r0, [fp], #-2
	...
 108:	00000814 	andeq	r0, r0, r4, lsl r8
 10c:	00000818 	andeq	r0, r0, r8, lsl r8
 110:	007d0002 	rsbseq	r0, sp, r2
 114:	00000818 	andeq	r0, r0, r8, lsl r8
 118:	0000081c 	andeq	r0, r0, ip, lsl r8
 11c:	087d0002 	ldmdaeq	sp!, {r1}^
 120:	0000081c 	andeq	r0, r0, ip, lsl r8
 124:	0000114c 	andeq	r1, r0, ip, asr #2
 128:	047b0002 	ldrbteq	r0, [fp], #-2
	...
 134:	0000114c 	andeq	r1, r0, ip, asr #2
 138:	00001150 	andeq	r1, r0, r0, asr r1
 13c:	007d0002 	rsbseq	r0, sp, r2
 140:	00001150 	andeq	r1, r0, r0, asr r1
 144:	00001154 	andeq	r1, r0, r4, asr r1
 148:	0c7d0002 	ldcleq	0, cr0, [sp], #-8
 14c:	00001154 	andeq	r1, r0, r4, asr r1
 150:	00001158 	andeq	r1, r0, r8, asr r1
 154:	147d0002 	ldrbtne	r0, [sp], #-2
 158:	00001158 	andeq	r1, r0, r8, asr r1
 15c:	0000119c 	muleq	r0, ip, r1
 160:	107b0002 	rsbsne	r0, fp, r2
	...
 16c:	0000119c 	muleq	r0, ip, r1
 170:	000011a0 	andeq	r1, r0, r0, lsr #3
 174:	007d0002 	rsbseq	r0, sp, r2
 178:	000011a0 	andeq	r1, r0, r0, lsr #3
 17c:	000011a4 	andeq	r1, r0, r4, lsr #3
 180:	107d0002 	rsbsne	r0, sp, r2
 184:	000011a4 	andeq	r1, r0, r4, lsr #3
 188:	000011a8 	andeq	r1, r0, r8, lsr #3
 18c:	187d0002 	ldmdane	sp!, {r1}^
 190:	000011a8 	andeq	r1, r0, r8, lsr #3
 194:	000011f4 	strdeq	r1, [r0], -r4
 198:	147b0002 	ldrbtne	r0, [fp], #-2
	...
 1a8:	00000004 	andeq	r0, r0, r4
 1ac:	007d0002 	rsbseq	r0, sp, r2
 1b0:	00000004 	andeq	r0, r0, r4
 1b4:	00000008 	andeq	r0, r0, r8
 1b8:	047d0002 	ldrbteq	r0, [sp], #-2
 1bc:	00000008 	andeq	r0, r0, r8
 1c0:	00000064 	andeq	r0, r0, r4, rrx
 1c4:	047b0002 	ldrbteq	r0, [fp], #-2
	...
 1d0:	00000064 	andeq	r0, r0, r4, rrx
 1d4:	00000068 	andeq	r0, r0, r8, rrx
 1d8:	007d0002 	rsbseq	r0, sp, r2
 1dc:	00000068 	andeq	r0, r0, r8, rrx
 1e0:	0000006c 	andeq	r0, r0, ip, rrx
 1e4:	087d0002 	ldmdaeq	sp!, {r1}^
 1e8:	0000006c 	andeq	r0, r0, ip, rrx
 1ec:	000000c0 	andeq	r0, r0, r0, asr #1
 1f0:	047b0002 	ldrbteq	r0, [fp], #-2
	...
 1fc:	000000c0 	andeq	r0, r0, r0, asr #1
 200:	000000c4 	andeq	r0, r0, r4, asr #1
 204:	007d0002 	rsbseq	r0, sp, r2
 208:	000000c4 	andeq	r0, r0, r4, asr #1
 20c:	000000c8 	andeq	r0, r0, r8, asr #1
 210:	087d0002 	ldmdaeq	sp!, {r1}^
 214:	000000c8 	andeq	r0, r0, r8, asr #1
 218:	0000010c 	andeq	r0, r0, ip, lsl #2
 21c:	047b0002 	ldrbteq	r0, [fp], #-2
	...
 22c:	00000004 	andeq	r0, r0, r4
 230:	007d0002 	rsbseq	r0, sp, r2
 234:	00000004 	andeq	r0, r0, r4
 238:	00000008 	andeq	r0, r0, r8
 23c:	047d0002 	ldrbteq	r0, [sp], #-2
 240:	00000008 	andeq	r0, r0, r8
 244:	00000070 	andeq	r0, r0, r0, ror r0
 248:	047b0002 	ldrbteq	r0, [fp], #-2
	...
 254:	00000070 	andeq	r0, r0, r0, ror r0
 258:	00000074 	andeq	r0, r0, r4, ror r0
 25c:	007d0002 	rsbseq	r0, sp, r2
 260:	00000074 	andeq	r0, r0, r4, ror r0
 264:	00000078 	andeq	r0, r0, r8, ror r0
 268:	047d0002 	ldrbteq	r0, [sp], #-2
 26c:	00000078 	andeq	r0, r0, r8, ror r0
 270:	00000108 	andeq	r0, r0, r8, lsl #2
 274:	047b0002 	ldrbteq	r0, [fp], #-2
	...
 280:	00000108 	andeq	r0, r0, r8, lsl #2
 284:	0000010c 	andeq	r0, r0, ip, lsl #2
 288:	007d0002 	rsbseq	r0, sp, r2
 28c:	0000010c 	andeq	r0, r0, ip, lsl #2
 290:	00000110 	andeq	r0, r0, r0, lsl r1
 294:	087d0002 	ldmdaeq	sp!, {r1}^
 298:	00000110 	andeq	r0, r0, r0, lsl r1
 29c:	00000164 	andeq	r0, r0, r4, ror #2
 2a0:	047b0002 	ldrbteq	r0, [fp], #-2
	...
 2ac:	00000164 	andeq	r0, r0, r4, ror #2
 2b0:	00000168 	andeq	r0, r0, r8, ror #2
 2b4:	007d0002 	rsbseq	r0, sp, r2
 2b8:	00000168 	andeq	r0, r0, r8, ror #2
 2bc:	0000016c 	andeq	r0, r0, ip, ror #2
 2c0:	087d0002 	ldmdaeq	sp!, {r1}^
 2c4:	0000016c 	andeq	r0, r0, ip, ror #2
 2c8:	000001b0 			; <UNDEFINED> instruction: 0x000001b0
 2cc:	047b0002 	ldrbteq	r0, [fp], #-2
	...
 2d8:	000001b0 			; <UNDEFINED> instruction: 0x000001b0
 2dc:	000001b4 			; <UNDEFINED> instruction: 0x000001b4
 2e0:	007d0002 	rsbseq	r0, sp, r2
 2e4:	000001b4 			; <UNDEFINED> instruction: 0x000001b4
 2e8:	000001b8 			; <UNDEFINED> instruction: 0x000001b8
 2ec:	087d0002 	ldmdaeq	sp!, {r1}^
 2f0:	000001b8 			; <UNDEFINED> instruction: 0x000001b8
 2f4:	000002fc 	strdeq	r0, [r0], -ip
 2f8:	047b0002 	ldrbteq	r0, [fp], #-2
	...

Disassembly of section .debug_str:

00000000 <.debug_str>:
   0:	75625f5f 	strbvc	r5, [r2, #-3935]!	; 0xf5f
   4:	69746c69 	ldmdbvs	r4!, {r0, r3, r5, r6, sl, fp, sp, lr}^
   8:	61765f6e 	cmnvs	r6, lr, ror #30
   c:	73696c5f 	cmnvc	r9, #24320	; 0x5f00
  10:	69730074 	ldmdbvs	r3!, {r2, r4, r5, r6}^
  14:	656c706d 	strbvs	r7, [ip, #-109]!	; 0x6d
  18:	7274735f 	rsbsvc	r7, r4, #2080374785	; 0x7c000001
  1c:	6c756f74 	ldclvs	15, cr6, [r5], #-464	; 0xfffffe30
  20:	6c617600 	stclvs	6, cr7, [r1]
  24:	63006575 	movwvs	r6, #1397	; 0x575
  28:	746e756f 	strbtvc	r7, [lr], #-1391	; 0x56f
  2c:	696b7300 	stmdbvs	fp!, {r8, r9, ip, sp, lr}^
  30:	74615f70 	strbtvc	r5, [r1], #-3952	; 0xf70
  34:	5f00696f 	svcpl	0x0000696f
  38:	756f745f 	strbvc	r7, [pc, #-1119]!	; fffffbe1 <_ctype+0xbfff5b09>
  3c:	72657070 	rsbvc	r7, r5, #112	; 0x70
  40:	675f5f00 	ldrbvs	r5, [pc, -r0, lsl #30]
  44:	5f63756e 	svcpl	0x0063756e
  48:	6c5f6176 	ldfvse	f6, [pc], {118}	; 0x76
  4c:	00747369 	rsbseq	r7, r4, r9, ror #6
  50:	63657270 	cmnvs	r5, #7
  54:	6f697369 	svcvs	0x00697369
  58:	6e75006e 	cdpvs	0, 7, cr0, cr5, cr14, {3}
  5c:	6e676973 	mcrvs	9, 3, r6, cr7, cr3, {3}
  60:	63206465 	teqvs	r0, #1694498816	; 0x65000000
  64:	00726168 	rsbseq	r6, r2, r8, ror #2
  68:	65736162 	ldrbvs	r6, [r3, #-354]!	; 0x162
  6c:	554e4700 	strbpl	r4, [lr, #-1792]	; 0x700
  70:	34204320 	strtcc	r4, [r0], #-800	; 0x320
  74:	322e362e 	eorcc	r3, lr, #48234496	; 0x2e00000
  78:	6e6f6c00 	cdpvs	12, 6, cr6, cr15, cr0, {0}
  7c:	6e752067 	cdpvs	0, 7, cr2, cr5, cr7, {3}
  80:	6e676973 	mcrvs	9, 3, r6, cr7, cr3, {3}
  84:	69206465 	stmdbvs	r0!, {r0, r2, r5, r6, sl, sp, lr}
  88:	7300746e 	movwvc	r7, #1134	; 0x46e
  8c:	6c706d69 	ldclvs	13, cr6, [r0], #-420	; 0xfffffe5c
  90:	74735f65 	ldrbtvc	r5, [r3], #-3941	; 0xf65
  94:	6c6f7472 	cfstrdvs	mvd7, [pc], #-456	; fffffed4 <_ctype+0xbfff5dfc>
  98:	6d6f6300 	stclvs	3, cr6, [pc]	; a0 <_start-0x40007f60>
  9c:	2f6e6f6d 	svccs	0x006e6f6d
  a0:	2f637273 	svccs	0x00637273
  a4:	6e697270 	mcrvs	2, 3, r7, cr9, cr0, {3}
  a8:	632e6674 	teqvs	lr, #121634816	; 0x7400000
  ac:	616c6600 	cmnvs	ip, r0, lsl #12
  b0:	71007367 	tstvc	r0, r7, ror #6
  b4:	696c6175 	stmdbvs	ip!, {r0, r2, r4, r5, r6, r8, sp, lr}^
  b8:	72656966 	rsbvc	r6, r5, #1671168	; 0x198000
  bc:	73657200 	cmnvc	r5, #0
  c0:	00746c75 	rsbseq	r6, r4, r5, ror ip
  c4:	65706572 	ldrbvs	r6, [r0, #-1394]!	; 0x572
  c8:	73007461 	movwvc	r7, #1121	; 0x461
  cc:	6c6e7274 	sfmvs	f7, 2, [lr], #-464	; 0xfffffe30
  d0:	65006e65 	strvs	r6, [r0, #-3685]	; 0xe65
  d4:	0070646e 	rsbseq	r6, r0, lr, ror #8
  d8:	655c3a45 	ldrbvs	r3, [ip, #-2629]	; 0xa45
  dc:	70696c63 	rsbvc	r6, r9, r3, ror #24
  e0:	705f6573 	subsvc	r6, pc, r3, ror r5	; <UNPREDICTABLE>
  e4:	656a6f72 	strbvs	r6, [sl, #-3954]!	; 0xf72
  e8:	5c737463 	cfldrdpl	mvd7, [r3], #-396	; 0xfffffe74
  ec:	00435452 	subeq	r5, r3, r2, asr r4
  f0:	7974635f 	ldmdbvc	r4!, {r0, r1, r2, r3, r4, r6, r8, r9, sp, lr}^
  f4:	64006570 	strvs	r6, [r0], #-1392	; 0x570
  f8:	74696769 	strbtvc	r6, [r9], #-1897	; 0x769
  fc:	72700073 	rsbsvc	r0, r0, #115	; 0x73
 100:	62746e69 	rsbsvs	r6, r4, #1680	; 0x690
 104:	65666675 	strbvs	r6, [r6, #-1653]!	; 0x675
 108:	69660072 	stmdbvs	r6!, {r1, r4, r5, r6}^
 10c:	5f646c65 	svcpl	0x00646c65
 110:	74646977 	strbtvc	r6, [r4], #-2423	; 0x977
 114:	72610068 	rsbvc	r0, r1, #104	; 0x68
 118:	6e007367 	cdpvs	3, 0, cr7, cr0, cr7, {3}
 11c:	65626d75 	strbvs	r6, [r2, #-3445]!	; 0xd75
 120:	6f6c0072 	svcvs	0x006c0072
 124:	6920676e 	stmdbvs	r0!, {r1, r2, r3, r5, r6, r8, r9, sl, sp, lr}
 128:	7300746e 	movwvc	r7, #1134	; 0x46e
 12c:	006e6769 	rsbeq	r6, lr, r9, ror #14
 130:	65725f5f 	ldrbvs	r5, [r2, #-3935]!	; 0xf5f
 134:	69730073 	ldmdbvs	r3!, {r0, r1, r4, r5, r6}^
 138:	7600657a 			; <UNDEFINED> instruction: 0x7600657a
 13c:	69727073 	ldmdbvs	r2!, {r0, r1, r4, r5, r6, ip, sp, lr}^
 140:	0066746e 	rsbeq	r7, r6, lr, ror #8
 144:	74726175 	ldrbtvc	r6, [r2], #-373	; 0x175
 148:	70670032 	rsbvc	r0, r7, r2, lsr r0
 14c:	55003161 	strpl	r3, [r0, #-353]	; 0x161
 150:	50544e49 	subspl	r4, r4, r9, asr #28
 154:	49550032 	ldmdbmi	r5, {r1, r4, r5}^
 158:	5053544e 	subspl	r5, r3, lr, asr #8
 15c:	42550032 	subsmi	r0, r5, #50	; 0x32
 160:	56494452 			; <UNDEFINED> instruction: 0x56494452
 164:	73700032 	cmnvc	r0, #50	; 0x32
 168:	55007274 	strpl	r7, [r0, #-628]	; 0x274
 16c:	41545346 	cmpmi	r4, r6, asr #6
 170:	55003254 	strpl	r3, [r0, #-596]	; 0x254
 174:	54535254 	ldrbpl	r5, [r3], #-596	; 0x254
 178:	00325441 	eorseq	r5, r2, r1, asr #8
 17c:	74726175 	ldrbtvc	r6, [r2], #-373	; 0x175
 180:	696e695f 	stmdbvs	lr!, {r0, r1, r2, r3, r4, r6, r8, fp, sp, lr}^
 184:	61640074 	smcvs	16388	; 0x4004
 188:	55006174 	strpl	r6, [r0, #-372]	; 0x174
 18c:	4e4f4346 	cdpmi	3, 4, cr4, cr15, cr6, {2}
 190:	54550032 	ldrbpl	r0, [r5], #-50	; 0x32
 194:	00324858 	eorseq	r4, r2, r8, asr r8
 198:	504e4f43 	subpl	r4, lr, r3, asr #30
 19c:	55004e44 	strpl	r4, [r0, #-3652]	; 0xe44
 1a0:	324e4f43 	subcc	r4, lr, #268	; 0x10c
 1a4:	534d5500 	movtpl	r5, #54528	; 0xd500
 1a8:	32544154 	subscc	r4, r4, #21
 1ac:	4e495500 	cdpmi	5, 4, cr5, cr9, cr0, {0}
 1b0:	00324d54 	eorseq	r4, r2, r4, asr sp
 1b4:	4f434c55 	svcmi	0x00434c55
 1b8:	7000324e 	andvc	r3, r0, lr, asr #4
 1bc:	00637475 	rsbeq	r7, r3, r5, ror r4
 1c0:	53524555 	cmppl	r2, #356515840	; 0x15400000
 1c4:	32544154 	subscc	r4, r4, #21
 1c8:	44555000 	ldrbmi	r5, [r5]
 1cc:	004e4450 	subeq	r4, lr, r0, asr r4
 1d0:	6d6d6f63 	stclvs	15, cr6, [sp, #-396]!	; 0xfffffe74
 1d4:	732f6e6f 	teqvc	pc, #1776	; 0x6f0
 1d8:	752f6372 	strvc	r6, [pc, #-882]!	; fffffe6e <_ctype+0xbfff5d96>
 1dc:	2e747261 	cdpcs	2, 7, cr7, cr4, cr1, {3}
 1e0:	75700063 	ldrbvc	r0, [r0, #-99]!	; 0x63
 1e4:	55007374 	strpl	r7, [r0, #-884]	; 0x374
 1e8:	4e4f434d 	cdpmi	3, 4, cr4, cr15, cr13, {2}
 1ec:	52550032 	subspl	r0, r5, #50	; 0x32
 1f0:	00324858 	eorseq	r4, r2, r8, asr r8
 1f4:	41524655 	cmpmi	r2, r5, asr r6
 1f8:	4c415643 	mcrrmi	6, 4, r5, r1, cr3
 1fc:	43420032 	movtmi	r0, #8242	; 0x2032
 200:	554f4844 	strbpl	r4, [pc, #-2116]	; fffff9c4 <_ctype+0xbfff58ec>
 204:	41550052 	cmpmi	r5, r2, asr r0
 208:	495f5452 	ldmdbmi	pc, {r1, r4, r6, sl, ip, lr}^	; <UNPREDICTABLE>
 20c:	0054494e 	subseq	r4, r4, lr, asr #18
 210:	57444342 	strbpl	r4, [r4, -r2, asr #6]
 214:	004b4545 	subeq	r4, fp, r5, asr #10
 218:	54524155 	ldrbpl	r4, [r2], #-341	; 0x155
 21c:	4e45535f 	mcrmi	3, 2, r5, cr5, cr15, {2}
 220:	59425f44 	stmdbpl	r2, {r2, r6, r8, r9, sl, fp, ip, lr}^
 224:	42004554 	andmi	r4, r0, #352321536	; 0x15000000
 228:	41444443 	cmpmi	r4, r3, asr #8
 22c:	73500059 	cmpvc	r0, #89	; 0x59
 230:	4f007274 	svcmi	0x00007274
 234:	545f646c 	ldrbpl	r6, [pc], #-1132	; 23c <_start-0x40007dc4>
 238:	00656d69 	rsbeq	r6, r5, r9, ror #26
 23c:	54524155 	ldrbpl	r4, [r2], #-341	; 0x155
 240:	4e45535f 	mcrmi	3, 2, r5, cr5, cr15, {2}
 244:	54535f44 	ldrbpl	r5, [r3], #-3908	; 0xf44
 248:	74720052 	ldrbtvc	r0, [r2], #-82	; 0x52
 24c:	64636263 	strbtvs	r6, [r3], #-611	; 0x263
 250:	44434200 	strbmi	r4, [r3], #-512	; 0x200
 254:	00434553 	subeq	r4, r3, r3, asr r5
 258:	6e69616d 	powvsez	f6, f1, #5.0
 25c:	63747200 	cmnvs	r4, #0
 260:	4200632e 	andmi	r6, r0, #-1207959552	; 0xb8000000
 264:	494d4443 	stmdbmi	sp, {r0, r1, r6, sl, lr}^
 268:	4342004e 	movtmi	r0, #8270	; 0x204e
 26c:	41455944 	cmpmi	r5, r4, asr #18
 270:	43420052 	movtmi	r0, #8274	; 0x2052
 274:	4e4f4d44 	cdpmi	13, 4, cr4, cr15, cr4, {2}
 278:	61654400 	cmnvs	r5, r0, lsl #8
 27c:	4d5f796c 	ldclmi	9, cr7, [pc, #-432]	; d4 <_start-0x40007f2c>
 280:	Address 0x00000280 is out of bounds.


Disassembly of section .debug_frame:

00000000 <.debug_frame>:
   0:	0000000c 	andeq	r0, r0, ip
   4:	ffffffff 			; <UNDEFINED> instruction: 0xffffffff
   8:	7c020001 	stcvc	0, cr0, [r2], {1}
   c:	000d0c0e 	andeq	r0, sp, lr, lsl #24
  10:	00000014 	andeq	r0, r0, r4, lsl r0
  14:	00000000 	andeq	r0, r0, r0
  18:	40008284 	andmi	r8, r0, r4, lsl #5
  1c:	00000050 	andeq	r0, r0, r0, asr r0
  20:	8b040e42 	blhi	103930 <_start-0x3ff046d0>
  24:	0b0d4201 	bleq	350830 <_start-0x3fcb77d0>
  28:	00000018 	andeq	r0, r0, r8, lsl r0
  2c:	00000000 	andeq	r0, r0, r0
  30:	400082d4 	ldrdmi	r8, [r0], -r4
  34:	000001a8 	andeq	r0, r0, r8, lsr #3
  38:	8e080e42 	cdphi	14, 0, cr0, cr8, cr2, {2}
  3c:	42028b01 	andmi	r8, r2, #1024	; 0x400
  40:	00040b0c 	andeq	r0, r4, ip, lsl #22
  44:	00000018 	andeq	r0, r0, r8, lsl r0
  48:	00000000 	andeq	r0, r0, r0
  4c:	4000847c 	andmi	r8, r0, ip, ror r4
  50:	00000070 	andeq	r0, r0, r0, ror r0
  54:	8e080e42 	cdphi	14, 0, cr0, cr8, cr2, {2}
  58:	42028b01 	andmi	r8, r2, #1024	; 0x400
  5c:	00040b0c 	andeq	r0, r4, ip, lsl #22
  60:	00000014 	andeq	r0, r0, r4, lsl r0
  64:	00000000 	andeq	r0, r0, r0
  68:	400084ec 	andmi	r8, r0, ip, ror #9
  6c:	00000094 	muleq	r0, r4, r0
  70:	8b040e42 	blhi	103980 <_start-0x3ff04680>
  74:	0b0d4201 	bleq	350880 <_start-0x3fcb7780>
  78:	00000018 	andeq	r0, r0, r8, lsl r0
  7c:	00000000 	andeq	r0, r0, r0
  80:	40008580 	andmi	r8, r0, r0, lsl #11
  84:	00000498 	muleq	r0, r8, r4
  88:	8e080e42 	cdphi	14, 0, cr0, cr8, cr2, {2}
  8c:	42028b01 	andmi	r8, r2, #1024	; 0x400
  90:	00040b0c 	andeq	r0, r4, ip, lsl #22
  94:	00000014 	andeq	r0, r0, r4, lsl r0
  98:	00000000 	andeq	r0, r0, r0
  9c:	40008a18 	andmi	r8, r0, r8, lsl sl
  a0:	00000080 	andeq	r0, r0, r0, lsl #1
  a4:	8b040e42 	blhi	1039b4 <_start-0x3ff0464c>
  a8:	0b0d4201 	bleq	3508b4 <_start-0x3fcb774c>
  ac:	00000018 	andeq	r0, r0, r8, lsl r0
  b0:	00000000 	andeq	r0, r0, r0
  b4:	40008a98 	mulmi	r0, r8, sl
  b8:	00000938 	andeq	r0, r0, r8, lsr r9
  bc:	8e080e42 	cdphi	14, 0, cr0, cr8, cr2, {2}
  c0:	42028b01 	andmi	r8, r2, #1024	; 0x400
  c4:	00040b0c 	andeq	r0, r4, ip, lsl #22
  c8:	00000020 	andeq	r0, r0, r0, lsr #32
  cc:	00000000 	andeq	r0, r0, r0
  d0:	400093d0 	ldrdmi	r9, [r0], -r0
  d4:	00000050 	andeq	r0, r0, r0, asr r0
  d8:	830c0e42 	movwhi	r0, #52802	; 0xce42
  dc:	81028201 	tsthi	r2, r1, lsl #4
  e0:	140e4203 	strne	r4, [lr], #-515	; 0x203
  e4:	058b048e 	streq	r0, [fp, #1166]	; 0x48e
  e8:	100b0c42 	andne	r0, fp, r2, asr #24
  ec:	00000024 	andeq	r0, r0, r4, lsr #32
  f0:	00000000 	andeq	r0, r0, r0
  f4:	40009420 	andmi	r9, r0, r0, lsr #8
  f8:	00000058 	andeq	r0, r0, r8, asr r0
  fc:	83100e42 	tsthi	r0, #1056	; 0x420
 100:	81028201 	tsthi	r2, r1, lsl #4
 104:	42048003 	andmi	r8, r4, #3
 108:	058e180e 	streq	r1, [lr, #2062]	; 0x80e
 10c:	0c42068b 	mcrreq	6, 8, r0, r2, cr11
 110:	0000140b 	andeq	r1, r0, fp, lsl #8
 114:	0000000c 	andeq	r0, r0, ip
 118:	ffffffff 			; <UNDEFINED> instruction: 0xffffffff
 11c:	7c020001 	stcvc	0, cr0, [r2], {1}
 120:	000d0c0e 	andeq	r0, sp, lr, lsl #24
 124:	00000014 	andeq	r0, r0, r4, lsl r0
 128:	00000114 	andeq	r0, r0, r4, lsl r1
 12c:	40009478 	andmi	r9, r0, r8, ror r4
 130:	00000064 	andeq	r0, r0, r4, rrx
 134:	8b040e42 	blhi	103a44 <_start-0x3ff045bc>
 138:	0b0d4201 	bleq	350944 <_start-0x3fcb76bc>
 13c:	00000018 	andeq	r0, r0, r8, lsl r0
 140:	00000114 	andeq	r0, r0, r4, lsl r1
 144:	400094dc 	ldrdmi	r9, [r0], -ip
 148:	0000005c 	andeq	r0, r0, ip, asr r0
 14c:	8e080e42 	cdphi	14, 0, cr0, cr8, cr2, {2}
 150:	42028b01 	andmi	r8, r2, #1024	; 0x400
 154:	00040b0c 	andeq	r0, r4, ip, lsl #22
 158:	00000018 	andeq	r0, r0, r8, lsl r0
 15c:	00000114 	andeq	r0, r0, r4, lsl r1
 160:	40009538 	andmi	r9, r0, r8, lsr r5
 164:	0000004c 	andeq	r0, r0, ip, asr #32
 168:	8e080e42 	cdphi	14, 0, cr0, cr8, cr2, {2}
 16c:	42028b01 	andmi	r8, r2, #1024	; 0x400
 170:	00040b0c 	andeq	r0, r4, ip, lsl #22
 174:	0000000c 	andeq	r0, r0, ip
 178:	ffffffff 			; <UNDEFINED> instruction: 0xffffffff
 17c:	7c020001 	stcvc	0, cr0, [r2], {1}
 180:	000d0c0e 	andeq	r0, sp, lr, lsl #24
 184:	00000014 	andeq	r0, r0, r4, lsl r0
 188:	00000174 	andeq	r0, r0, r4, ror r1
 18c:	40009584 	andmi	r9, r0, r4, lsl #11
 190:	00000070 	andeq	r0, r0, r0, ror r0
 194:	8b040e42 	blhi	103aa4 <_start-0x3ff0455c>
 198:	0b0d4201 	bleq	3509a4 <_start-0x3fcb765c>
 19c:	00000014 	andeq	r0, r0, r4, lsl r0
 1a0:	00000174 	andeq	r0, r0, r4, ror r1
 1a4:	400095f4 	strdmi	r9, [r0], -r4
 1a8:	00000098 	muleq	r0, r8, r0
 1ac:	8b040e42 	blhi	103abc <_start-0x3ff04544>
 1b0:	0b0d4201 	bleq	3509bc <_start-0x3fcb7644>
 1b4:	00000018 	andeq	r0, r0, r8, lsl r0
 1b8:	00000174 	andeq	r0, r0, r4, ror r1
 1bc:	4000968c 	andmi	r9, r0, ip, lsl #13
 1c0:	0000005c 	andeq	r0, r0, ip, asr r0
 1c4:	8e080e42 	cdphi	14, 0, cr0, cr8, cr2, {2}
 1c8:	42028b01 	andmi	r8, r2, #1024	; 0x400
 1cc:	00040b0c 	andeq	r0, r4, ip, lsl #22
 1d0:	00000018 	andeq	r0, r0, r8, lsl r0
 1d4:	00000174 	andeq	r0, r0, r4, ror r1
 1d8:	400096e8 	andmi	r9, r0, r8, ror #13
 1dc:	0000004c 	andeq	r0, r0, ip, asr #32
 1e0:	8e080e42 	cdphi	14, 0, cr0, cr8, cr2, {2}
 1e4:	42028b01 	andmi	r8, r2, #1024	; 0x400
 1e8:	00040b0c 	andeq	r0, r4, ip, lsl #22
 1ec:	00000018 	andeq	r0, r0, r8, lsl r0
 1f0:	00000174 	andeq	r0, r0, r4, ror r1
 1f4:	40009734 	andmi	r9, r0, r4, lsr r7
 1f8:	0000014c 	andeq	r0, r0, ip, asr #2
 1fc:	8e080e42 	cdphi	14, 0, cr0, cr8, cr2, {2}
 200:	42028b01 	andmi	r8, r2, #1024	; 0x400
 204:	00040b0c 	andeq	r0, r4, ip, lsl #22
