
music.elf:     file format elf32-littlearm


Disassembly of section .text:

40008000 <_start>:
40008000:	ea00000d 	b	4000803c <reset>
40008004:	e59ff014 	ldr	pc, [pc, #20]	; 40008020 <_undefined_instruction>
40008008:	e59ff014 	ldr	pc, [pc, #20]	; 40008024 <_software_interrupt>
4000800c:	e59ff014 	ldr	pc, [pc, #20]	; 40008028 <_prefetch_abort>
40008010:	e59ff014 	ldr	pc, [pc, #20]	; 4000802c <_data_abort>
40008014:	e59ff014 	ldr	pc, [pc, #20]	; 40008030 <_not_used>
40008018:	e59ff014 	ldr	pc, [pc, #20]	; 40008034 <_irq>
4000801c:	e59ff014 	ldr	pc, [pc, #20]	; 40008038 <_fiq>

40008020 <_undefined_instruction>:
40008020:	40008020 	andmi	r8, r0, r0, lsr #32

40008024 <_software_interrupt>:
40008024:	40008024 	andmi	r8, r0, r4, lsr #32

40008028 <_prefetch_abort>:
40008028:	40008028 	andmi	r8, r0, r8, lsr #32

4000802c <_data_abort>:
4000802c:	4000802c 	andmi	r8, r0, ip, lsr #32

40008030 <_not_used>:
40008030:	40008030 	andmi	r8, r0, r0, lsr r0

40008034 <_irq>:
40008034:	40008110 	andmi	r8, r0, r0, lsl r1

40008038 <_fiq>:
40008038:	40008038 	andmi	r8, r0, r8, lsr r0

4000803c <reset>:
4000803c:	e59f00e0 	ldr	r0, [pc, #224]	; 40008124 <stacktop+0x4>
40008040:	ee0c0f10 	mcr	15, 0, r0, cr12, cr0, {0}
40008044:	e10f0000 	mrs	r0, CPSR
40008048:	e3c0001f 	bic	r0, r0, #31
4000804c:	e38000d3 	orr	r0, r0, #211	; 0xd3
40008050:	e129f000 	msr	CPSR_fc, r0
40008054:	e3e0020f 	mvn	r0, #-268435456	; 0xf0000000
40008058:	ee010f50 	mcr	15, 0, r0, cr1, cr0, {2}
4000805c:	e3a00000 	mov	r0, #0
40008060:	ee080f17 	mcr	15, 0, r0, cr8, cr7, {0}
40008064:	ee070f15 	mcr	15, 0, r0, cr7, cr5, {0}
40008068:	e3a03101 	mov	r3, #1073741824	; 0x40000000
4000806c:	eee83a10 	vmsr	fpexc, r3
40008070:	ee110f10 	mrc	15, 0, r0, cr1, cr0, {0}
40008074:	e3c00a02 	bic	r0, r0, #8192	; 0x2000
40008078:	e3c00007 	bic	r0, r0, #7
4000807c:	e3800a01 	orr	r0, r0, #4096	; 0x1000
40008080:	e3800002 	orr	r0, r0, #2
40008084:	e3800b02 	orr	r0, r0, #2048	; 0x800
40008088:	ee010f10 	mcr	15, 0, r0, cr1, cr0, {0}
4000808c:	e59f0094 	ldr	r0, [pc, #148]	; 40008128 <stacktop+0x8>
40008090:	e5901000 	ldr	r1, [r0]
40008094:	e3c1180f 	bic	r1, r1, #983040	; 0xf0000
40008098:	e3811801 	orr	r1, r1, #65536	; 0x10000
4000809c:	e5801000 	str	r1, [r0]
400080a0:	e59f0084 	ldr	r0, [pc, #132]	; 4000812c <stacktop+0xc>
400080a4:	e5901000 	ldr	r1, [r0]
400080a8:	e3c11c03 	bic	r1, r1, #768	; 0x300
400080ac:	e5801000 	str	r1, [r0]
400080b0:	e59f0078 	ldr	r0, [pc, #120]	; 40008130 <stacktop+0x10>
400080b4:	e5901000 	ldr	r1, [r0]
400080b8:	e3811010 	orr	r1, r1, #16
400080bc:	e5801000 	str	r1, [r0]

400080c0 <init_stack>:
400080c0:	e59f0058 	ldr	r0, [pc, #88]	; 40008120 <stacktop>
400080c4:	e1a0d000 	mov	sp, r0
400080c8:	e2400c02 	sub	r0, r0, #512	; 0x200
400080cc:	e329f0d2 	msr	CPSR_fc, #210	; 0xd2
400080d0:	e1a0d000 	mov	sp, r0
400080d4:	e2400c02 	sub	r0, r0, #512	; 0x200
400080d8:	e329f0d1 	msr	CPSR_fc, #209	; 0xd1
400080dc:	e1a0d000 	mov	sp, r0
400080e0:	e2400000 	sub	r0, r0, #0
400080e4:	e329f0d7 	msr	CPSR_fc, #215	; 0xd7
400080e8:	e1a0d000 	mov	sp, r0
400080ec:	e2400000 	sub	r0, r0, #0
400080f0:	e329f0db 	msr	CPSR_fc, #219	; 0xdb
400080f4:	e1a0d000 	mov	sp, r0
400080f8:	e2400000 	sub	r0, r0, #0
400080fc:	e329f010 	msr	CPSR_fc, #16
40008100:	e1a0d000 	mov	sp, r0
40008104:	ea00053a 	b	400095f4 <main>
40008108:	e1a00000 	nop			; (mov r0, r0)
4000810c:	e1a00000 	nop			; (mov r0, r0)

40008110 <irq_handler>:
40008110:	e24ee004 	sub	lr, lr, #4
40008114:	e92d5fff 	push	{r0, r1, r2, r3, r4, r5, r6, r7, r8, r9, sl, fp, ip, lr}
40008118:	e1a00000 	nop			; (mov r0, r0)
4000811c:	e8fd9fff 	ldm	sp!, {r0, r1, r2, r3, r4, r5, r6, r7, r8, r9, sl, fp, ip, pc}^

40008120 <stacktop>:
40008120:	4000a004 	andmi	sl, r0, r4
40008124:	40008000 	andmi	r8, r0, r0
40008128:	114001e0 	smlalttne	r0, r0, r0, r1	; <UNPREDICTABLE>
4000812c:	114001e8 	smlalttne	r0, r0, r8, r1	; <UNPREDICTABLE>
40008130:	114001e4 	smlalttne	r0, r0, r4, r1	; <UNPREDICTABLE>
40008134:	e1a00000 	nop			; (mov r0, r0)
40008138:	e1a00000 	nop			; (mov r0, r0)
4000813c:	e1a00000 	nop			; (mov r0, r0)

40008140 <__udivsi3>:
40008140:	e3510000 	cmp	r1, #0
40008144:	0a00001f 	beq	400081c8 <Ldiv0>
40008148:	e3a03001 	mov	r3, #1
4000814c:	e3a02000 	mov	r2, #0
40008150:	e1500001 	cmp	r0, r1
40008154:	3a000019 	bcc	400081c0 <Lgot_result>

40008158 <Loop1>:
40008158:	e3510201 	cmp	r1, #268435456	; 0x10000000
4000815c:	31510000 	cmpcc	r1, r0
40008160:	31a01201 	lslcc	r1, r1, #4
40008164:	31a03203 	lslcc	r3, r3, #4
40008168:	3afffffa 	bcc	40008158 <Loop1>

4000816c <Lbignum>:
4000816c:	e3510102 	cmp	r1, #-2147483648	; 0x80000000
40008170:	31510000 	cmpcc	r1, r0
40008174:	31a01081 	lslcc	r1, r1, #1
40008178:	31a03083 	lslcc	r3, r3, #1
4000817c:	3afffffa 	bcc	4000816c <Lbignum>

40008180 <Loop3>:
40008180:	e1500001 	cmp	r0, r1
40008184:	20400001 	subcs	r0, r0, r1
40008188:	21822003 	orrcs	r2, r2, r3
4000818c:	e15000a1 	cmp	r0, r1, lsr #1
40008190:	204000a1 	subcs	r0, r0, r1, lsr #1
40008194:	218220a3 	orrcs	r2, r2, r3, lsr #1
40008198:	e1500121 	cmp	r0, r1, lsr #2
4000819c:	20400121 	subcs	r0, r0, r1, lsr #2
400081a0:	21822123 	orrcs	r2, r2, r3, lsr #2
400081a4:	e15001a1 	cmp	r0, r1, lsr #3
400081a8:	204001a1 	subcs	r0, r0, r1, lsr #3
400081ac:	218221a3 	orrcs	r2, r2, r3, lsr #3
400081b0:	e3500000 	cmp	r0, #0
400081b4:	11b03223 	lsrsne	r3, r3, #4
400081b8:	11a01221 	lsrne	r1, r1, #4
400081bc:	1affffef 	bne	40008180 <Loop3>

400081c0 <Lgot_result>:
400081c0:	e1a00002 	mov	r0, r2
400081c4:	e1a0f00e 	mov	pc, lr

400081c8 <Ldiv0>:
400081c8:	e52de004 	push	{lr}		; (str lr, [sp, #-4]!)
400081cc:	e3a00000 	mov	r0, #0
400081d0:	e8bd8000 	pop	{pc}

400081d4 <__umodsi3>:
400081d4:	e3510000 	cmp	r1, #0
400081d8:	0a000026 	beq	40008278 <Ldiv0>
400081dc:	e3a03001 	mov	r3, #1
400081e0:	e1500001 	cmp	r0, r1
400081e4:	31a0f00e 	movcc	pc, lr

400081e8 <Loop1>:
400081e8:	e3510201 	cmp	r1, #268435456	; 0x10000000
400081ec:	31510000 	cmpcc	r1, r0
400081f0:	31a01201 	lslcc	r1, r1, #4
400081f4:	31a03203 	lslcc	r3, r3, #4
400081f8:	3afffffa 	bcc	400081e8 <Loop1>

400081fc <Lbignum>:
400081fc:	e3510102 	cmp	r1, #-2147483648	; 0x80000000
40008200:	31510000 	cmpcc	r1, r0
40008204:	31a01081 	lslcc	r1, r1, #1
40008208:	31a03083 	lslcc	r3, r3, #1
4000820c:	3afffffa 	bcc	400081fc <Lbignum>

40008210 <Loop3>:
40008210:	e3a02000 	mov	r2, #0
40008214:	e1500001 	cmp	r0, r1
40008218:	20400001 	subcs	r0, r0, r1
4000821c:	e15000a1 	cmp	r0, r1, lsr #1
40008220:	204000a1 	subcs	r0, r0, r1, lsr #1
40008224:	218220e3 	orrcs	r2, r2, r3, ror #1
40008228:	e1500121 	cmp	r0, r1, lsr #2
4000822c:	20400121 	subcs	r0, r0, r1, lsr #2
40008230:	21822163 	orrcs	r2, r2, r3, ror #2
40008234:	e15001a1 	cmp	r0, r1, lsr #3
40008238:	204001a1 	subcs	r0, r0, r1, lsr #3
4000823c:	218221e3 	orrcs	r2, r2, r3, ror #3
40008240:	e1a0c003 	mov	ip, r3
40008244:	e3500000 	cmp	r0, #0
40008248:	11b03223 	lsrsne	r3, r3, #4
4000824c:	11a01221 	lsrne	r1, r1, #4
40008250:	1affffee 	bne	40008210 <Loop3>
40008254:	e212220e 	ands	r2, r2, #-536870912	; 0xe0000000
40008258:	01a0f00e 	moveq	pc, lr
4000825c:	e11201ec 	tst	r2, ip, ror #3
40008260:	108001a1 	addne	r0, r0, r1, lsr #3
40008264:	e112016c 	tst	r2, ip, ror #2
40008268:	10800121 	addne	r0, r0, r1, lsr #2
4000826c:	e11200ec 	tst	r2, ip, ror #1
40008270:	108000a1 	addne	r0, r0, r1, lsr #1
40008274:	e1a0f00e 	mov	pc, lr

40008278 <Ldiv0>:
40008278:	e52de004 	push	{lr}		; (str lr, [sp, #-4]!)
4000827c:	e3a00000 	mov	r0, #0
40008280:	e8bd8000 	pop	{pc}

40008284 <__toupper>:
40008284:	e52db004 	push	{fp}		; (str fp, [sp, #-4]!)
40008288:	e28db000 	add	fp, sp, #0
4000828c:	e24dd004 	sub	sp, sp, #4
40008290:	e1a03000 	mov	r3, r0
40008294:	e54b3004 	strb	r3, [fp, #-4]
40008298:	e55b3004 	ldrb	r3, [fp, #-4]
4000829c:	e59f202c 	ldr	r2, [pc, #44]	; 400082d0 <__toupper+0x4c>
400082a0:	e7d23003 	ldrb	r3, [r2, r3]
400082a4:	e2033002 	and	r3, r3, #2
400082a8:	e3530000 	cmp	r3, #0
400082ac:	0a000002 	beq	400082bc <__toupper+0x38>
400082b0:	e55b3004 	ldrb	r3, [fp, #-4]
400082b4:	e2433020 	sub	r3, r3, #32
400082b8:	e54b3004 	strb	r3, [fp, #-4]
400082bc:	e55b3004 	ldrb	r3, [fp, #-4]
400082c0:	e1a00003 	mov	r0, r3
400082c4:	e28bd000 	add	sp, fp, #0
400082c8:	e8bd0800 	pop	{fp}
400082cc:	e12fff1e 	bx	lr
400082d0:	4000a004 	andmi	sl, r0, r4

400082d4 <simple_strtoul>:
400082d4:	e92d4800 	push	{fp, lr}
400082d8:	e28db004 	add	fp, sp, #4
400082dc:	e24dd014 	sub	sp, sp, #20
400082e0:	e50b0010 	str	r0, [fp, #-16]
400082e4:	e50b1014 	str	r1, [fp, #-20]
400082e8:	e50b2018 	str	r2, [fp, #-24]
400082ec:	e3a03000 	mov	r3, #0
400082f0:	e50b3008 	str	r3, [fp, #-8]
400082f4:	e51b3010 	ldr	r3, [fp, #-16]
400082f8:	e5d33000 	ldrb	r3, [r3]
400082fc:	e3530030 	cmp	r3, #48	; 0x30
40008300:	1a000018 	bne	40008368 <simple_strtoul+0x94>
40008304:	e51b3010 	ldr	r3, [fp, #-16]
40008308:	e2833001 	add	r3, r3, #1
4000830c:	e50b3010 	str	r3, [fp, #-16]
40008310:	e51b3010 	ldr	r3, [fp, #-16]
40008314:	e5d33000 	ldrb	r3, [r3]
40008318:	e3530078 	cmp	r3, #120	; 0x78
4000831c:	1a00000c 	bne	40008354 <simple_strtoul+0x80>
40008320:	e51b3010 	ldr	r3, [fp, #-16]
40008324:	e2833001 	add	r3, r3, #1
40008328:	e5d33000 	ldrb	r3, [r3]
4000832c:	e59f2144 	ldr	r2, [pc, #324]	; 40008478 <simple_strtoul+0x1a4>
40008330:	e7d23003 	ldrb	r3, [r2, r3]
40008334:	e2033044 	and	r3, r3, #68	; 0x44
40008338:	e3530000 	cmp	r3, #0
4000833c:	0a000004 	beq	40008354 <simple_strtoul+0x80>
40008340:	e3a03010 	mov	r3, #16
40008344:	e50b3018 	str	r3, [fp, #-24]
40008348:	e51b3010 	ldr	r3, [fp, #-16]
4000834c:	e2833001 	add	r3, r3, #1
40008350:	e50b3010 	str	r3, [fp, #-16]
40008354:	e51b3018 	ldr	r3, [fp, #-24]
40008358:	e3530000 	cmp	r3, #0
4000835c:	1a000001 	bne	40008368 <simple_strtoul+0x94>
40008360:	e3a03008 	mov	r3, #8
40008364:	e50b3018 	str	r3, [fp, #-24]
40008368:	e51b3018 	ldr	r3, [fp, #-24]
4000836c:	e3530000 	cmp	r3, #0
40008370:	1a00000c 	bne	400083a8 <simple_strtoul+0xd4>
40008374:	e3a0300a 	mov	r3, #10
40008378:	e50b3018 	str	r3, [fp, #-24]
4000837c:	ea000009 	b	400083a8 <simple_strtoul+0xd4>
40008380:	e51b3008 	ldr	r3, [fp, #-8]
40008384:	e51b2018 	ldr	r2, [fp, #-24]
40008388:	e0020293 	mul	r2, r3, r2
4000838c:	e51b300c 	ldr	r3, [fp, #-12]
40008390:	e0823003 	add	r3, r2, r3
40008394:	e50b3008 	str	r3, [fp, #-8]
40008398:	e51b3010 	ldr	r3, [fp, #-16]
4000839c:	e2833001 	add	r3, r3, #1
400083a0:	e50b3010 	str	r3, [fp, #-16]
400083a4:	ea000000 	b	400083ac <simple_strtoul+0xd8>
400083a8:	e1a00000 	nop			; (mov r0, r0)
400083ac:	e51b3010 	ldr	r3, [fp, #-16]
400083b0:	e5d33000 	ldrb	r3, [r3]
400083b4:	e59f20bc 	ldr	r2, [pc, #188]	; 40008478 <simple_strtoul+0x1a4>
400083b8:	e7d23003 	ldrb	r3, [r2, r3]
400083bc:	e2033044 	and	r3, r3, #68	; 0x44
400083c0:	e3530000 	cmp	r3, #0
400083c4:	0a000020 	beq	4000844c <simple_strtoul+0x178>
400083c8:	e51b3010 	ldr	r3, [fp, #-16]
400083cc:	e5d33000 	ldrb	r3, [r3]
400083d0:	e59f20a0 	ldr	r2, [pc, #160]	; 40008478 <simple_strtoul+0x1a4>
400083d4:	e7d23003 	ldrb	r3, [r2, r3]
400083d8:	e2033004 	and	r3, r3, #4
400083dc:	e3530000 	cmp	r3, #0
400083e0:	0a000003 	beq	400083f4 <simple_strtoul+0x120>
400083e4:	e51b3010 	ldr	r3, [fp, #-16]
400083e8:	e5d33000 	ldrb	r3, [r3]
400083ec:	e2433030 	sub	r3, r3, #48	; 0x30
400083f0:	ea000010 	b	40008438 <simple_strtoul+0x164>
400083f4:	e51b3010 	ldr	r3, [fp, #-16]
400083f8:	e5d33000 	ldrb	r3, [r3]
400083fc:	e59f2074 	ldr	r2, [pc, #116]	; 40008478 <simple_strtoul+0x1a4>
40008400:	e7d23003 	ldrb	r3, [r2, r3]
40008404:	e2033002 	and	r3, r3, #2
40008408:	e3530000 	cmp	r3, #0
4000840c:	0a000006 	beq	4000842c <simple_strtoul+0x158>
40008410:	e51b3010 	ldr	r3, [fp, #-16]
40008414:	e5d33000 	ldrb	r3, [r3]
40008418:	e1a00003 	mov	r0, r3
4000841c:	ebffff98 	bl	40008284 <__toupper>
40008420:	e1a03000 	mov	r3, r0
40008424:	e2433037 	sub	r3, r3, #55	; 0x37
40008428:	ea000002 	b	40008438 <simple_strtoul+0x164>
4000842c:	e51b3010 	ldr	r3, [fp, #-16]
40008430:	e5d33000 	ldrb	r3, [r3]
40008434:	e2433037 	sub	r3, r3, #55	; 0x37
40008438:	e50b300c 	str	r3, [fp, #-12]
4000843c:	e51b200c 	ldr	r2, [fp, #-12]
40008440:	e51b3018 	ldr	r3, [fp, #-24]
40008444:	e1520003 	cmp	r2, r3
40008448:	3affffcc 	bcc	40008380 <simple_strtoul+0xac>
4000844c:	e51b3014 	ldr	r3, [fp, #-20]
40008450:	e3530000 	cmp	r3, #0
40008454:	0a000002 	beq	40008464 <simple_strtoul+0x190>
40008458:	e51b3014 	ldr	r3, [fp, #-20]
4000845c:	e51b2010 	ldr	r2, [fp, #-16]
40008460:	e5832000 	str	r2, [r3]
40008464:	e51b3008 	ldr	r3, [fp, #-8]
40008468:	e1a00003 	mov	r0, r3
4000846c:	e24bd004 	sub	sp, fp, #4
40008470:	e8bd4800 	pop	{fp, lr}
40008474:	e12fff1e 	bx	lr
40008478:	4000a004 	andmi	sl, r0, r4

4000847c <simple_strtol>:
4000847c:	e92d4800 	push	{fp, lr}
40008480:	e28db004 	add	fp, sp, #4
40008484:	e24dd00c 	sub	sp, sp, #12
40008488:	e50b0008 	str	r0, [fp, #-8]
4000848c:	e50b100c 	str	r1, [fp, #-12]
40008490:	e50b2010 	str	r2, [fp, #-16]
40008494:	e51b3008 	ldr	r3, [fp, #-8]
40008498:	e5d33000 	ldrb	r3, [r3]
4000849c:	e353002d 	cmp	r3, #45	; 0x2d
400084a0:	1a000008 	bne	400084c8 <simple_strtol+0x4c>
400084a4:	e51b3008 	ldr	r3, [fp, #-8]
400084a8:	e2833001 	add	r3, r3, #1
400084ac:	e1a00003 	mov	r0, r3
400084b0:	e51b100c 	ldr	r1, [fp, #-12]
400084b4:	e51b2010 	ldr	r2, [fp, #-16]
400084b8:	ebffff85 	bl	400082d4 <simple_strtoul>
400084bc:	e1a03000 	mov	r3, r0
400084c0:	e2633000 	rsb	r3, r3, #0
400084c4:	ea000004 	b	400084dc <simple_strtol+0x60>
400084c8:	e51b0008 	ldr	r0, [fp, #-8]
400084cc:	e51b100c 	ldr	r1, [fp, #-12]
400084d0:	e51b2010 	ldr	r2, [fp, #-16]
400084d4:	ebffff7e 	bl	400082d4 <simple_strtoul>
400084d8:	e1a03000 	mov	r3, r0
400084dc:	e1a00003 	mov	r0, r3
400084e0:	e24bd004 	sub	sp, fp, #4
400084e4:	e8bd4800 	pop	{fp, lr}
400084e8:	e12fff1e 	bx	lr

400084ec <skip_atoi>:
400084ec:	e52db004 	push	{fp}		; (str fp, [sp, #-4]!)
400084f0:	e28db000 	add	fp, sp, #0
400084f4:	e24dd008 	sub	sp, sp, #8
400084f8:	e50b0008 	str	r0, [fp, #-8]
400084fc:	e3a03000 	mov	r3, #0
40008500:	e50b3004 	str	r3, [fp, #-4]
40008504:	ea00000e 	b	40008544 <skip_atoi+0x58>
40008508:	e51b2004 	ldr	r2, [fp, #-4]
4000850c:	e1a03002 	mov	r3, r2
40008510:	e1a03103 	lsl	r3, r3, #2
40008514:	e0833002 	add	r3, r3, r2
40008518:	e1a03083 	lsl	r3, r3, #1
4000851c:	e1a01003 	mov	r1, r3
40008520:	e51b3008 	ldr	r3, [fp, #-8]
40008524:	e5933000 	ldr	r3, [r3]
40008528:	e5d32000 	ldrb	r2, [r3]
4000852c:	e0812002 	add	r2, r1, r2
40008530:	e2422030 	sub	r2, r2, #48	; 0x30
40008534:	e50b2004 	str	r2, [fp, #-4]
40008538:	e2832001 	add	r2, r3, #1
4000853c:	e51b3008 	ldr	r3, [fp, #-8]
40008540:	e5832000 	str	r2, [r3]
40008544:	e51b3008 	ldr	r3, [fp, #-8]
40008548:	e5933000 	ldr	r3, [r3]
4000854c:	e5d33000 	ldrb	r3, [r3]
40008550:	e353002f 	cmp	r3, #47	; 0x2f
40008554:	9a000004 	bls	4000856c <skip_atoi+0x80>
40008558:	e51b3008 	ldr	r3, [fp, #-8]
4000855c:	e5933000 	ldr	r3, [r3]
40008560:	e5d33000 	ldrb	r3, [r3]
40008564:	e3530039 	cmp	r3, #57	; 0x39
40008568:	9affffe6 	bls	40008508 <skip_atoi+0x1c>
4000856c:	e51b3004 	ldr	r3, [fp, #-4]
40008570:	e1a00003 	mov	r0, r3
40008574:	e28bd000 	add	sp, fp, #0
40008578:	e8bd0800 	pop	{fp}
4000857c:	e12fff1e 	bx	lr

40008580 <number>:
40008580:	e92d4800 	push	{fp, lr}
40008584:	e28db004 	add	fp, sp, #4
40008588:	e24dd068 	sub	sp, sp, #104	; 0x68
4000858c:	e50b0060 	str	r0, [fp, #-96]	; 0x60
40008590:	e50b1064 	str	r1, [fp, #-100]	; 0x64
40008594:	e50b2068 	str	r2, [fp, #-104]	; 0x68
40008598:	e50b306c 	str	r3, [fp, #-108]	; 0x6c
4000859c:	e59f346c 	ldr	r3, [pc, #1132]	; 40008a10 <number+0x490>
400085a0:	e50b300c 	str	r3, [fp, #-12]
400085a4:	e59b3008 	ldr	r3, [fp, #8]
400085a8:	e2033040 	and	r3, r3, #64	; 0x40
400085ac:	e3530000 	cmp	r3, #0
400085b0:	0a000001 	beq	400085bc <number+0x3c>
400085b4:	e59f3458 	ldr	r3, [pc, #1112]	; 40008a14 <number+0x494>
400085b8:	e50b300c 	str	r3, [fp, #-12]
400085bc:	e59b3008 	ldr	r3, [fp, #8]
400085c0:	e2033010 	and	r3, r3, #16
400085c4:	e3530000 	cmp	r3, #0
400085c8:	0a000002 	beq	400085d8 <number+0x58>
400085cc:	e59b3008 	ldr	r3, [fp, #8]
400085d0:	e3c33001 	bic	r3, r3, #1
400085d4:	e58b3008 	str	r3, [fp, #8]
400085d8:	e51b3068 	ldr	r3, [fp, #-104]	; 0x68
400085dc:	e3530001 	cmp	r3, #1
400085e0:	9a000002 	bls	400085f0 <number+0x70>
400085e4:	e51b3068 	ldr	r3, [fp, #-104]	; 0x68
400085e8:	e3530024 	cmp	r3, #36	; 0x24
400085ec:	9a000001 	bls	400085f8 <number+0x78>
400085f0:	e3a03000 	mov	r3, #0
400085f4:	ea000101 	b	40008a00 <number+0x480>
400085f8:	e59b3008 	ldr	r3, [fp, #8]
400085fc:	e2033001 	and	r3, r3, #1
40008600:	e20330ff 	and	r3, r3, #255	; 0xff
40008604:	e3530000 	cmp	r3, #0
40008608:	0a000001 	beq	40008614 <number+0x94>
4000860c:	e3a03030 	mov	r3, #48	; 0x30
40008610:	ea000000 	b	40008618 <number+0x98>
40008614:	e3a03020 	mov	r3, #32
40008618:	e54b3011 	strb	r3, [fp, #-17]
4000861c:	e3a03000 	mov	r3, #0
40008620:	e54b3005 	strb	r3, [fp, #-5]
40008624:	e59b3008 	ldr	r3, [fp, #8]
40008628:	e2033002 	and	r3, r3, #2
4000862c:	e3530000 	cmp	r3, #0
40008630:	0a00001e 	beq	400086b0 <number+0x130>
40008634:	e51b3064 	ldr	r3, [fp, #-100]	; 0x64
40008638:	e3530000 	cmp	r3, #0
4000863c:	aa000008 	bge	40008664 <number+0xe4>
40008640:	e3a0302d 	mov	r3, #45	; 0x2d
40008644:	e54b3005 	strb	r3, [fp, #-5]
40008648:	e51b3064 	ldr	r3, [fp, #-100]	; 0x64
4000864c:	e2633000 	rsb	r3, r3, #0
40008650:	e50b3064 	str	r3, [fp, #-100]	; 0x64
40008654:	e51b306c 	ldr	r3, [fp, #-108]	; 0x6c
40008658:	e2433001 	sub	r3, r3, #1
4000865c:	e50b306c 	str	r3, [fp, #-108]	; 0x6c
40008660:	ea000012 	b	400086b0 <number+0x130>
40008664:	e59b3008 	ldr	r3, [fp, #8]
40008668:	e2033004 	and	r3, r3, #4
4000866c:	e3530000 	cmp	r3, #0
40008670:	0a000005 	beq	4000868c <number+0x10c>
40008674:	e3a0302b 	mov	r3, #43	; 0x2b
40008678:	e54b3005 	strb	r3, [fp, #-5]
4000867c:	e51b306c 	ldr	r3, [fp, #-108]	; 0x6c
40008680:	e2433001 	sub	r3, r3, #1
40008684:	e50b306c 	str	r3, [fp, #-108]	; 0x6c
40008688:	ea000008 	b	400086b0 <number+0x130>
4000868c:	e59b3008 	ldr	r3, [fp, #8]
40008690:	e2033008 	and	r3, r3, #8
40008694:	e3530000 	cmp	r3, #0
40008698:	0a000004 	beq	400086b0 <number+0x130>
4000869c:	e3a03020 	mov	r3, #32
400086a0:	e54b3005 	strb	r3, [fp, #-5]
400086a4:	e51b306c 	ldr	r3, [fp, #-108]	; 0x6c
400086a8:	e2433001 	sub	r3, r3, #1
400086ac:	e50b306c 	str	r3, [fp, #-108]	; 0x6c
400086b0:	e59b3008 	ldr	r3, [fp, #8]
400086b4:	e2033020 	and	r3, r3, #32
400086b8:	e3530000 	cmp	r3, #0
400086bc:	0a00000c 	beq	400086f4 <number+0x174>
400086c0:	e51b3068 	ldr	r3, [fp, #-104]	; 0x68
400086c4:	e3530010 	cmp	r3, #16
400086c8:	1a000003 	bne	400086dc <number+0x15c>
400086cc:	e51b306c 	ldr	r3, [fp, #-108]	; 0x6c
400086d0:	e2433002 	sub	r3, r3, #2
400086d4:	e50b306c 	str	r3, [fp, #-108]	; 0x6c
400086d8:	ea000005 	b	400086f4 <number+0x174>
400086dc:	e51b3068 	ldr	r3, [fp, #-104]	; 0x68
400086e0:	e3530008 	cmp	r3, #8
400086e4:	1a000002 	bne	400086f4 <number+0x174>
400086e8:	e51b306c 	ldr	r3, [fp, #-108]	; 0x6c
400086ec:	e2433001 	sub	r3, r3, #1
400086f0:	e50b306c 	str	r3, [fp, #-108]	; 0x6c
400086f4:	e3a03000 	mov	r3, #0
400086f8:	e50b3010 	str	r3, [fp, #-16]
400086fc:	e51b3064 	ldr	r3, [fp, #-100]	; 0x64
40008700:	e3530000 	cmp	r3, #0
40008704:	1a000027 	bne	400087a8 <number+0x228>
40008708:	e3e03057 	mvn	r3, #87	; 0x57
4000870c:	e51b2010 	ldr	r2, [fp, #-16]
40008710:	e24b0004 	sub	r0, fp, #4
40008714:	e0802002 	add	r2, r0, r2
40008718:	e0823003 	add	r3, r2, r3
4000871c:	e3a02030 	mov	r2, #48	; 0x30
40008720:	e5c32000 	strb	r2, [r3]
40008724:	e51b3010 	ldr	r3, [fp, #-16]
40008728:	e2833001 	add	r3, r3, #1
4000872c:	e50b3010 	str	r3, [fp, #-16]
40008730:	ea00001f 	b	400087b4 <number+0x234>
40008734:	e51b2010 	ldr	r2, [fp, #-16]
40008738:	e59b3004 	ldr	r3, [fp, #4]
4000873c:	e1520003 	cmp	r2, r3
40008740:	da000018 	ble	400087a8 <number+0x228>
40008744:	e51b3064 	ldr	r3, [fp, #-100]	; 0x64
40008748:	e1a00003 	mov	r0, r3
4000874c:	e51b1068 	ldr	r1, [fp, #-104]	; 0x68
40008750:	ebfffe9f 	bl	400081d4 <__umodsi3>
40008754:	e1a03000 	mov	r3, r0
40008758:	e50b3018 	str	r3, [fp, #-24]
4000875c:	e51b3064 	ldr	r3, [fp, #-100]	; 0x64
40008760:	e1a00003 	mov	r0, r3
40008764:	e51b1068 	ldr	r1, [fp, #-104]	; 0x68
40008768:	ebfffe74 	bl	40008140 <__udivsi3>
4000876c:	e1a03000 	mov	r3, r0
40008770:	e50b3064 	str	r3, [fp, #-100]	; 0x64
40008774:	e51b3018 	ldr	r3, [fp, #-24]
40008778:	e51b200c 	ldr	r2, [fp, #-12]
4000877c:	e0823003 	add	r3, r2, r3
40008780:	e5d32000 	ldrb	r2, [r3]
40008784:	e3e03057 	mvn	r3, #87	; 0x57
40008788:	e51b1010 	ldr	r1, [fp, #-16]
4000878c:	e24b0004 	sub	r0, fp, #4
40008790:	e0801001 	add	r1, r0, r1
40008794:	e0813003 	add	r3, r1, r3
40008798:	e5c32000 	strb	r2, [r3]
4000879c:	e51b3010 	ldr	r3, [fp, #-16]
400087a0:	e2833001 	add	r3, r3, #1
400087a4:	e50b3010 	str	r3, [fp, #-16]
400087a8:	e51b3064 	ldr	r3, [fp, #-100]	; 0x64
400087ac:	e3530000 	cmp	r3, #0
400087b0:	1affffdf 	bne	40008734 <number+0x1b4>
400087b4:	e51b3010 	ldr	r3, [fp, #-16]
400087b8:	e58b3004 	str	r3, [fp, #4]
400087bc:	e51b206c 	ldr	r2, [fp, #-108]	; 0x6c
400087c0:	e59b3004 	ldr	r3, [fp, #4]
400087c4:	e0633002 	rsb	r3, r3, r2
400087c8:	e50b306c 	str	r3, [fp, #-108]	; 0x6c
400087cc:	e59b3008 	ldr	r3, [fp, #8]
400087d0:	e2033011 	and	r3, r3, #17
400087d4:	e3530000 	cmp	r3, #0
400087d8:	1a000010 	bne	40008820 <number+0x2a0>
400087dc:	ea000005 	b	400087f8 <number+0x278>
400087e0:	e51b3060 	ldr	r3, [fp, #-96]	; 0x60
400087e4:	e3a02020 	mov	r2, #32
400087e8:	e5c32000 	strb	r2, [r3]
400087ec:	e51b3060 	ldr	r3, [fp, #-96]	; 0x60
400087f0:	e2833001 	add	r3, r3, #1
400087f4:	e50b3060 	str	r3, [fp, #-96]	; 0x60
400087f8:	e51b306c 	ldr	r3, [fp, #-108]	; 0x6c
400087fc:	e3530000 	cmp	r3, #0
40008800:	d3a03000 	movle	r3, #0
40008804:	c3a03001 	movgt	r3, #1
40008808:	e20330ff 	and	r3, r3, #255	; 0xff
4000880c:	e51b206c 	ldr	r2, [fp, #-108]	; 0x6c
40008810:	e2422001 	sub	r2, r2, #1
40008814:	e50b206c 	str	r2, [fp, #-108]	; 0x6c
40008818:	e3530000 	cmp	r3, #0
4000881c:	1affffef 	bne	400087e0 <number+0x260>
40008820:	e55b3005 	ldrb	r3, [fp, #-5]
40008824:	e3530000 	cmp	r3, #0
40008828:	0a000005 	beq	40008844 <number+0x2c4>
4000882c:	e51b3060 	ldr	r3, [fp, #-96]	; 0x60
40008830:	e55b2005 	ldrb	r2, [fp, #-5]
40008834:	e5c32000 	strb	r2, [r3]
40008838:	e51b3060 	ldr	r3, [fp, #-96]	; 0x60
4000883c:	e2833001 	add	r3, r3, #1
40008840:	e50b3060 	str	r3, [fp, #-96]	; 0x60
40008844:	e59b3008 	ldr	r3, [fp, #8]
40008848:	e2033020 	and	r3, r3, #32
4000884c:	e3530000 	cmp	r3, #0
40008850:	0a000019 	beq	400088bc <number+0x33c>
40008854:	e51b3068 	ldr	r3, [fp, #-104]	; 0x68
40008858:	e3530008 	cmp	r3, #8
4000885c:	1a000006 	bne	4000887c <number+0x2fc>
40008860:	e51b3060 	ldr	r3, [fp, #-96]	; 0x60
40008864:	e3a02030 	mov	r2, #48	; 0x30
40008868:	e5c32000 	strb	r2, [r3]
4000886c:	e51b3060 	ldr	r3, [fp, #-96]	; 0x60
40008870:	e2833001 	add	r3, r3, #1
40008874:	e50b3060 	str	r3, [fp, #-96]	; 0x60
40008878:	ea00000f 	b	400088bc <number+0x33c>
4000887c:	e51b3068 	ldr	r3, [fp, #-104]	; 0x68
40008880:	e3530010 	cmp	r3, #16
40008884:	1a00000c 	bne	400088bc <number+0x33c>
40008888:	e51b3060 	ldr	r3, [fp, #-96]	; 0x60
4000888c:	e3a02030 	mov	r2, #48	; 0x30
40008890:	e5c32000 	strb	r2, [r3]
40008894:	e51b3060 	ldr	r3, [fp, #-96]	; 0x60
40008898:	e2833001 	add	r3, r3, #1
4000889c:	e50b3060 	str	r3, [fp, #-96]	; 0x60
400088a0:	e51b300c 	ldr	r3, [fp, #-12]
400088a4:	e5d32021 	ldrb	r2, [r3, #33]	; 0x21
400088a8:	e51b3060 	ldr	r3, [fp, #-96]	; 0x60
400088ac:	e5c32000 	strb	r2, [r3]
400088b0:	e51b3060 	ldr	r3, [fp, #-96]	; 0x60
400088b4:	e2833001 	add	r3, r3, #1
400088b8:	e50b3060 	str	r3, [fp, #-96]	; 0x60
400088bc:	e59b3008 	ldr	r3, [fp, #8]
400088c0:	e2033010 	and	r3, r3, #16
400088c4:	e3530000 	cmp	r3, #0
400088c8:	1a000018 	bne	40008930 <number+0x3b0>
400088cc:	ea000005 	b	400088e8 <number+0x368>
400088d0:	e51b3060 	ldr	r3, [fp, #-96]	; 0x60
400088d4:	e55b2011 	ldrb	r2, [fp, #-17]
400088d8:	e5c32000 	strb	r2, [r3]
400088dc:	e51b3060 	ldr	r3, [fp, #-96]	; 0x60
400088e0:	e2833001 	add	r3, r3, #1
400088e4:	e50b3060 	str	r3, [fp, #-96]	; 0x60
400088e8:	e51b306c 	ldr	r3, [fp, #-108]	; 0x6c
400088ec:	e3530000 	cmp	r3, #0
400088f0:	d3a03000 	movle	r3, #0
400088f4:	c3a03001 	movgt	r3, #1
400088f8:	e20330ff 	and	r3, r3, #255	; 0xff
400088fc:	e51b206c 	ldr	r2, [fp, #-108]	; 0x6c
40008900:	e2422001 	sub	r2, r2, #1
40008904:	e50b206c 	str	r2, [fp, #-108]	; 0x6c
40008908:	e3530000 	cmp	r3, #0
4000890c:	1affffef 	bne	400088d0 <number+0x350>
40008910:	ea000006 	b	40008930 <number+0x3b0>
40008914:	e51b3060 	ldr	r3, [fp, #-96]	; 0x60
40008918:	e3a02030 	mov	r2, #48	; 0x30
4000891c:	e5c32000 	strb	r2, [r3]
40008920:	e51b3060 	ldr	r3, [fp, #-96]	; 0x60
40008924:	e2833001 	add	r3, r3, #1
40008928:	e50b3060 	str	r3, [fp, #-96]	; 0x60
4000892c:	ea000000 	b	40008934 <number+0x3b4>
40008930:	e1a00000 	nop			; (mov r0, r0)
40008934:	e59b2004 	ldr	r2, [fp, #4]
40008938:	e51b3010 	ldr	r3, [fp, #-16]
4000893c:	e1520003 	cmp	r2, r3
40008940:	d3a03000 	movle	r3, #0
40008944:	c3a03001 	movgt	r3, #1
40008948:	e20330ff 	and	r3, r3, #255	; 0xff
4000894c:	e59b2004 	ldr	r2, [fp, #4]
40008950:	e2422001 	sub	r2, r2, #1
40008954:	e58b2004 	str	r2, [fp, #4]
40008958:	e3530000 	cmp	r3, #0
4000895c:	1affffec 	bne	40008914 <number+0x394>
40008960:	ea00000a 	b	40008990 <number+0x410>
40008964:	e3e03057 	mvn	r3, #87	; 0x57
40008968:	e51b2010 	ldr	r2, [fp, #-16]
4000896c:	e24b1004 	sub	r1, fp, #4
40008970:	e0812002 	add	r2, r1, r2
40008974:	e0823003 	add	r3, r2, r3
40008978:	e5d32000 	ldrb	r2, [r3]
4000897c:	e51b3060 	ldr	r3, [fp, #-96]	; 0x60
40008980:	e5c32000 	strb	r2, [r3]
40008984:	e51b3060 	ldr	r3, [fp, #-96]	; 0x60
40008988:	e2833001 	add	r3, r3, #1
4000898c:	e50b3060 	str	r3, [fp, #-96]	; 0x60
40008990:	e51b3010 	ldr	r3, [fp, #-16]
40008994:	e3530000 	cmp	r3, #0
40008998:	d3a03000 	movle	r3, #0
4000899c:	c3a03001 	movgt	r3, #1
400089a0:	e20330ff 	and	r3, r3, #255	; 0xff
400089a4:	e51b2010 	ldr	r2, [fp, #-16]
400089a8:	e2422001 	sub	r2, r2, #1
400089ac:	e50b2010 	str	r2, [fp, #-16]
400089b0:	e3530000 	cmp	r3, #0
400089b4:	1affffea 	bne	40008964 <number+0x3e4>
400089b8:	ea000005 	b	400089d4 <number+0x454>
400089bc:	e51b3060 	ldr	r3, [fp, #-96]	; 0x60
400089c0:	e3a02020 	mov	r2, #32
400089c4:	e5c32000 	strb	r2, [r3]
400089c8:	e51b3060 	ldr	r3, [fp, #-96]	; 0x60
400089cc:	e2833001 	add	r3, r3, #1
400089d0:	e50b3060 	str	r3, [fp, #-96]	; 0x60
400089d4:	e51b306c 	ldr	r3, [fp, #-108]	; 0x6c
400089d8:	e3530000 	cmp	r3, #0
400089dc:	d3a03000 	movle	r3, #0
400089e0:	c3a03001 	movgt	r3, #1
400089e4:	e20330ff 	and	r3, r3, #255	; 0xff
400089e8:	e51b206c 	ldr	r2, [fp, #-108]	; 0x6c
400089ec:	e2422001 	sub	r2, r2, #1
400089f0:	e50b206c 	str	r2, [fp, #-108]	; 0x6c
400089f4:	e3530000 	cmp	r3, #0
400089f8:	1affffef 	bne	400089bc <number+0x43c>
400089fc:	e51b3060 	ldr	r3, [fp, #-96]	; 0x60
40008a00:	e1a00003 	mov	r0, r3
40008a04:	e24bd004 	sub	sp, fp, #4
40008a08:	e8bd4800 	pop	{fp, lr}
40008a0c:	e12fff1e 	bx	lr
40008a10:	400097ac 	andmi	r9, r0, ip, lsr #15
40008a14:	400097d4 	ldrdmi	r9, [r0], -r4

40008a18 <strnlen>:
40008a18:	e52db004 	push	{fp}		; (str fp, [sp, #-4]!)
40008a1c:	e28db000 	add	fp, sp, #0
40008a20:	e24dd00c 	sub	sp, sp, #12
40008a24:	e50b0008 	str	r0, [fp, #-8]
40008a28:	e50b100c 	str	r1, [fp, #-12]
40008a2c:	e51b3008 	ldr	r3, [fp, #-8]
40008a30:	e50b3004 	str	r3, [fp, #-4]
40008a34:	ea000002 	b	40008a44 <strnlen+0x2c>
40008a38:	e51b3004 	ldr	r3, [fp, #-4]
40008a3c:	e2833001 	add	r3, r3, #1
40008a40:	e50b3004 	str	r3, [fp, #-4]
40008a44:	e51b300c 	ldr	r3, [fp, #-12]
40008a48:	e3530000 	cmp	r3, #0
40008a4c:	03a03000 	moveq	r3, #0
40008a50:	13a03001 	movne	r3, #1
40008a54:	e20330ff 	and	r3, r3, #255	; 0xff
40008a58:	e51b200c 	ldr	r2, [fp, #-12]
40008a5c:	e2422001 	sub	r2, r2, #1
40008a60:	e50b200c 	str	r2, [fp, #-12]
40008a64:	e3530000 	cmp	r3, #0
40008a68:	0a000003 	beq	40008a7c <strnlen+0x64>
40008a6c:	e51b3004 	ldr	r3, [fp, #-4]
40008a70:	e5d33000 	ldrb	r3, [r3]
40008a74:	e3530000 	cmp	r3, #0
40008a78:	1affffee 	bne	40008a38 <strnlen+0x20>
40008a7c:	e51b2004 	ldr	r2, [fp, #-4]
40008a80:	e51b3008 	ldr	r3, [fp, #-8]
40008a84:	e0633002 	rsb	r3, r3, r2
40008a88:	e1a00003 	mov	r0, r3
40008a8c:	e28bd000 	add	sp, fp, #0
40008a90:	e8bd0800 	pop	{fp}
40008a94:	e12fff1e 	bx	lr

40008a98 <vsprintf>:
40008a98:	e92d4800 	push	{fp, lr}
40008a9c:	e28db004 	add	fp, sp, #4
40008aa0:	e24dd044 	sub	sp, sp, #68	; 0x44
40008aa4:	e50b0038 	str	r0, [fp, #-56]	; 0x38
40008aa8:	e50b103c 	str	r1, [fp, #-60]	; 0x3c
40008aac:	e50b2040 	str	r2, [fp, #-64]	; 0x40
40008ab0:	e51b3038 	ldr	r3, [fp, #-56]	; 0x38
40008ab4:	e50b3014 	str	r3, [fp, #-20]
40008ab8:	ea000235 	b	40009394 <vsprintf+0x8fc>
40008abc:	e51b303c 	ldr	r3, [fp, #-60]	; 0x3c
40008ac0:	e5d33000 	ldrb	r3, [r3]
40008ac4:	e3530025 	cmp	r3, #37	; 0x25
40008ac8:	0a000007 	beq	40008aec <vsprintf+0x54>
40008acc:	e51b303c 	ldr	r3, [fp, #-60]	; 0x3c
40008ad0:	e5d32000 	ldrb	r2, [r3]
40008ad4:	e51b3014 	ldr	r3, [fp, #-20]
40008ad8:	e5c32000 	strb	r2, [r3]
40008adc:	e51b3014 	ldr	r3, [fp, #-20]
40008ae0:	e2833001 	add	r3, r3, #1
40008ae4:	e50b3014 	str	r3, [fp, #-20]
40008ae8:	ea000226 	b	40009388 <vsprintf+0x8f0>
40008aec:	e3a03000 	mov	r3, #0
40008af0:	e50b301c 	str	r3, [fp, #-28]
40008af4:	e51b303c 	ldr	r3, [fp, #-60]	; 0x3c
40008af8:	e2833001 	add	r3, r3, #1
40008afc:	e50b303c 	str	r3, [fp, #-60]	; 0x3c
40008b00:	e51b303c 	ldr	r3, [fp, #-60]	; 0x3c
40008b04:	e5d33000 	ldrb	r3, [r3]
40008b08:	e2433020 	sub	r3, r3, #32
40008b0c:	e3530010 	cmp	r3, #16
40008b10:	979ff103 	ldrls	pc, [pc, r3, lsl #2]
40008b14:	ea000024 	b	40008bac <vsprintf+0x114>
40008b18:	40008b7c 	andmi	r8, r0, ip, ror fp
40008b1c:	40008bac 	andmi	r8, r0, ip, lsr #23
40008b20:	40008bac 	andmi	r8, r0, ip, lsr #23
40008b24:	40008b8c 	andmi	r8, r0, ip, lsl #23
40008b28:	40008bac 	andmi	r8, r0, ip, lsr #23
40008b2c:	40008bac 	andmi	r8, r0, ip, lsr #23
40008b30:	40008bac 	andmi	r8, r0, ip, lsr #23
40008b34:	40008bac 	andmi	r8, r0, ip, lsr #23
40008b38:	40008bac 	andmi	r8, r0, ip, lsr #23
40008b3c:	40008bac 	andmi	r8, r0, ip, lsr #23
40008b40:	40008bac 	andmi	r8, r0, ip, lsr #23
40008b44:	40008b6c 	andmi	r8, r0, ip, ror #22
40008b48:	40008bac 	andmi	r8, r0, ip, lsr #23
40008b4c:	40008b5c 	andmi	r8, r0, ip, asr fp
40008b50:	40008bac 	andmi	r8, r0, ip, lsr #23
40008b54:	40008bac 	andmi	r8, r0, ip, lsr #23
40008b58:	40008b9c 	mulmi	r0, ip, fp
40008b5c:	e51b301c 	ldr	r3, [fp, #-28]
40008b60:	e3833010 	orr	r3, r3, #16
40008b64:	e50b301c 	str	r3, [fp, #-28]
40008b68:	eaffffe1 	b	40008af4 <vsprintf+0x5c>
40008b6c:	e51b301c 	ldr	r3, [fp, #-28]
40008b70:	e3833004 	orr	r3, r3, #4
40008b74:	e50b301c 	str	r3, [fp, #-28]
40008b78:	eaffffdd 	b	40008af4 <vsprintf+0x5c>
40008b7c:	e51b301c 	ldr	r3, [fp, #-28]
40008b80:	e3833008 	orr	r3, r3, #8
40008b84:	e50b301c 	str	r3, [fp, #-28]
40008b88:	eaffffd9 	b	40008af4 <vsprintf+0x5c>
40008b8c:	e51b301c 	ldr	r3, [fp, #-28]
40008b90:	e3833020 	orr	r3, r3, #32
40008b94:	e50b301c 	str	r3, [fp, #-28]
40008b98:	eaffffd5 	b	40008af4 <vsprintf+0x5c>
40008b9c:	e51b301c 	ldr	r3, [fp, #-28]
40008ba0:	e3833001 	orr	r3, r3, #1
40008ba4:	e50b301c 	str	r3, [fp, #-28]
40008ba8:	eaffffd1 	b	40008af4 <vsprintf+0x5c>
40008bac:	e3e03000 	mvn	r3, #0
40008bb0:	e50b3020 	str	r3, [fp, #-32]
40008bb4:	e51b303c 	ldr	r3, [fp, #-60]	; 0x3c
40008bb8:	e5d33000 	ldrb	r3, [r3]
40008bbc:	e353002f 	cmp	r3, #47	; 0x2f
40008bc0:	9a000008 	bls	40008be8 <vsprintf+0x150>
40008bc4:	e51b303c 	ldr	r3, [fp, #-60]	; 0x3c
40008bc8:	e5d33000 	ldrb	r3, [r3]
40008bcc:	e3530039 	cmp	r3, #57	; 0x39
40008bd0:	8a000004 	bhi	40008be8 <vsprintf+0x150>
40008bd4:	e24b303c 	sub	r3, fp, #60	; 0x3c
40008bd8:	e1a00003 	mov	r0, r3
40008bdc:	ebfffe42 	bl	400084ec <skip_atoi>
40008be0:	e50b0020 	str	r0, [fp, #-32]
40008be4:	ea000014 	b	40008c3c <vsprintf+0x1a4>
40008be8:	e51b303c 	ldr	r3, [fp, #-60]	; 0x3c
40008bec:	e5d33000 	ldrb	r3, [r3]
40008bf0:	e353002a 	cmp	r3, #42	; 0x2a
40008bf4:	1a000010 	bne	40008c3c <vsprintf+0x1a4>
40008bf8:	e51b303c 	ldr	r3, [fp, #-60]	; 0x3c
40008bfc:	e2833001 	add	r3, r3, #1
40008c00:	e50b303c 	str	r3, [fp, #-60]	; 0x3c
40008c04:	e51b3040 	ldr	r3, [fp, #-64]	; 0x40
40008c08:	e2832004 	add	r2, r3, #4
40008c0c:	e50b2040 	str	r2, [fp, #-64]	; 0x40
40008c10:	e5933000 	ldr	r3, [r3]
40008c14:	e50b3020 	str	r3, [fp, #-32]
40008c18:	e51b3020 	ldr	r3, [fp, #-32]
40008c1c:	e3530000 	cmp	r3, #0
40008c20:	aa000005 	bge	40008c3c <vsprintf+0x1a4>
40008c24:	e51b3020 	ldr	r3, [fp, #-32]
40008c28:	e2633000 	rsb	r3, r3, #0
40008c2c:	e50b3020 	str	r3, [fp, #-32]
40008c30:	e51b301c 	ldr	r3, [fp, #-28]
40008c34:	e3833010 	orr	r3, r3, #16
40008c38:	e50b301c 	str	r3, [fp, #-28]
40008c3c:	e3e03000 	mvn	r3, #0
40008c40:	e50b3024 	str	r3, [fp, #-36]	; 0x24
40008c44:	e51b303c 	ldr	r3, [fp, #-60]	; 0x3c
40008c48:	e5d33000 	ldrb	r3, [r3]
40008c4c:	e353002e 	cmp	r3, #46	; 0x2e
40008c50:	1a000020 	bne	40008cd8 <vsprintf+0x240>
40008c54:	e51b303c 	ldr	r3, [fp, #-60]	; 0x3c
40008c58:	e2833001 	add	r3, r3, #1
40008c5c:	e50b303c 	str	r3, [fp, #-60]	; 0x3c
40008c60:	e51b303c 	ldr	r3, [fp, #-60]	; 0x3c
40008c64:	e5d33000 	ldrb	r3, [r3]
40008c68:	e353002f 	cmp	r3, #47	; 0x2f
40008c6c:	9a000008 	bls	40008c94 <vsprintf+0x1fc>
40008c70:	e51b303c 	ldr	r3, [fp, #-60]	; 0x3c
40008c74:	e5d33000 	ldrb	r3, [r3]
40008c78:	e3530039 	cmp	r3, #57	; 0x39
40008c7c:	8a000004 	bhi	40008c94 <vsprintf+0x1fc>
40008c80:	e24b303c 	sub	r3, fp, #60	; 0x3c
40008c84:	e1a00003 	mov	r0, r3
40008c88:	ebfffe17 	bl	400084ec <skip_atoi>
40008c8c:	e50b0024 	str	r0, [fp, #-36]	; 0x24
40008c90:	ea00000b 	b	40008cc4 <vsprintf+0x22c>
40008c94:	e51b303c 	ldr	r3, [fp, #-60]	; 0x3c
40008c98:	e5d33000 	ldrb	r3, [r3]
40008c9c:	e353002a 	cmp	r3, #42	; 0x2a
40008ca0:	1a000007 	bne	40008cc4 <vsprintf+0x22c>
40008ca4:	e51b303c 	ldr	r3, [fp, #-60]	; 0x3c
40008ca8:	e2833001 	add	r3, r3, #1
40008cac:	e50b303c 	str	r3, [fp, #-60]	; 0x3c
40008cb0:	e51b3040 	ldr	r3, [fp, #-64]	; 0x40
40008cb4:	e2832004 	add	r2, r3, #4
40008cb8:	e50b2040 	str	r2, [fp, #-64]	; 0x40
40008cbc:	e5933000 	ldr	r3, [r3]
40008cc0:	e50b3024 	str	r3, [fp, #-36]	; 0x24
40008cc4:	e51b3024 	ldr	r3, [fp, #-36]	; 0x24
40008cc8:	e3530000 	cmp	r3, #0
40008ccc:	aa000001 	bge	40008cd8 <vsprintf+0x240>
40008cd0:	e3a03000 	mov	r3, #0
40008cd4:	e50b3024 	str	r3, [fp, #-36]	; 0x24
40008cd8:	e3e03000 	mvn	r3, #0
40008cdc:	e50b3028 	str	r3, [fp, #-40]	; 0x28
40008ce0:	e51b303c 	ldr	r3, [fp, #-60]	; 0x3c
40008ce4:	e5d33000 	ldrb	r3, [r3]
40008ce8:	e3530068 	cmp	r3, #104	; 0x68
40008cec:	0a000017 	beq	40008d50 <vsprintf+0x2b8>
40008cf0:	e51b303c 	ldr	r3, [fp, #-60]	; 0x3c
40008cf4:	e5d33000 	ldrb	r3, [r3]
40008cf8:	e353006c 	cmp	r3, #108	; 0x6c
40008cfc:	0a000013 	beq	40008d50 <vsprintf+0x2b8>
40008d00:	e51b303c 	ldr	r3, [fp, #-60]	; 0x3c
40008d04:	e5d33000 	ldrb	r3, [r3]
40008d08:	e353004c 	cmp	r3, #76	; 0x4c
40008d0c:	0a00000f 	beq	40008d50 <vsprintf+0x2b8>
40008d10:	e51b303c 	ldr	r3, [fp, #-60]	; 0x3c
40008d14:	e5d33000 	ldrb	r3, [r3]
40008d18:	e353005a 	cmp	r3, #90	; 0x5a
40008d1c:	0a00000b 	beq	40008d50 <vsprintf+0x2b8>
40008d20:	e51b303c 	ldr	r3, [fp, #-60]	; 0x3c
40008d24:	e5d33000 	ldrb	r3, [r3]
40008d28:	e353007a 	cmp	r3, #122	; 0x7a
40008d2c:	0a000007 	beq	40008d50 <vsprintf+0x2b8>
40008d30:	e51b303c 	ldr	r3, [fp, #-60]	; 0x3c
40008d34:	e5d33000 	ldrb	r3, [r3]
40008d38:	e3530074 	cmp	r3, #116	; 0x74
40008d3c:	0a000003 	beq	40008d50 <vsprintf+0x2b8>
40008d40:	e51b303c 	ldr	r3, [fp, #-60]	; 0x3c
40008d44:	e5d33000 	ldrb	r3, [r3]
40008d48:	e3530071 	cmp	r3, #113	; 0x71
40008d4c:	1a000012 	bne	40008d9c <vsprintf+0x304>
40008d50:	e51b303c 	ldr	r3, [fp, #-60]	; 0x3c
40008d54:	e5d33000 	ldrb	r3, [r3]
40008d58:	e50b3028 	str	r3, [fp, #-40]	; 0x28
40008d5c:	e51b3028 	ldr	r3, [fp, #-40]	; 0x28
40008d60:	e353006c 	cmp	r3, #108	; 0x6c
40008d64:	1a000009 	bne	40008d90 <vsprintf+0x2f8>
40008d68:	e51b303c 	ldr	r3, [fp, #-60]	; 0x3c
40008d6c:	e2833001 	add	r3, r3, #1
40008d70:	e5d33000 	ldrb	r3, [r3]
40008d74:	e353006c 	cmp	r3, #108	; 0x6c
40008d78:	1a000004 	bne	40008d90 <vsprintf+0x2f8>
40008d7c:	e3a03071 	mov	r3, #113	; 0x71
40008d80:	e50b3028 	str	r3, [fp, #-40]	; 0x28
40008d84:	e51b303c 	ldr	r3, [fp, #-60]	; 0x3c
40008d88:	e2833001 	add	r3, r3, #1
40008d8c:	e50b303c 	str	r3, [fp, #-60]	; 0x3c
40008d90:	e51b303c 	ldr	r3, [fp, #-60]	; 0x3c
40008d94:	e2833001 	add	r3, r3, #1
40008d98:	e50b303c 	str	r3, [fp, #-60]	; 0x3c
40008d9c:	e3a0300a 	mov	r3, #10
40008da0:	e50b3010 	str	r3, [fp, #-16]
40008da4:	e51b303c 	ldr	r3, [fp, #-60]	; 0x3c
40008da8:	e5d33000 	ldrb	r3, [r3]
40008dac:	e2433025 	sub	r3, r3, #37	; 0x25
40008db0:	e3530053 	cmp	r3, #83	; 0x53
40008db4:	979ff103 	ldrls	pc, [pc, r3, lsl #2]
40008db8:	ea00010d 	b	400091f4 <vsprintf+0x75c>
40008dbc:	400091a4 	andmi	r9, r0, r4, lsr #3
40008dc0:	400091f4 	strdmi	r9, [r0], -r4
40008dc4:	400091f4 	strdmi	r9, [r0], -r4
40008dc8:	400091f4 	strdmi	r9, [r0], -r4
40008dcc:	400091f4 	strdmi	r9, [r0], -r4
40008dd0:	400091f4 	strdmi	r9, [r0], -r4
40008dd4:	400091f4 	strdmi	r9, [r0], -r4
40008dd8:	400091f4 	strdmi	r9, [r0], -r4
40008ddc:	400091f4 	strdmi	r9, [r0], -r4
40008de0:	400091f4 	strdmi	r9, [r0], -r4
40008de4:	400091f4 	strdmi	r9, [r0], -r4
40008de8:	400091f4 	strdmi	r9, [r0], -r4
40008dec:	400091f4 	strdmi	r9, [r0], -r4
40008df0:	400091f4 	strdmi	r9, [r0], -r4
40008df4:	400091f4 	strdmi	r9, [r0], -r4
40008df8:	400091f4 	strdmi	r9, [r0], -r4
40008dfc:	400091f4 	strdmi	r9, [r0], -r4
40008e00:	400091f4 	strdmi	r9, [r0], -r4
40008e04:	400091f4 	strdmi	r9, [r0], -r4
40008e08:	400091f4 	strdmi	r9, [r0], -r4
40008e0c:	400091f4 	strdmi	r9, [r0], -r4
40008e10:	400091f4 	strdmi	r9, [r0], -r4
40008e14:	400091f4 	strdmi	r9, [r0], -r4
40008e18:	400091f4 	strdmi	r9, [r0], -r4
40008e1c:	400091f4 	strdmi	r9, [r0], -r4
40008e20:	400091f4 	strdmi	r9, [r0], -r4
40008e24:	400091f4 	strdmi	r9, [r0], -r4
40008e28:	400091f4 	strdmi	r9, [r0], -r4
40008e2c:	400091f4 	strdmi	r9, [r0], -r4
40008e30:	400091f4 	strdmi	r9, [r0], -r4
40008e34:	400091f4 	strdmi	r9, [r0], -r4
40008e38:	400091f4 	strdmi	r9, [r0], -r4
40008e3c:	400091f4 	strdmi	r9, [r0], -r4
40008e40:	400091f4 	strdmi	r9, [r0], -r4
40008e44:	400091f4 	strdmi	r9, [r0], -r4
40008e48:	400091f4 	strdmi	r9, [r0], -r4
40008e4c:	400091f4 	strdmi	r9, [r0], -r4
40008e50:	400091f4 	strdmi	r9, [r0], -r4
40008e54:	400091f4 	strdmi	r9, [r0], -r4
40008e58:	400091f4 	strdmi	r9, [r0], -r4
40008e5c:	400091f4 	strdmi	r9, [r0], -r4
40008e60:	400091f4 	strdmi	r9, [r0], -r4
40008e64:	400091f4 	strdmi	r9, [r0], -r4
40008e68:	400091f4 	strdmi	r9, [r0], -r4
40008e6c:	400091f4 	strdmi	r9, [r0], -r4
40008e70:	400091f4 	strdmi	r9, [r0], -r4
40008e74:	400091f4 	strdmi	r9, [r0], -r4
40008e78:	400091f4 	strdmi	r9, [r0], -r4
40008e7c:	400091f4 	strdmi	r9, [r0], -r4
40008e80:	400091f4 	strdmi	r9, [r0], -r4
40008e84:	400091f4 	strdmi	r9, [r0], -r4
40008e88:	400091cc 	andmi	r9, r0, ip, asr #3
40008e8c:	400091f4 	strdmi	r9, [r0], -r4
40008e90:	400091f4 	strdmi	r9, [r0], -r4
40008e94:	400091f4 	strdmi	r9, [r0], -r4
40008e98:	400091f4 	strdmi	r9, [r0], -r4
40008e9c:	400091f4 	strdmi	r9, [r0], -r4
40008ea0:	400091f4 	strdmi	r9, [r0], -r4
40008ea4:	400091f4 	strdmi	r9, [r0], -r4
40008ea8:	400091f4 	strdmi	r9, [r0], -r4
40008eac:	400091f4 	strdmi	r9, [r0], -r4
40008eb0:	400091f4 	strdmi	r9, [r0], -r4
40008eb4:	40008f0c 	andmi	r8, r0, ip, lsl #30
40008eb8:	400091e4 	andmi	r9, r0, r4, ror #3
40008ebc:	400091f4 	strdmi	r9, [r0], -r4
40008ec0:	400091f4 	strdmi	r9, [r0], -r4
40008ec4:	400091f4 	strdmi	r9, [r0], -r4
40008ec8:	400091f4 	strdmi	r9, [r0], -r4
40008ecc:	400091e4 	andmi	r9, r0, r4, ror #3
40008ed0:	400091f4 	strdmi	r9, [r0], -r4
40008ed4:	400091f4 	strdmi	r9, [r0], -r4
40008ed8:	400091f4 	strdmi	r9, [r0], -r4
40008edc:	400091f4 	strdmi	r9, [r0], -r4
40008ee0:	40009140 	andmi	r9, r0, r0, asr #2
40008ee4:	400091c0 	andmi	r9, r0, r0, asr #3
40008ee8:	400090e4 	andmi	r9, r0, r4, ror #1
40008eec:	400091f4 	strdmi	r9, [r0], -r4
40008ef0:	400091f4 	strdmi	r9, [r0], -r4
40008ef4:	40008fb0 			; <UNDEFINED> instruction: 0x40008fb0
40008ef8:	400091f4 	strdmi	r9, [r0], -r4
40008efc:	4000924c 	andmi	r9, r0, ip, asr #4
40008f00:	400091f4 	strdmi	r9, [r0], -r4
40008f04:	400091f4 	strdmi	r9, [r0], -r4
40008f08:	400091d8 	ldrdmi	r9, [r0], -r8
40008f0c:	e51b301c 	ldr	r3, [fp, #-28]
40008f10:	e2033010 	and	r3, r3, #16
40008f14:	e3530000 	cmp	r3, #0
40008f18:	1a00000c 	bne	40008f50 <vsprintf+0x4b8>
40008f1c:	ea000005 	b	40008f38 <vsprintf+0x4a0>
40008f20:	e51b3014 	ldr	r3, [fp, #-20]
40008f24:	e3a02020 	mov	r2, #32
40008f28:	e5c32000 	strb	r2, [r3]
40008f2c:	e51b3014 	ldr	r3, [fp, #-20]
40008f30:	e2833001 	add	r3, r3, #1
40008f34:	e50b3014 	str	r3, [fp, #-20]
40008f38:	e51b3020 	ldr	r3, [fp, #-32]
40008f3c:	e2433001 	sub	r3, r3, #1
40008f40:	e50b3020 	str	r3, [fp, #-32]
40008f44:	e51b3020 	ldr	r3, [fp, #-32]
40008f48:	e3530000 	cmp	r3, #0
40008f4c:	cafffff3 	bgt	40008f20 <vsprintf+0x488>
40008f50:	e51b3040 	ldr	r3, [fp, #-64]	; 0x40
40008f54:	e2832004 	add	r2, r3, #4
40008f58:	e50b2040 	str	r2, [fp, #-64]	; 0x40
40008f5c:	e5933000 	ldr	r3, [r3]
40008f60:	e20320ff 	and	r2, r3, #255	; 0xff
40008f64:	e51b3014 	ldr	r3, [fp, #-20]
40008f68:	e5c32000 	strb	r2, [r3]
40008f6c:	e51b3014 	ldr	r3, [fp, #-20]
40008f70:	e2833001 	add	r3, r3, #1
40008f74:	e50b3014 	str	r3, [fp, #-20]
40008f78:	ea000005 	b	40008f94 <vsprintf+0x4fc>
40008f7c:	e51b3014 	ldr	r3, [fp, #-20]
40008f80:	e3a02020 	mov	r2, #32
40008f84:	e5c32000 	strb	r2, [r3]
40008f88:	e51b3014 	ldr	r3, [fp, #-20]
40008f8c:	e2833001 	add	r3, r3, #1
40008f90:	e50b3014 	str	r3, [fp, #-20]
40008f94:	e51b3020 	ldr	r3, [fp, #-32]
40008f98:	e2433001 	sub	r3, r3, #1
40008f9c:	e50b3020 	str	r3, [fp, #-32]
40008fa0:	e51b3020 	ldr	r3, [fp, #-32]
40008fa4:	e3530000 	cmp	r3, #0
40008fa8:	cafffff3 	bgt	40008f7c <vsprintf+0x4e4>
40008fac:	ea0000f5 	b	40009388 <vsprintf+0x8f0>
40008fb0:	e51b3040 	ldr	r3, [fp, #-64]	; 0x40
40008fb4:	e2832004 	add	r2, r3, #4
40008fb8:	e50b2040 	str	r2, [fp, #-64]	; 0x40
40008fbc:	e5933000 	ldr	r3, [r3]
40008fc0:	e50b3018 	str	r3, [fp, #-24]
40008fc4:	e51b3018 	ldr	r3, [fp, #-24]
40008fc8:	e3530000 	cmp	r3, #0
40008fcc:	1a000001 	bne	40008fd8 <vsprintf+0x540>
40008fd0:	e59f33f4 	ldr	r3, [pc, #1012]	; 400093cc <vsprintf+0x934>
40008fd4:	e50b3018 	str	r3, [fp, #-24]
40008fd8:	e51b3024 	ldr	r3, [fp, #-36]	; 0x24
40008fdc:	e51b0018 	ldr	r0, [fp, #-24]
40008fe0:	e1a01003 	mov	r1, r3
40008fe4:	ebfffe8b 	bl	40008a18 <strnlen>
40008fe8:	e1a03000 	mov	r3, r0
40008fec:	e50b302c 	str	r3, [fp, #-44]	; 0x2c
40008ff0:	e51b301c 	ldr	r3, [fp, #-28]
40008ff4:	e2033010 	and	r3, r3, #16
40008ff8:	e3530000 	cmp	r3, #0
40008ffc:	1a000011 	bne	40009048 <vsprintf+0x5b0>
40009000:	ea000005 	b	4000901c <vsprintf+0x584>
40009004:	e51b3014 	ldr	r3, [fp, #-20]
40009008:	e3a02020 	mov	r2, #32
4000900c:	e5c32000 	strb	r2, [r3]
40009010:	e51b3014 	ldr	r3, [fp, #-20]
40009014:	e2833001 	add	r3, r3, #1
40009018:	e50b3014 	str	r3, [fp, #-20]
4000901c:	e51b2020 	ldr	r2, [fp, #-32]
40009020:	e51b302c 	ldr	r3, [fp, #-44]	; 0x2c
40009024:	e1520003 	cmp	r2, r3
40009028:	d3a03000 	movle	r3, #0
4000902c:	c3a03001 	movgt	r3, #1
40009030:	e20330ff 	and	r3, r3, #255	; 0xff
40009034:	e51b2020 	ldr	r2, [fp, #-32]
40009038:	e2422001 	sub	r2, r2, #1
4000903c:	e50b2020 	str	r2, [fp, #-32]
40009040:	e3530000 	cmp	r3, #0
40009044:	1affffee 	bne	40009004 <vsprintf+0x56c>
40009048:	e3a03000 	mov	r3, #0
4000904c:	e50b300c 	str	r3, [fp, #-12]
40009050:	ea00000c 	b	40009088 <vsprintf+0x5f0>
40009054:	e51b3018 	ldr	r3, [fp, #-24]
40009058:	e5d32000 	ldrb	r2, [r3]
4000905c:	e51b3014 	ldr	r3, [fp, #-20]
40009060:	e5c32000 	strb	r2, [r3]
40009064:	e51b3014 	ldr	r3, [fp, #-20]
40009068:	e2833001 	add	r3, r3, #1
4000906c:	e50b3014 	str	r3, [fp, #-20]
40009070:	e51b3018 	ldr	r3, [fp, #-24]
40009074:	e2833001 	add	r3, r3, #1
40009078:	e50b3018 	str	r3, [fp, #-24]
4000907c:	e51b300c 	ldr	r3, [fp, #-12]
40009080:	e2833001 	add	r3, r3, #1
40009084:	e50b300c 	str	r3, [fp, #-12]
40009088:	e51b200c 	ldr	r2, [fp, #-12]
4000908c:	e51b302c 	ldr	r3, [fp, #-44]	; 0x2c
40009090:	e1520003 	cmp	r2, r3
40009094:	baffffee 	blt	40009054 <vsprintf+0x5bc>
40009098:	ea000005 	b	400090b4 <vsprintf+0x61c>
4000909c:	e51b3014 	ldr	r3, [fp, #-20]
400090a0:	e3a02020 	mov	r2, #32
400090a4:	e5c32000 	strb	r2, [r3]
400090a8:	e51b3014 	ldr	r3, [fp, #-20]
400090ac:	e2833001 	add	r3, r3, #1
400090b0:	e50b3014 	str	r3, [fp, #-20]
400090b4:	e51b2020 	ldr	r2, [fp, #-32]
400090b8:	e51b302c 	ldr	r3, [fp, #-44]	; 0x2c
400090bc:	e1520003 	cmp	r2, r3
400090c0:	d3a03000 	movle	r3, #0
400090c4:	c3a03001 	movgt	r3, #1
400090c8:	e20330ff 	and	r3, r3, #255	; 0xff
400090cc:	e51b2020 	ldr	r2, [fp, #-32]
400090d0:	e2422001 	sub	r2, r2, #1
400090d4:	e50b2020 	str	r2, [fp, #-32]
400090d8:	e3530000 	cmp	r3, #0
400090dc:	1affffee 	bne	4000909c <vsprintf+0x604>
400090e0:	ea0000a8 	b	40009388 <vsprintf+0x8f0>
400090e4:	e51b3020 	ldr	r3, [fp, #-32]
400090e8:	e3730001 	cmn	r3, #1
400090ec:	1a000004 	bne	40009104 <vsprintf+0x66c>
400090f0:	e3a03008 	mov	r3, #8
400090f4:	e50b3020 	str	r3, [fp, #-32]
400090f8:	e51b301c 	ldr	r3, [fp, #-28]
400090fc:	e3833001 	orr	r3, r3, #1
40009100:	e50b301c 	str	r3, [fp, #-28]
40009104:	e51b3040 	ldr	r3, [fp, #-64]	; 0x40
40009108:	e2832004 	add	r2, r3, #4
4000910c:	e50b2040 	str	r2, [fp, #-64]	; 0x40
40009110:	e5933000 	ldr	r3, [r3]
40009114:	e51b2024 	ldr	r2, [fp, #-36]	; 0x24
40009118:	e58d2000 	str	r2, [sp]
4000911c:	e51b201c 	ldr	r2, [fp, #-28]
40009120:	e58d2004 	str	r2, [sp, #4]
40009124:	e51b0014 	ldr	r0, [fp, #-20]
40009128:	e1a01003 	mov	r1, r3
4000912c:	e3a02010 	mov	r2, #16
40009130:	e51b3020 	ldr	r3, [fp, #-32]
40009134:	ebfffd11 	bl	40008580 <number>
40009138:	e50b0014 	str	r0, [fp, #-20]
4000913c:	ea000091 	b	40009388 <vsprintf+0x8f0>
40009140:	e51b3028 	ldr	r3, [fp, #-40]	; 0x28
40009144:	e353006c 	cmp	r3, #108	; 0x6c
40009148:	1a00000a 	bne	40009178 <vsprintf+0x6e0>
4000914c:	e51b3040 	ldr	r3, [fp, #-64]	; 0x40
40009150:	e2832004 	add	r2, r3, #4
40009154:	e50b2040 	str	r2, [fp, #-64]	; 0x40
40009158:	e5933000 	ldr	r3, [r3]
4000915c:	e50b3030 	str	r3, [fp, #-48]	; 0x30
40009160:	e51b2014 	ldr	r2, [fp, #-20]
40009164:	e51b3038 	ldr	r3, [fp, #-56]	; 0x38
40009168:	e0632002 	rsb	r2, r3, r2
4000916c:	e51b3030 	ldr	r3, [fp, #-48]	; 0x30
40009170:	e5832000 	str	r2, [r3]
40009174:	ea000083 	b	40009388 <vsprintf+0x8f0>
40009178:	e51b3040 	ldr	r3, [fp, #-64]	; 0x40
4000917c:	e2832004 	add	r2, r3, #4
40009180:	e50b2040 	str	r2, [fp, #-64]	; 0x40
40009184:	e5933000 	ldr	r3, [r3]
40009188:	e50b3034 	str	r3, [fp, #-52]	; 0x34
4000918c:	e51b2014 	ldr	r2, [fp, #-20]
40009190:	e51b3038 	ldr	r3, [fp, #-56]	; 0x38
40009194:	e0632002 	rsb	r2, r3, r2
40009198:	e51b3034 	ldr	r3, [fp, #-52]	; 0x34
4000919c:	e5832000 	str	r2, [r3]
400091a0:	ea000078 	b	40009388 <vsprintf+0x8f0>
400091a4:	e51b3014 	ldr	r3, [fp, #-20]
400091a8:	e3a02025 	mov	r2, #37	; 0x25
400091ac:	e5c32000 	strb	r2, [r3]
400091b0:	e51b3014 	ldr	r3, [fp, #-20]
400091b4:	e2833001 	add	r3, r3, #1
400091b8:	e50b3014 	str	r3, [fp, #-20]
400091bc:	ea000071 	b	40009388 <vsprintf+0x8f0>
400091c0:	e3a03008 	mov	r3, #8
400091c4:	e50b3010 	str	r3, [fp, #-16]
400091c8:	ea000020 	b	40009250 <vsprintf+0x7b8>
400091cc:	e51b301c 	ldr	r3, [fp, #-28]
400091d0:	e3833040 	orr	r3, r3, #64	; 0x40
400091d4:	e50b301c 	str	r3, [fp, #-28]
400091d8:	e3a03010 	mov	r3, #16
400091dc:	e50b3010 	str	r3, [fp, #-16]
400091e0:	ea00001a 	b	40009250 <vsprintf+0x7b8>
400091e4:	e51b301c 	ldr	r3, [fp, #-28]
400091e8:	e3833002 	orr	r3, r3, #2
400091ec:	e50b301c 	str	r3, [fp, #-28]
400091f0:	ea000015 	b	4000924c <vsprintf+0x7b4>
400091f4:	e51b3014 	ldr	r3, [fp, #-20]
400091f8:	e3a02025 	mov	r2, #37	; 0x25
400091fc:	e5c32000 	strb	r2, [r3]
40009200:	e51b3014 	ldr	r3, [fp, #-20]
40009204:	e2833001 	add	r3, r3, #1
40009208:	e50b3014 	str	r3, [fp, #-20]
4000920c:	e51b303c 	ldr	r3, [fp, #-60]	; 0x3c
40009210:	e5d33000 	ldrb	r3, [r3]
40009214:	e3530000 	cmp	r3, #0
40009218:	0a000007 	beq	4000923c <vsprintf+0x7a4>
4000921c:	e51b303c 	ldr	r3, [fp, #-60]	; 0x3c
40009220:	e5d32000 	ldrb	r2, [r3]
40009224:	e51b3014 	ldr	r3, [fp, #-20]
40009228:	e5c32000 	strb	r2, [r3]
4000922c:	e51b3014 	ldr	r3, [fp, #-20]
40009230:	e2833001 	add	r3, r3, #1
40009234:	e50b3014 	str	r3, [fp, #-20]
40009238:	ea000052 	b	40009388 <vsprintf+0x8f0>
4000923c:	e51b303c 	ldr	r3, [fp, #-60]	; 0x3c
40009240:	e2433001 	sub	r3, r3, #1
40009244:	e50b303c 	str	r3, [fp, #-60]	; 0x3c
40009248:	ea00004e 	b	40009388 <vsprintf+0x8f0>
4000924c:	e1a00000 	nop			; (mov r0, r0)
40009250:	e51b3028 	ldr	r3, [fp, #-40]	; 0x28
40009254:	e353006c 	cmp	r3, #108	; 0x6c
40009258:	1a000005 	bne	40009274 <vsprintf+0x7dc>
4000925c:	e51b3040 	ldr	r3, [fp, #-64]	; 0x40
40009260:	e2832004 	add	r2, r3, #4
40009264:	e50b2040 	str	r2, [fp, #-64]	; 0x40
40009268:	e5933000 	ldr	r3, [r3]
4000926c:	e50b3008 	str	r3, [fp, #-8]
40009270:	ea000038 	b	40009358 <vsprintf+0x8c0>
40009274:	e51b3028 	ldr	r3, [fp, #-40]	; 0x28
40009278:	e353005a 	cmp	r3, #90	; 0x5a
4000927c:	0a000002 	beq	4000928c <vsprintf+0x7f4>
40009280:	e51b3028 	ldr	r3, [fp, #-40]	; 0x28
40009284:	e353007a 	cmp	r3, #122	; 0x7a
40009288:	1a000005 	bne	400092a4 <vsprintf+0x80c>
4000928c:	e51b3040 	ldr	r3, [fp, #-64]	; 0x40
40009290:	e2832004 	add	r2, r3, #4
40009294:	e50b2040 	str	r2, [fp, #-64]	; 0x40
40009298:	e5933000 	ldr	r3, [r3]
4000929c:	e50b3008 	str	r3, [fp, #-8]
400092a0:	ea00002c 	b	40009358 <vsprintf+0x8c0>
400092a4:	e51b3028 	ldr	r3, [fp, #-40]	; 0x28
400092a8:	e3530074 	cmp	r3, #116	; 0x74
400092ac:	1a000005 	bne	400092c8 <vsprintf+0x830>
400092b0:	e51b3040 	ldr	r3, [fp, #-64]	; 0x40
400092b4:	e2832004 	add	r2, r3, #4
400092b8:	e50b2040 	str	r2, [fp, #-64]	; 0x40
400092bc:	e5933000 	ldr	r3, [r3]
400092c0:	e50b3008 	str	r3, [fp, #-8]
400092c4:	ea000023 	b	40009358 <vsprintf+0x8c0>
400092c8:	e51b3028 	ldr	r3, [fp, #-40]	; 0x28
400092cc:	e3530068 	cmp	r3, #104	; 0x68
400092d0:	1a000011 	bne	4000931c <vsprintf+0x884>
400092d4:	e51b3040 	ldr	r3, [fp, #-64]	; 0x40
400092d8:	e2832004 	add	r2, r3, #4
400092dc:	e50b2040 	str	r2, [fp, #-64]	; 0x40
400092e0:	e5933000 	ldr	r3, [r3]
400092e4:	e1a03803 	lsl	r3, r3, #16
400092e8:	e1a03823 	lsr	r3, r3, #16
400092ec:	e50b3008 	str	r3, [fp, #-8]
400092f0:	e51b301c 	ldr	r3, [fp, #-28]
400092f4:	e2033002 	and	r3, r3, #2
400092f8:	e3530000 	cmp	r3, #0
400092fc:	0a000015 	beq	40009358 <vsprintf+0x8c0>
40009300:	e51b3008 	ldr	r3, [fp, #-8]
40009304:	e1a03803 	lsl	r3, r3, #16
40009308:	e1a03823 	lsr	r3, r3, #16
4000930c:	e1a03803 	lsl	r3, r3, #16
40009310:	e1a03843 	asr	r3, r3, #16
40009314:	e50b3008 	str	r3, [fp, #-8]
40009318:	ea00000e 	b	40009358 <vsprintf+0x8c0>
4000931c:	e51b301c 	ldr	r3, [fp, #-28]
40009320:	e2033002 	and	r3, r3, #2
40009324:	e3530000 	cmp	r3, #0
40009328:	0a000005 	beq	40009344 <vsprintf+0x8ac>
4000932c:	e51b3040 	ldr	r3, [fp, #-64]	; 0x40
40009330:	e2832004 	add	r2, r3, #4
40009334:	e50b2040 	str	r2, [fp, #-64]	; 0x40
40009338:	e5933000 	ldr	r3, [r3]
4000933c:	e50b3008 	str	r3, [fp, #-8]
40009340:	ea000004 	b	40009358 <vsprintf+0x8c0>
40009344:	e51b3040 	ldr	r3, [fp, #-64]	; 0x40
40009348:	e2832004 	add	r2, r3, #4
4000934c:	e50b2040 	str	r2, [fp, #-64]	; 0x40
40009350:	e5933000 	ldr	r3, [r3]
40009354:	e50b3008 	str	r3, [fp, #-8]
40009358:	e51b2008 	ldr	r2, [fp, #-8]
4000935c:	e51b3010 	ldr	r3, [fp, #-16]
40009360:	e51b1024 	ldr	r1, [fp, #-36]	; 0x24
40009364:	e58d1000 	str	r1, [sp]
40009368:	e51b101c 	ldr	r1, [fp, #-28]
4000936c:	e58d1004 	str	r1, [sp, #4]
40009370:	e51b0014 	ldr	r0, [fp, #-20]
40009374:	e1a01002 	mov	r1, r2
40009378:	e1a02003 	mov	r2, r3
4000937c:	e51b3020 	ldr	r3, [fp, #-32]
40009380:	ebfffc7e 	bl	40008580 <number>
40009384:	e50b0014 	str	r0, [fp, #-20]
40009388:	e51b303c 	ldr	r3, [fp, #-60]	; 0x3c
4000938c:	e2833001 	add	r3, r3, #1
40009390:	e50b303c 	str	r3, [fp, #-60]	; 0x3c
40009394:	e51b303c 	ldr	r3, [fp, #-60]	; 0x3c
40009398:	e5d33000 	ldrb	r3, [r3]
4000939c:	e3530000 	cmp	r3, #0
400093a0:	1afffdc5 	bne	40008abc <vsprintf+0x24>
400093a4:	e51b3014 	ldr	r3, [fp, #-20]
400093a8:	e3a02000 	mov	r2, #0
400093ac:	e5c32000 	strb	r2, [r3]
400093b0:	e51b2014 	ldr	r2, [fp, #-20]
400093b4:	e51b3038 	ldr	r3, [fp, #-56]	; 0x38
400093b8:	e0633002 	rsb	r3, r3, r2
400093bc:	e1a00003 	mov	r0, r3
400093c0:	e24bd004 	sub	sp, fp, #4
400093c4:	e8bd4800 	pop	{fp, lr}
400093c8:	e12fff1e 	bx	lr
400093cc:	400097fc 	strdmi	r9, [r0], -ip

400093d0 <sprintf>:
400093d0:	e92d000e 	push	{r1, r2, r3}
400093d4:	e92d4800 	push	{fp, lr}
400093d8:	e28db004 	add	fp, sp, #4
400093dc:	e24dd00c 	sub	sp, sp, #12
400093e0:	e50b0010 	str	r0, [fp, #-16]
400093e4:	e28b2008 	add	r2, fp, #8
400093e8:	e24b300c 	sub	r3, fp, #12
400093ec:	e5832000 	str	r2, [r3]
400093f0:	e51b300c 	ldr	r3, [fp, #-12]
400093f4:	e51b0010 	ldr	r0, [fp, #-16]
400093f8:	e59b1004 	ldr	r1, [fp, #4]
400093fc:	e1a02003 	mov	r2, r3
40009400:	ebfffda4 	bl	40008a98 <vsprintf>
40009404:	e50b0008 	str	r0, [fp, #-8]
40009408:	e51b3008 	ldr	r3, [fp, #-8]
4000940c:	e1a00003 	mov	r0, r3
40009410:	e24bd004 	sub	sp, fp, #4
40009414:	e8bd4800 	pop	{fp, lr}
40009418:	e28dd00c 	add	sp, sp, #12
4000941c:	e12fff1e 	bx	lr

40009420 <printf>:
40009420:	e92d000f 	push	{r0, r1, r2, r3}
40009424:	e92d4800 	push	{fp, lr}
40009428:	e28db004 	add	fp, sp, #4
4000942c:	e24dd06c 	sub	sp, sp, #108	; 0x6c
40009430:	e28b2008 	add	r2, fp, #8
40009434:	e24b300c 	sub	r3, fp, #12
40009438:	e5832000 	str	r2, [r3]
4000943c:	e51b300c 	ldr	r3, [fp, #-12]
40009440:	e24b2070 	sub	r2, fp, #112	; 0x70
40009444:	e1a00002 	mov	r0, r2
40009448:	e59b1004 	ldr	r1, [fp, #4]
4000944c:	e1a02003 	mov	r2, r3
40009450:	ebfffd90 	bl	40008a98 <vsprintf>
40009454:	e1a03000 	mov	r3, r0
40009458:	e50b3008 	str	r3, [fp, #-8]
4000945c:	e24b3070 	sub	r3, fp, #112	; 0x70
40009460:	e1a00003 	mov	r0, r3
40009464:	eb000033 	bl	40009538 <puts>
40009468:	e24bd004 	sub	sp, fp, #4
4000946c:	e8bd4800 	pop	{fp, lr}
40009470:	e28dd010 	add	sp, sp, #16
40009474:	e12fff1e 	bx	lr

40009478 <uart_init>:
40009478:	e52db004 	push	{fp}		; (str fp, [sp, #-4]!)
4000947c:	e28db000 	add	fp, sp, #0
40009480:	e59f304c 	ldr	r3, [pc, #76]	; 400094d4 <uart_init+0x5c>
40009484:	e59f2048 	ldr	r2, [pc, #72]	; 400094d4 <uart_init+0x5c>
40009488:	e5922000 	ldr	r2, [r2]
4000948c:	e3c220ff 	bic	r2, r2, #255	; 0xff
40009490:	e3822022 	orr	r2, r2, #34	; 0x22
40009494:	e5832000 	str	r2, [r3]
40009498:	e59f3038 	ldr	r3, [pc, #56]	; 400094d8 <uart_init+0x60>
4000949c:	e3a02003 	mov	r2, #3
400094a0:	e5832000 	str	r2, [r3]
400094a4:	e59f302c 	ldr	r3, [pc, #44]	; 400094d8 <uart_init+0x60>
400094a8:	e3a02005 	mov	r2, #5
400094ac:	e5832004 	str	r2, [r3, #4]
400094b0:	e59f3020 	ldr	r3, [pc, #32]	; 400094d8 <uart_init+0x60>
400094b4:	e3a02035 	mov	r2, #53	; 0x35
400094b8:	e5832028 	str	r2, [r3, #40]	; 0x28
400094bc:	e59f3014 	ldr	r3, [pc, #20]	; 400094d8 <uart_init+0x60>
400094c0:	e3a02005 	mov	r2, #5
400094c4:	e583202c 	str	r2, [r3, #44]	; 0x2c
400094c8:	e28bd000 	add	sp, fp, #0
400094cc:	e8bd0800 	pop	{fp}
400094d0:	e12fff1e 	bx	lr
400094d4:	11400020 	cmpne	r0, r0, lsr #32
400094d8:	13820000 	orrne	r0, r2, #0

400094dc <putc>:
400094dc:	e92d4800 	push	{fp, lr}
400094e0:	e28db004 	add	fp, sp, #4
400094e4:	e24dd004 	sub	sp, sp, #4
400094e8:	e1a03000 	mov	r3, r0
400094ec:	e54b3008 	strb	r3, [fp, #-8]
400094f0:	e1a00000 	nop			; (mov r0, r0)
400094f4:	e59f3038 	ldr	r3, [pc, #56]	; 40009534 <putc+0x58>
400094f8:	e5933010 	ldr	r3, [r3, #16]
400094fc:	e2033002 	and	r3, r3, #2
40009500:	e3530000 	cmp	r3, #0
40009504:	0afffffa 	beq	400094f4 <putc+0x18>
40009508:	e59f3024 	ldr	r3, [pc, #36]	; 40009534 <putc+0x58>
4000950c:	e55b2008 	ldrb	r2, [fp, #-8]
40009510:	e5832020 	str	r2, [r3, #32]
40009514:	e55b3008 	ldrb	r3, [fp, #-8]
40009518:	e353000a 	cmp	r3, #10
4000951c:	1a000001 	bne	40009528 <putc+0x4c>
40009520:	e3a0000d 	mov	r0, #13
40009524:	ebffffec 	bl	400094dc <putc>
40009528:	e24bd004 	sub	sp, fp, #4
4000952c:	e8bd4800 	pop	{fp, lr}
40009530:	e12fff1e 	bx	lr
40009534:	13820000 	orrne	r0, r2, #0

40009538 <puts>:
40009538:	e92d4800 	push	{fp, lr}
4000953c:	e28db004 	add	fp, sp, #4
40009540:	e24dd004 	sub	sp, sp, #4
40009544:	e50b0008 	str	r0, [fp, #-8]
40009548:	ea000006 	b	40009568 <puts+0x30>
4000954c:	e51b3008 	ldr	r3, [fp, #-8]
40009550:	e5d33000 	ldrb	r3, [r3]
40009554:	e51b2008 	ldr	r2, [fp, #-8]
40009558:	e2822001 	add	r2, r2, #1
4000955c:	e50b2008 	str	r2, [fp, #-8]
40009560:	e1a00003 	mov	r0, r3
40009564:	ebffffdc 	bl	400094dc <putc>
40009568:	e51b3008 	ldr	r3, [fp, #-8]
4000956c:	e5d33000 	ldrb	r3, [r3]
40009570:	e3530000 	cmp	r3, #0
40009574:	1afffff4 	bne	4000954c <puts+0x14>
40009578:	e24bd004 	sub	sp, fp, #4
4000957c:	e8bd4800 	pop	{fp, lr}
40009580:	e12fff1e 	bx	lr

40009584 <Dealy_Ms>:
40009584:	e52db004 	push	{fp}		; (str fp, [sp, #-4]!)
40009588:	e28db000 	add	fp, sp, #0
4000958c:	e24dd00c 	sub	sp, sp, #12
40009590:	e50b000c 	str	r0, [fp, #-12]
40009594:	e3a03000 	mov	r3, #0
40009598:	e50b3004 	str	r3, [fp, #-4]
4000959c:	ea00000c 	b	400095d4 <Dealy_Ms+0x50>
400095a0:	e3a03000 	mov	r3, #0
400095a4:	e50b3008 	str	r3, [fp, #-8]
400095a8:	ea000002 	b	400095b8 <Dealy_Ms+0x34>
400095ac:	e51b3008 	ldr	r3, [fp, #-8]
400095b0:	e2833001 	add	r3, r3, #1
400095b4:	e50b3008 	str	r3, [fp, #-8]
400095b8:	e51b2008 	ldr	r2, [fp, #-8]
400095bc:	e59f302c 	ldr	r3, [pc, #44]	; 400095f0 <Dealy_Ms+0x6c>
400095c0:	e1520003 	cmp	r2, r3
400095c4:	9afffff8 	bls	400095ac <Dealy_Ms+0x28>
400095c8:	e51b3004 	ldr	r3, [fp, #-4]
400095cc:	e2833001 	add	r3, r3, #1
400095d0:	e50b3004 	str	r3, [fp, #-4]
400095d4:	e51b2004 	ldr	r2, [fp, #-4]
400095d8:	e51b300c 	ldr	r3, [fp, #-12]
400095dc:	e1520003 	cmp	r2, r3
400095e0:	3affffee 	bcc	400095a0 <Dealy_Ms+0x1c>
400095e4:	e28bd000 	add	sp, fp, #0
400095e8:	e8bd0800 	pop	{fp}
400095ec:	e12fff1e 	bx	lr
400095f0:	000009c3 	andeq	r0, r0, r3, asr #19

400095f4 <main>:
400095f4:	e92d4800 	push	{fp, lr}
400095f8:	e28db004 	add	fp, sp, #4
400095fc:	e59f3198 	ldr	r3, [pc, #408]	; 4000979c <main+0x1a8>
40009600:	e59f2194 	ldr	r2, [pc, #404]	; 4000979c <main+0x1a8>
40009604:	e5922000 	ldr	r2, [r2]
40009608:	e3c2200f 	bic	r2, r2, #15
4000960c:	e3822002 	orr	r2, r2, #2
40009610:	e5832000 	str	r2, [r3]
40009614:	e59f3184 	ldr	r3, [pc, #388]	; 400097a0 <main+0x1ac>
40009618:	e59f2180 	ldr	r2, [pc, #384]	; 400097a0 <main+0x1ac>
4000961c:	e5922000 	ldr	r2, [r2]
40009620:	e3c220ff 	bic	r2, r2, #255	; 0xff
40009624:	e3822063 	orr	r2, r2, #99	; 0x63
40009628:	e5832000 	str	r2, [r3]
4000962c:	e59f316c 	ldr	r3, [pc, #364]	; 400097a0 <main+0x1ac>
40009630:	e59f2168 	ldr	r2, [pc, #360]	; 400097a0 <main+0x1ac>
40009634:	e5922004 	ldr	r2, [r2, #4]
40009638:	e3c2200f 	bic	r2, r2, #15
4000963c:	e5832004 	str	r2, [r3, #4]
40009640:	e59f3158 	ldr	r3, [pc, #344]	; 400097a0 <main+0x1ac>
40009644:	e59f2154 	ldr	r2, [pc, #340]	; 400097a0 <main+0x1ac>
40009648:	e5922008 	ldr	r2, [r2, #8]
4000964c:	e3822008 	orr	r2, r2, #8
40009650:	e5832008 	str	r2, [r3, #8]
40009654:	e59f3144 	ldr	r3, [pc, #324]	; 400097a0 <main+0x1ac>
40009658:	e3a02ffa 	mov	r2, #1000	; 0x3e8
4000965c:	e583200c 	str	r2, [r3, #12]
40009660:	e59f3138 	ldr	r3, [pc, #312]	; 400097a0 <main+0x1ac>
40009664:	e3a02f7d 	mov	r2, #500	; 0x1f4
40009668:	e5832010 	str	r2, [r3, #16]
4000966c:	e59f312c 	ldr	r3, [pc, #300]	; 400097a0 <main+0x1ac>
40009670:	e59f2128 	ldr	r2, [pc, #296]	; 400097a0 <main+0x1ac>
40009674:	e5922008 	ldr	r2, [r2, #8]
40009678:	e3822002 	orr	r2, r2, #2
4000967c:	e5832008 	str	r2, [r3, #8]
40009680:	e59f3118 	ldr	r3, [pc, #280]	; 400097a0 <main+0x1ac>
40009684:	e59f2114 	ldr	r2, [pc, #276]	; 400097a0 <main+0x1ac>
40009688:	e5922008 	ldr	r2, [r2, #8]
4000968c:	e3822001 	orr	r2, r2, #1
40009690:	e5832008 	str	r2, [r3, #8]
40009694:	e59f3104 	ldr	r3, [pc, #260]	; 400097a0 <main+0x1ac>
40009698:	e59f2100 	ldr	r2, [pc, #256]	; 400097a0 <main+0x1ac>
4000969c:	e5922008 	ldr	r2, [r2, #8]
400096a0:	e3c22002 	bic	r2, r2, #2
400096a4:	e5832008 	str	r2, [r3, #8]
400096a8:	ea000000 	b	400096b0 <main+0xbc>
400096ac:	e1a00000 	nop			; (mov r0, r0)
400096b0:	e59f30e8 	ldr	r3, [pc, #232]	; 400097a0 <main+0x1ac>
400096b4:	e59f20e4 	ldr	r2, [pc, #228]	; 400097a0 <main+0x1ac>
400096b8:	e5922008 	ldr	r2, [r2, #8]
400096bc:	e3822008 	orr	r2, r2, #8
400096c0:	e5832008 	str	r2, [r3, #8]
400096c4:	e59f30d4 	ldr	r3, [pc, #212]	; 400097a0 <main+0x1ac>
400096c8:	e59f20d4 	ldr	r2, [pc, #212]	; 400097a4 <main+0x1b0>
400096cc:	e5922000 	ldr	r2, [r2]
400096d0:	e1a02082 	lsl	r2, r2, #1
400096d4:	e59f10cc 	ldr	r1, [pc, #204]	; 400097a8 <main+0x1b4>
400096d8:	e7d12002 	ldrb	r2, [r1, r2]
400096dc:	e1a02282 	lsl	r2, r2, #5
400096e0:	e583200c 	str	r2, [r3, #12]
400096e4:	e59f30b4 	ldr	r3, [pc, #180]	; 400097a0 <main+0x1ac>
400096e8:	e59f20b0 	ldr	r2, [pc, #176]	; 400097a0 <main+0x1ac>
400096ec:	e592200c 	ldr	r2, [r2, #12]
400096f0:	e1a020a2 	lsr	r2, r2, #1
400096f4:	e5832010 	str	r2, [r3, #16]
400096f8:	e59f30a0 	ldr	r3, [pc, #160]	; 400097a0 <main+0x1ac>
400096fc:	e59f209c 	ldr	r2, [pc, #156]	; 400097a0 <main+0x1ac>
40009700:	e5922008 	ldr	r2, [r2, #8]
40009704:	e3822002 	orr	r2, r2, #2
40009708:	e5832008 	str	r2, [r3, #8]
4000970c:	e59f308c 	ldr	r3, [pc, #140]	; 400097a0 <main+0x1ac>
40009710:	e59f2088 	ldr	r2, [pc, #136]	; 400097a0 <main+0x1ac>
40009714:	e5922008 	ldr	r2, [r2, #8]
40009718:	e3822001 	orr	r2, r2, #1
4000971c:	e5832008 	str	r2, [r3, #8]
40009720:	e59f3078 	ldr	r3, [pc, #120]	; 400097a0 <main+0x1ac>
40009724:	e59f2074 	ldr	r2, [pc, #116]	; 400097a0 <main+0x1ac>
40009728:	e5922008 	ldr	r2, [r2, #8]
4000972c:	e3c22002 	bic	r2, r2, #2
40009730:	e5832008 	str	r2, [r3, #8]
40009734:	e59f3068 	ldr	r3, [pc, #104]	; 400097a4 <main+0x1b0>
40009738:	e5933000 	ldr	r3, [r3]
4000973c:	e1a03083 	lsl	r3, r3, #1
40009740:	e2833001 	add	r3, r3, #1
40009744:	e59f205c 	ldr	r2, [pc, #92]	; 400097a8 <main+0x1b4>
40009748:	e7d23003 	ldrb	r3, [r2, r3]
4000974c:	e1a02003 	mov	r2, r3
40009750:	e1a03002 	mov	r3, r2
40009754:	e1a03103 	lsl	r3, r3, #2
40009758:	e0833002 	add	r3, r3, r2
4000975c:	e1a03083 	lsl	r3, r3, #1
40009760:	e1a00003 	mov	r0, r3
40009764:	ebffff86 	bl	40009584 <Dealy_Ms>
40009768:	e59f3034 	ldr	r3, [pc, #52]	; 400097a4 <main+0x1b0>
4000976c:	e5933000 	ldr	r3, [r3]
40009770:	e2832001 	add	r2, r3, #1
40009774:	e59f3028 	ldr	r3, [pc, #40]	; 400097a4 <main+0x1b0>
40009778:	e5832000 	str	r2, [r3]
4000977c:	e59f3020 	ldr	r3, [pc, #32]	; 400097a4 <main+0x1b0>
40009780:	e5933000 	ldr	r3, [r3]
40009784:	e35300c8 	cmp	r3, #200	; 0xc8
40009788:	1affffc7 	bne	400096ac <main+0xb8>
4000978c:	e59f3010 	ldr	r3, [pc, #16]	; 400097a4 <main+0x1b0>
40009790:	e3a02000 	mov	r2, #0
40009794:	e5832000 	str	r2, [r3]
40009798:	eaffffc3 	b	400096ac <main+0xb8>
4000979c:	114000a0 	smlaltbne	r0, r0, r0, r0	; <UNPREDICTABLE>
400097a0:	139d0000 	orrsne	r0, sp, #0
400097a4:	4000a2f8 	strdmi	sl, [r0], -r8
400097a8:	4000a104 	andmi	sl, r0, r4, lsl #2

Disassembly of section .rodata:

400097ac <.rodata>:
400097ac:	33323130 	teqcc	r2, #12
400097b0:	37363534 			; <UNDEFINED> instruction: 0x37363534
400097b4:	62613938 	rsbvs	r3, r1, #917504	; 0xe0000
400097b8:	66656463 	strbtvs	r6, [r5], -r3, ror #8
400097bc:	6a696867 	bvs	41a63960 <Num+0x1a59668>
400097c0:	6e6d6c6b 	cdpvs	12, 6, cr6, cr13, cr11, {3}
400097c4:	7271706f 	rsbsvc	r7, r1, #111	; 0x6f
400097c8:	76757473 			; <UNDEFINED> instruction: 0x76757473
400097cc:	7a797877 	bvc	41e679b0 <Num+0x1e5d6b8>
400097d0:	00000000 	andeq	r0, r0, r0
400097d4:	33323130 	teqcc	r2, #12
400097d8:	37363534 			; <UNDEFINED> instruction: 0x37363534
400097dc:	42413938 	submi	r3, r1, #917504	; 0xe0000
400097e0:	46454443 	strbmi	r4, [r5], -r3, asr #8
400097e4:	4a494847 	bmi	4125b908 <Num+0x1251610>
400097e8:	4e4d4c4b 	cdpmi	12, 4, cr4, cr13, cr11, {2}
400097ec:	5251504f 	subspl	r5, r1, #79	; 0x4f
400097f0:	56555453 			; <UNDEFINED> instruction: 0x56555453
400097f4:	5a595857 	bpl	4165f958 <Num+0x1655660>
400097f8:	00000000 	andeq	r0, r0, r0
400097fc:	4c554e3c 	mrrcmi	14, 3, r4, r5, cr12
40009800:	00003e4c 	andeq	r3, r0, ip, asr #28

Disassembly of section .data:

40009804 <stack>:
	...

4000a004 <_ctype>:
4000a004:	08080808 	stmdaeq	r8, {r3, fp}
4000a008:	08080808 	stmdaeq	r8, {r3, fp}
4000a00c:	28282808 	stmdacs	r8!, {r3, fp, sp}
4000a010:	08082828 	stmdaeq	r8, {r3, r5, fp, sp}
4000a014:	08080808 	stmdaeq	r8, {r3, fp}
4000a018:	08080808 	stmdaeq	r8, {r3, fp}
4000a01c:	08080808 	stmdaeq	r8, {r3, fp}
4000a020:	08080808 	stmdaeq	r8, {r3, fp}
4000a024:	101010a0 	andsne	r1, r0, r0, lsr #1
4000a028:	10101010 	andsne	r1, r0, r0, lsl r0
4000a02c:	10101010 	andsne	r1, r0, r0, lsl r0
4000a030:	10101010 	andsne	r1, r0, r0, lsl r0
4000a034:	04040404 	streq	r0, [r4], #-1028	; 0x404
4000a038:	04040404 	streq	r0, [r4], #-1028	; 0x404
4000a03c:	10100404 	andsne	r0, r0, r4, lsl #8
4000a040:	10101010 	andsne	r1, r0, r0, lsl r0
4000a044:	41414110 	cmpmi	r1, r0, lsl r1
4000a048:	01414141 	cmpeq	r1, r1, asr #2
4000a04c:	01010101 	tsteq	r1, r1, lsl #2
4000a050:	01010101 	tsteq	r1, r1, lsl #2
4000a054:	01010101 	tsteq	r1, r1, lsl #2
4000a058:	01010101 	tsteq	r1, r1, lsl #2
4000a05c:	10010101 	andne	r0, r1, r1, lsl #2
4000a060:	10101010 	andsne	r1, r0, r0, lsl r0
4000a064:	42424210 	submi	r4, r2, #1
4000a068:	02424242 	subeq	r4, r2, #536870916	; 0x20000004
4000a06c:	02020202 	andeq	r0, r2, #536870912	; 0x20000000
4000a070:	02020202 	andeq	r0, r2, #536870912	; 0x20000000
4000a074:	02020202 	andeq	r0, r2, #536870912	; 0x20000000
4000a078:	02020202 	andeq	r0, r2, #536870912	; 0x20000000
4000a07c:	10020202 	andne	r0, r2, r2, lsl #4
4000a080:	08101010 	ldmdaeq	r0, {r4, ip}
	...
4000a0a4:	101010a0 	andsne	r1, r0, r0, lsr #1
4000a0a8:	10101010 	andsne	r1, r0, r0, lsl r0
4000a0ac:	10101010 	andsne	r1, r0, r0, lsl r0
4000a0b0:	10101010 	andsne	r1, r0, r0, lsl r0
4000a0b4:	10101010 	andsne	r1, r0, r0, lsl r0
4000a0b8:	10101010 	andsne	r1, r0, r0, lsl r0
4000a0bc:	10101010 	andsne	r1, r0, r0, lsl r0
4000a0c0:	10101010 	andsne	r1, r0, r0, lsl r0
4000a0c4:	01010101 	tsteq	r1, r1, lsl #2
4000a0c8:	01010101 	tsteq	r1, r1, lsl #2
4000a0cc:	01010101 	tsteq	r1, r1, lsl #2
4000a0d0:	01010101 	tsteq	r1, r1, lsl #2
4000a0d4:	01010101 	tsteq	r1, r1, lsl #2
4000a0d8:	10010101 	andne	r0, r1, r1, lsl #2
4000a0dc:	01010101 	tsteq	r1, r1, lsl #2
4000a0e0:	02010101 	andeq	r0, r1, #1073741824	; 0x40000000
4000a0e4:	02020202 	andeq	r0, r2, #536870912	; 0x20000000
4000a0e8:	02020202 	andeq	r0, r2, #536870912	; 0x20000000
4000a0ec:	02020202 	andeq	r0, r2, #536870912	; 0x20000000
4000a0f0:	02020202 	andeq	r0, r2, #536870912	; 0x20000000
4000a0f4:	02020202 	andeq	r0, r2, #536870912	; 0x20000000
4000a0f8:	10020202 	andne	r0, r2, r2, lsl #4
4000a0fc:	02020202 	andeq	r0, r2, #536870912	; 0x20000000
4000a100:	02020202 	andeq	r0, r2, #536870912	; 0x20000000

4000a104 <MUSIC>:
4000a104:	20202026 	eorcs	r2, r0, r6, lsr #32
4000a108:	10262020 	eorne	r2, r6, r0, lsr #32
4000a10c:	80201020 	eorhi	r1, r0, r0, lsr #32
4000a110:	20302026 	eorscs	r2, r0, r6, lsr #32
4000a114:	10392030 	eorsne	r2, r9, r0, lsr r0
4000a118:	80301030 	eorshi	r1, r0, r0, lsr r0
4000a11c:	20202026 	eorcs	r2, r0, r6, lsr #32
4000a120:	201c2020 	andscs	r2, ip, r0, lsr #32
4000a124:	202b8020 	eorcs	r8, fp, r0, lsr #32
4000a128:	20202026 	eorcs	r2, r0, r6, lsr #32
4000a12c:	1026102b 	eorne	r1, r6, fp, lsr #32
4000a130:	2026802b 	eorcs	r8, r6, fp, lsr #32
4000a134:	20302030 	eorscs	r2, r0, r0, lsr r0
4000a138:	10261039 	eorne	r1, r6, r9, lsr r0
4000a13c:	10406026 	subne	r6, r0, r6, lsr #32
4000a140:	20261039 	eorcs	r1, r6, r9, lsr r0
4000a144:	20302030 	eorscs	r2, r0, r0, lsr r0
4000a148:	10261039 	eorne	r1, r6, r9, lsr r0
4000a14c:	20268026 	eorcs	r8, r6, r6, lsr #32
4000a150:	102b102b 	eorne	r1, fp, fp, lsr #32
4000a154:	1030202b 	eorsne	r2, r0, fp, lsr #32
4000a158:	10261039 	eorne	r1, r6, r9, lsr r0
4000a15c:	202b102b 	eorcs	r1, fp, fp, lsr #32
4000a160:	2040402b 	subcs	r4, r0, fp, lsr #32
4000a164:	10201020 	eorne	r1, r0, r0, lsr #32
4000a168:	3026102b 	eorcc	r1, r6, fp, lsr #32
4000a16c:	20188030 	andscs	r8, r8, r0, lsr r0
4000a170:	20262018 	eorcs	r2, r6, r8, lsl r0
4000a174:	40202020 	eormi	r2, r0, r0, lsr #32
4000a178:	202b2026 	eorcs	r2, fp, r6, lsr #32
4000a17c:	20302030 	eorscs	r2, r0, r0, lsr r0
4000a180:	2020201c 	eorcs	r2, r0, ip, lsl r0
4000a184:	201c8020 	andscs	r8, ip, r0, lsr #32
4000a188:	201c201c 	andscs	r2, ip, ip, lsl r0
4000a18c:	60302030 	eorsvs	r2, r0, r0, lsr r0
4000a190:	10301039 	eorsne	r1, r0, r9, lsr r0
4000a194:	102b2020 	eorne	r2, fp, r0, lsr #32
4000a198:	102b1026 	eorne	r1, fp, r6, lsr #32
4000a19c:	10261026 	eorne	r1, r6, r6, lsr #32
4000a1a0:	802b102b 	eorhi	r1, fp, fp, lsr #32
4000a1a4:	20182018 	andscs	r2, r8, r8, lsl r0
4000a1a8:	20202026 	eorcs	r2, r0, r6, lsr #32
4000a1ac:	10266020 	eorne	r6, r6, r0, lsr #32
4000a1b0:	2030202b 	eorscs	r2, r0, fp, lsr #32
4000a1b4:	201c2030 	andscs	r2, ip, r0, lsr r0
4000a1b8:	80202020 	eorhi	r2, r0, r0, lsr #32
4000a1bc:	10302026 	eorsne	r2, r0, r6, lsr #32
4000a1c0:	20301030 	eorscs	r1, r0, r0, lsr r0
4000a1c4:	10262039 	eorne	r2, r6, r9, lsr r0
4000a1c8:	202b102b 	eorcs	r1, fp, fp, lsr #32
4000a1cc:	1040402b 	subne	r4, r0, fp, lsr #32
4000a1d0:	10201040 	eorne	r1, r0, r0, asr #32
4000a1d4:	102b1020 	eorne	r1, fp, r0, lsr #32
4000a1d8:	80303026 	eorshi	r3, r0, r6, lsr #32
4000a1dc:	101c3000 	andsne	r3, ip, r0
4000a1e0:	101c4020 	andsne	r4, ip, r0, lsr #32
4000a1e4:	10201018 	eorne	r1, r0, r8, lsl r0
4000a1e8:	4018101c 	andsmi	r1, r8, ip, lsl r0
4000a1ec:	2020201c 	eorcs	r2, r0, ip, lsl r0
4000a1f0:	2018201c 	andscs	r2, r8, ip, lsl r0
4000a1f4:	20ff8020 	rscscs	r8, pc, r0, lsr #32
4000a1f8:	18101c30 	ldmdane	r0, {r4, r5, sl, fp, ip}
4000a1fc:	1c201520 	cfstr32ne	mvfx1, [r0], #-128	; 0xffffff80
4000a200:	26202020 	strtcs	r2, [r0], -r0, lsr #32
4000a204:	2b202040 	blcs	4081230c <Num+0x808014>
4000a208:	20202620 	eorcs	r2, r0, r0, lsr #12
4000a20c:	ff803020 			; <UNDEFINED> instruction: 0xff803020
4000a210:	101c2020 	andsne	r2, ip, r0, lsr #32
4000a214:	20201018 	eorcs	r1, r0, r8, lsl r0
4000a218:	202b2026 	eorcs	r2, fp, r6, lsr #32
4000a21c:	402b2030 	eormi	r2, fp, r0, lsr r0
4000a220:	101c2020 	andsne	r2, ip, r0, lsr #32
4000a224:	20201018 	eorcs	r1, r0, r8, lsl r0
4000a228:	202b2026 	eorcs	r2, fp, r6, lsr #32
4000a22c:	402b2030 	eormi	r2, fp, r0, lsr r0
4000a230:	101c3020 	andsne	r3, ip, r0, lsr #32
4000a234:	20152018 	andscs	r2, r5, r8, lsl r0
4000a238:	2020201c 	eorcs	r2, r0, ip, lsl r0
4000a23c:	20204026 	eorcs	r4, r0, r6, lsr #32
4000a240:	2026202b 	eorcs	r2, r6, fp, lsr #32
4000a244:	80302020 	eorshi	r2, r0, r0, lsr #32
4000a248:	101c3020 	andsne	r3, ip, r0, lsr #32
4000a24c:	101c1020 	andsne	r1, ip, r0, lsr #32
4000a250:	20262020 	eorcs	r2, r6, r0, lsr #32
4000a254:	2030202b 	eorscs	r2, r0, fp, lsr #32
4000a258:	1520402b 	strne	r4, [r0, #-43]!	; 0x2b
4000a25c:	1020051f 	eorne	r0, r0, pc, lsl r5
4000a260:	2020101c 	eorcs	r1, r0, ip, lsl r0
4000a264:	202b2026 	eorcs	r2, fp, r6, lsr #32
4000a268:	402b2030 	eormi	r2, fp, r0, lsr r0
4000a26c:	101c3020 	andsne	r3, ip, r0, lsr #32
4000a270:	20152018 	andscs	r2, r5, r8, lsl r0
4000a274:	2020201c 	eorcs	r2, r0, ip, lsl r0
4000a278:	20204026 	eorcs	r4, r0, r6, lsr #32
4000a27c:	2026202b 	eorcs	r2, r6, fp, lsr #32
4000a280:	30302020 	eorscc	r2, r0, r0, lsr #32
4000a284:	101c3020 	andsne	r3, ip, r0, lsr #32
4000a288:	201c4018 	andscs	r4, ip, r8, lsl r0
4000a28c:	40262020 	eormi	r2, r6, r0, lsr #32
4000a290:	20186013 	andscs	r6, r8, r3, lsl r0
4000a294:	40134015 	andsmi	r4, r3, r5, lsl r0
4000a298:	00008018 	andeq	r8, r0, r8, lsl r0
	...

Disassembly of section .bss:

4000a2f8 <Num>:
4000a2f8:	00000000 	andeq	r0, r0, r0

Disassembly of section .ARM.attributes:

00000000 <.ARM.attributes>:
   0:	00000f41 	andeq	r0, r0, r1, asr #30
   4:	61656100 	cmnvs	r5, r0, lsl #2
   8:	01006962 	tsteq	r0, r2, ror #18
   c:	00000005 	andeq	r0, r0, r5

Disassembly of section .comment:

00000000 <.comment>:
   0:	3a434347 	bcc	10d0d24 <_start-0x3ef372dc>
   4:	4e472820 	cdpmi	8, 4, cr2, cr7, cr0, {1}
   8:	34202955 	strtcc	r2, [r0], #-2389	; 0x955
   c:	322e362e 	eorcc	r3, lr, #48234496	; 0x2e00000
	...

Disassembly of section .debug_line:

00000000 <.debug_line>:
   0:	00000079 	andeq	r0, r0, r9, ror r0
   4:	00240002 	eoreq	r0, r4, r2
   8:	01020000 	mrseq	r0, (UNDEF: 2)
   c:	000d0efb 	strdeq	r0, [sp], -fp
  10:	01010101 	tsteq	r1, r1, lsl #2
  14:	01000000 	mrseq	r0, (UNDEF: 0)
  18:	73010000 	movwvc	r0, #4096	; 0x1000
  1c:	74726174 	ldrbtvc	r6, [r2], #-372	; 0x174
  20:	74730000 	ldrbtvc	r0, [r3]
  24:	2e747261 	cdpcs	2, 7, cr7, cr4, cr1, {3}
  28:	00010053 	andeq	r0, r1, r3, asr r0
  2c:	05000000 	streq	r0, [r0]
  30:	00800002 	addeq	r0, r0, r2
  34:	2f2f1540 	svccs	0x002f1540
  38:	2f2f2f2f 	svccs	0x002f2f2f
  3c:	f20d032f 	vcgt.s8	d0, d13, d31
  40:	2f2f302f 	svccs	0x002f302f
  44:	342f302f 	strtcc	r3, [pc], #-47	; 4c <_start-0x40007fb4>
  48:	2f322f2f 	svccs	0x00322f2f
  4c:	2f2f2f33 	svccs	0x002f2f33
  50:	322f2f2f 	eorcc	r2, pc, #188	; 0xbc
  54:	2f2f2f2f 	svccs	0x002f2f2f
  58:	2f2f2f30 	svccs	0x002f2f30
  5c:	2f2f2f30 	svccs	0x002f2f30
  60:	302f3131 	eorcc	r3, pc, r1, lsr r1	; <UNPREDICTABLE>
  64:	2f302f2f 	svccs	0x00302f2f
  68:	2f2f302f 	svccs	0x002f302f
  6c:	302f2f30 	eorcc	r2, pc, r0, lsr pc	; <UNPREDICTABLE>
  70:	0a03302f 	beq	cc134 <_start-0x3ff3becc>
  74:	2f302f66 	svccs	0x00302f66
  78:	01000c02 	tsteq	r0, r2, lsl #24
  7c:	00006501 	andeq	r6, r0, r1, lsl #10
  80:	2c000200 	sfmcs	f0, 4, [r0], {0}
  84:	02000000 	andeq	r0, r0, #0
  88:	0d0efb01 	vstreq	d15, [lr, #-4]
  8c:	01010100 	mrseq	r0, (UNDEF: 17)
  90:	00000001 	andeq	r0, r0, r1
  94:	01000001 	tsteq	r0, r1
  98:	6d6d6f63 	stclvs	15, cr6, [sp, #-396]!	; 0xfffffe74
  9c:	732f6e6f 	teqvc	pc, #1776	; 0x6f0
  a0:	00006372 	andeq	r6, r0, r2, ror r3
  a4:	6964755f 	stmdbvs	r4!, {r0, r1, r2, r3, r4, r6, r8, sl, ip, sp, lr}^
  a8:	33697376 	cmncc	r9, #-671088639	; 0xd8000001
  ac:	0100532e 	tsteq	r0, lr, lsr #6
  b0:	00000000 	andeq	r0, r0, r0
  b4:	81400205 	cmphi	r0, r5, lsl #4
  b8:	11034000 	mrsne	r4, (UNDEF: 3)
  bc:	2f2f2f01 	svccs	0x002f2f01
  c0:	2f342f2f 	svccs	0x00342f2f
  c4:	322f2f2f 	eorcc	r2, pc, #188	; 0xbc
  c8:	2f2f2f2f 	svccs	0x002f2f2f
  cc:	2f2f2f34 	svccs	0x002f2f34
  d0:	2f2f2f2f 	svccs	0x002f2f2f
  d4:	2f2f2f2f 	svccs	0x002f2f2f
  d8:	2f2f2f2f 	svccs	0x002f2f2f
  dc:	30302f30 	eorscc	r2, r0, r0, lsr pc
  e0:	0002022f 	andeq	r0, r2, pc, lsr #4
  e4:	006c0101 	rsbeq	r0, ip, r1, lsl #2
  e8:	00020000 	andeq	r0, r2, r0
  ec:	0000002c 	andeq	r0, r0, ip, lsr #32
  f0:	0efb0102 	cdpeq	1, 15, cr0, cr11, cr2, {0}
  f4:	0101000d 	tsteq	r1, sp
  f8:	00000101 	andeq	r0, r0, r1, lsl #2
  fc:	00000100 	andeq	r0, r0, r0, lsl #2
 100:	6d6f6301 	stclvs	3, cr6, [pc, #-4]!	; 104 <_start-0x40007efc>
 104:	2f6e6f6d 	svccs	0x006e6f6d
 108:	00637273 	rsbeq	r7, r3, r3, ror r2
 10c:	6d755f00 	ldclvs	15, cr5, [r5]
 110:	6973646f 	ldmdbvs	r3!, {r0, r1, r2, r3, r5, r6, sl, sp, lr}^
 114:	00532e33 	subseq	r2, r3, r3, lsr lr
 118:	00000001 	andeq	r0, r0, r1
 11c:	d4020500 	strle	r0, [r2], #-1280	; 0x500
 120:	03400081 	movteq	r0, #129	; 0x81
 124:	2f2f0112 	svccs	0x002f0112
 128:	2f342f2f 	svccs	0x00342f2f
 12c:	322f2f2f 	eorcc	r2, pc, #188	; 0xbc
 130:	2f2f2f2f 	svccs	0x002f2f2f
 134:	2f2f2f33 	svccs	0x002f2f33
 138:	2f2f2f2f 	svccs	0x002f2f2f
 13c:	2f2f2f2f 	svccs	0x002f2f2f
 140:	2f2f2f2f 	svccs	0x002f2f2f
 144:	2f2f352f 	svccs	0x002f352f
 148:	2f2f2f2f 	svccs	0x002f2f2f
 14c:	30302f2f 	eorscc	r2, r0, pc, lsr #30
 150:	0002022f 	andeq	r0, r2, pc, lsr #4
 154:	02530101 	subseq	r0, r3, #1073741824	; 0x40000000
 158:	00020000 	andeq	r0, r2, r0
 15c:	00000052 	andeq	r0, r0, r2, asr r0
 160:	0efb0102 	cdpeq	1, 15, cr0, cr11, cr2, {0}
 164:	0101000d 	tsteq	r1, sp
 168:	00000101 	andeq	r0, r0, r1, lsl #2
 16c:	00000100 	andeq	r0, r0, r0, lsl #2
 170:	632f2e01 	teqvs	pc, #16
 174:	6f6d6d6f 	svcvs	0x006d6d6f
 178:	6e692f6e 	cdpvs	15, 6, cr2, cr9, cr14, {3}
 17c:	64756c63 	ldrbtvs	r6, [r5], #-3171	; 0xc63
 180:	6f630065 	svcvs	0x00630065
 184:	6e6f6d6d 	cdpvs	13, 6, cr6, cr15, cr13, {3}
 188:	6372732f 	cmnvs	r2, #-1140850688	; 0xbc000000
 18c:	74630000 	strbtvc	r0, [r3]
 190:	2e657079 	mcrcs	0, 3, r7, cr5, cr9, {3}
 194:	00010068 	andeq	r0, r1, r8, rrx
 198:	69727000 	ldmdbvs	r2!, {ip, sp, lr}^
 19c:	2e66746e 	cdpcs	4, 6, cr7, cr6, cr14, {3}
 1a0:	00020063 	andeq	r0, r2, r3, rrx
 1a4:	64747300 	ldrbtvs	r7, [r4], #-768	; 0x300
 1a8:	2e677261 	cdpcs	2, 6, cr7, cr7, cr1, {3}
 1ac:	00010068 	andeq	r0, r1, r8, rrx
 1b0:	05000000 	streq	r0, [r0]
 1b4:	00828402 	addeq	r8, r2, r2, lsl #8
 1b8:	00c40340 	sbceq	r0, r4, r0, asr #6
 1bc:	67bb9f01 	ldrvs	r9, [fp, r1, lsl #30]!
 1c0:	0302042f 	movweq	r0, #9263	; 0x242f
 1c4:	bb9e7fbf 	bllt	fe7a00c8 <Num+0xbe795dd0>
 1c8:	0067834c 	rsbeq	r8, r7, ip, asr #6
 1cc:	06010402 	streq	r0, [r1], -r2, lsl #8
 1d0:	4bf30682 	blmi	ffcc1be0 <Num+0xbfcb78e8>
 1d4:	674d6768 	strbvs	r6, [sp, -r8, ror #14]
 1d8:	7fbb304c 	svcvc	0x00bb304c
 1dc:	01040200 	mrseq	r0, R12_usr
 1e0:	02002e06 	andeq	r2, r0, #96	; 0x60
 1e4:	00d60204 	sbcseq	r0, r6, r4, lsl #4
 1e8:	d6010402 	strle	r0, [r1], -r2, lsl #8
 1ec:	02040200 	andeq	r0, r4, #0
 1f0:	00d70682 	sbcseq	r0, r7, r2, lsl #13
 1f4:	06030402 	streq	r0, [r3], -r2, lsl #8
 1f8:	040200d6 	streq	r0, [r2], #-214	; 0xd6
 1fc:	a3650605 	cmnge	r5, #5242880	; 0x500000
 200:	a12f6767 	teqge	pc, r7, ror #14
 204:	210883bb 			; <UNDEFINED> instruction: 0x210883bb
 208:	8224039f 	eorhi	r0, r4, #2080374786	; 0x7c000002
 20c:	002f4c83 	eoreq	r4, pc, r3, lsl #25
 210:	08010402 	stmdaeq	r1, {r1, sl}
 214:	040200c7 	streq	r0, [r2], #-199	; 0xc7
 218:	069e0602 	ldreq	r0, [lr], r2, lsl #12
 21c:	20032fa0 	andcs	r2, r3, r0, lsr #31
 220:	834dd882 	movthi	sp, #55426	; 0xd882
 224:	0067834b 	rsbeq	r8, r7, fp, asr #6
 228:	06010402 	streq	r0, [r1], -r2, lsl #8
 22c:	4b670666 	blmi	19c1bcc <_start-0x3e646434>
 230:	01040200 	mrseq	r0, R12_usr
 234:	02009e06 	andeq	r9, r0, #96	; 0x60
 238:	004a0204 	subeq	r0, sl, r4, lsl #4
 23c:	2e030402 	cdpcs	4, 0, cr0, cr3, cr2, {0}
 240:	03040200 	movweq	r0, #16896	; 0x4200
 244:	02002f06 	andeq	r2, r0, #24
 248:	834b0304 	movthi	r0, #45828	; 0xb304
 24c:	83674b67 	cmnhi	r7, #105472	; 0x19c00
 250:	83834b83 	orrhi	r4, r3, #134144	; 0x20c00
 254:	6783694b 	strvs	r6, [r3, fp, asr #18]
 258:	4b686783 	blmi	1a1a06c <_start-0x3e5edf94>
 25c:	835a0867 	cmphi	sl, #6750208	; 0x670000
 260:	01040200 	mrseq	r0, R12_usr
 264:	69103202 	ldmdbvs	r0, {r1, r9, ip, sp}
 268:	2f83834b 	svccs	0x0083834b
 26c:	01040200 	mrseq	r0, R12_usr
 270:	673e08b9 			; <UNDEFINED> instruction: 0x673e08b9
 274:	d76783bb 			; <UNDEFINED> instruction: 0xd76783bb
 278:	83d9bb67 	bicshi	fp, r9, #105472	; 0x19c00
 27c:	0402002f 	streq	r0, [r2], #-47	; 0x2f
 280:	3e08b901 	cdpcc	9, 0, cr11, cr8, cr1, {0}
 284:	0200d52f 	andeq	sp, r0, #197132288	; 0xbc00000
 288:	2e060104 	adfcss	f0, f6, f4
 28c:	2f5a0806 	svccs	0x005a0806
 290:	01040200 	mrseq	r0, R12_usr
 294:	3e085708 	cdpcc	7, 0, cr5, cr8, cr8, {0}
 298:	0402002f 	streq	r0, [r2], #-47	; 0x2f
 29c:	3e08b901 	cdpcc	9, 0, cr11, cr8, cr1, {0}
 2a0:	00a1bf2f 	adceq	fp, r1, pc, lsr #30
 2a4:	06010402 	streq	r0, [r1], -r2, lsl #8
 2a8:	04020066 	streq	r0, [r2], #-102	; 0x66
 2ac:	06900802 	ldreq	r0, [r0], r2, lsl #16
 2b0:	03846784 	orreq	r6, r4, #34603008	; 0x2100000
 2b4:	8367ba12 	cmnhi	r7, #73728	; 0x12000
 2b8:	674c32d7 			; <UNDEFINED> instruction: 0x674c32d7
 2bc:	83132e02 	tsthi	r3, #32
 2c0:	86838383 	strhi	r8, [r3], r3, lsl #7
 2c4:	0402004b 	streq	r0, [r2], #-75	; 0x4b
 2c8:	06820601 	streq	r0, [r2], r1, lsl #12
 2cc:	68839f83 	stmvs	r3, {r0, r1, r7, r8, r9, sl, fp, ip, pc}
 2d0:	6b67679f 	blvs	19da154 <_start-0x3e62deac>
 2d4:	0067834b 	rsbeq	r8, r7, fp, asr #6
 2d8:	06010402 	streq	r0, [r1], -r2, lsl #8
 2dc:	9f830682 	svcls	0x00830682
 2e0:	67a06883 	strvs	r6, [r0, r3, lsl #17]!
 2e4:	02004b4e 	andeq	r4, r0, #79872	; 0x13800
 2e8:	82060104 	andhi	r0, r6, #1
 2ec:	01040200 	mrseq	r0, R12_usr
 2f0:	0200f306 	andeq	pc, r0, #402653184	; 0x18000000
 2f4:	4b490104 	blmi	124070c <_start-0x3edc78f4>
 2f8:	01040200 	mrseq	r0, R12_usr
 2fc:	02008206 	andeq	r8, r0, #1610612736	; 0x60000000
 300:	83060104 	movwhi	r0, #24836	; 0x6104
 304:	01040200 	mrseq	r0, R12_usr
 308:	00674c49 	rsbeq	r4, r7, r9, asr #24
 30c:	06010402 	streq	r0, [r1], -r2, lsl #8
 310:	4b9f0666 	blmi	fe7c1cb0 <Num+0xbe7b79b8>
 314:	024c6a68 	subeq	r6, ip, #425984	; 0x68000
 318:	831401b4 	tsthi	r4, #45	; 0x2d
 31c:	0402002f 	streq	r0, [r2], #-47	; 0x2f
 320:	08bcb901 	ldmeq	ip!, {r0, r8, fp, ip, sp, pc}
 324:	02002f3d 	andeq	r2, r0, #244	; 0xf4
 328:	bcb90104 	ldflts	f0, [r9], #16
 32c:	4c679f31 	stclmi	15, cr9, [r7], #-196	; 0xffffff3c
 330:	002f83bc 			; <UNDEFINED> instruction: 0x002f83bc
 334:	b9010402 	stmdblt	r1, {r1, sl}
 338:	02005a08 	andeq	r5, r0, #32768	; 0x8000
 33c:	00670204 	rsbeq	r0, r7, r4, lsl #4
 340:	08020402 	stmdaeq	r2, {r1, sl}
 344:	0402003b 	streq	r0, [r2], #-59	; 0x3b
 348:	06660601 	strbteq	r0, [r6], -r1, lsl #12
 34c:	02002f84 	andeq	r2, r0, #528	; 0x210
 350:	08b90104 	ldmeq	r9!, {r2, r8}
 354:	4b67315a 	blmi	19cc8c4 <_start-0x3e63b73c>
 358:	3f088169 	svccc	0x00088169
 35c:	a39f6732 	orrsge	r6, pc, #13107200	; 0xc80000
 360:	31a09f2b 	lsrcc	r9, fp, #30
 364:	314b32bb 	strhcc	r3, [fp, #-43]	; 0xffffffd5
 368:	68324b68 	ldmdavs	r2!, {r3, r5, r6, r8, r9, fp, lr}
 36c:	d983bb31 	stmible	r3, {r0, r4, r5, r8, r9, fp, ip, sp, pc}
 370:	7803672d 	stmdavc	r3, {r0, r2, r3, r5, r8, r9, sl, sp, lr}
 374:	2e0f032e 	cdpcs	3, 0, cr0, cr15, cr14, {1}
 378:	0200bb67 	andeq	fp, r0, #105472	; 0x19c00
 37c:	66060104 	strvs	r0, [r6], -r4, lsl #2
 380:	67bb6706 	ldrvs	r6, [fp, r6, lsl #14]!
 384:	83d767bb 	bicshi	r6, r7, #49020928	; 0x2ec0000
 388:	9fbc83d7 	svcls	0x00bc83d7
 38c:	087ee203 	ldmdaeq	lr!, {r0, r1, r9, sp, lr, pc}^
 390:	04020074 	streq	r0, [r2], #-116	; 0x74
 394:	06660601 	strbteq	r0, [r6], -r1, lsl #12
 398:	8201a003 	andhi	sl, r1, #3
 39c:	a2a16767 	adcge	r6, r1, #27000832	; 0x19c0000
 3a0:	a12fbc67 	teqge	pc, r7, ror #24
 3a4:	67f46b86 	ldrbvs	r6, [r4, r6, lsl #23]!
 3a8:	01000802 	tsteq	r0, r2, lsl #16
 3ac:	00007901 	andeq	r7, r0, r1, lsl #18
 3b0:	4a000200 	bmi	bb8 <_start-0x40007448>
 3b4:	02000000 	andeq	r0, r0, #0
 3b8:	0d0efb01 	vstreq	d15, [lr, #-4]
 3bc:	01010100 	mrseq	r0, (UNDEF: 17)
 3c0:	00000001 	andeq	r0, r0, r1
 3c4:	01000001 	tsteq	r0, r1
 3c8:	6d6d6f63 	stclvs	15, cr6, [sp, #-396]!	; 0xfffffe74
 3cc:	732f6e6f 	teqvc	pc, #1776	; 0x6f0
 3d0:	2e006372 	mcrcs	3, 0, r6, cr0, cr2, {3}
 3d4:	6d6f632f 	stclvs	3, cr6, [pc, #-188]!	; 320 <_start-0x40007ce0>
 3d8:	2f6e6f6d 	svccs	0x006e6f6d
 3dc:	6c636e69 	stclvs	14, cr6, [r3], #-420	; 0xfffffe5c
 3e0:	00656475 	rsbeq	r6, r5, r5, ror r4
 3e4:	72617500 	rsbvc	r7, r1, #0
 3e8:	00632e74 	rsbeq	r2, r3, r4, ror lr
 3ec:	65000001 	strvs	r0, [r0, #-1]
 3f0:	6f6e7978 	svcvs	0x006e7978
 3f4:	34345f73 	ldrtcc	r5, [r4], #-3955	; 0xf73
 3f8:	682e3231 	stmdavs	lr!, {r0, r4, r5, r9, ip, sp}
 3fc:	00000200 	andeq	r0, r0, r0, lsl #4
 400:	02050000 	andeq	r0, r5, #0
 404:	40009478 	andmi	r9, r0, r8, ror r4
 408:	67bc4d15 			; <UNDEFINED> instruction: 0x67bc4d15
 40c:	a1676768 	cmnge	r7, r8, ror #14
 410:	0402009f 	streq	r0, [r2], #-159	; 0x9f
 414:	062e0601 	strteq	r0, [lr], -r1, lsl #12
 418:	4b67679f 	blmi	19da29c <_start-0x3e62dd64>
 41c:	002f8384 	eoreq	r8, pc, r4, lsl #7
 420:	d5010402 	strle	r0, [r1, #-1026]	; 0x402
 424:	00060284 	andeq	r0, r6, r4, lsl #5
 428:	00870101 	addeq	r0, r7, r1, lsl #2
 42c:	00020000 	andeq	r0, r2, r0
 430:	00000040 	andeq	r0, r0, r0, asr #32
 434:	0efb0102 	cdpeq	1, 15, cr0, cr11, cr2, {0}
 438:	0101000d 	tsteq	r1, sp
 43c:	00000101 	andeq	r0, r0, r1, lsl #2
 440:	00000100 	andeq	r0, r0, r0, lsl #2
 444:	632f2e01 	teqvs	pc, #16
 448:	6f6d6d6f 	svcvs	0x006d6d6f
 44c:	6e692f6e 	cdpvs	15, 6, cr2, cr9, cr14, {3}
 450:	64756c63 	ldrbtvs	r6, [r5], #-3171	; 0xc63
 454:	6d000065 	stcvs	0, cr0, [r0, #-404]	; 0xfffffe6c
 458:	63697375 	cmnvs	r9, #-738197503	; 0xd4000001
 45c:	0000632e 	andeq	r6, r0, lr, lsr #6
 460:	78650000 	stmdavc	r5!, {}^	; <UNPREDICTABLE>
 464:	736f6e79 	cmnvc	pc, #1936	; 0x790
 468:	3134345f 	teqcc	r4, pc, asr r4
 46c:	00682e32 	rsbeq	r2, r8, r2, lsr lr
 470:	00000001 	andeq	r0, r0, r1
 474:	84020500 	strhi	r0, [r2], #-1280	; 0x500
 478:	03400095 	movteq	r0, #149	; 0x95
 47c:	67850124 	strvs	r0, [r5, r4, lsr #2]
 480:	02040200 	andeq	r0, r4, #0
 484:	02006606 	andeq	r6, r0, #6291456	; 0x600000
 488:	06660104 	strbteq	r0, [r6], -r4, lsl #2
 48c:	04020081 	streq	r0, [r2], #-129	; 0x81
 490:	06660601 	strbteq	r0, [r6], -r1, lsl #12
 494:	bc4b8584 	cfstr64lt	mvdx8, [fp], {132}	; 0x84
 498:	68a0a0bc 	stmiavs	r0!, {r2, r3, r4, r5, r7, sp, pc}
 49c:	03a0a068 	moveq	sl, #104	; 0x68
 4a0:	7603ba0f 	strvc	fp, [r3], -pc, lsl #20
 4a4:	9ff39f2e 	svcls	0x00f39f2e
 4a8:	089f9f9f 	ldmeq	pc, {r0, r1, r2, r3, r4, r7, r8, r9, sl, fp, ip, pc}	; <UNPREDICTABLE>
 4ac:	67839f91 			; <UNDEFINED> instruction: 0x67839f91
 4b0:	01000a02 	tsteq	r0, r2, lsl #20
 4b4:	Address 0x000004b4 is out of bounds.


Disassembly of section .debug_info:

00000000 <.debug_info>:
   0:	0000004a 	andeq	r0, r0, sl, asr #32
   4:	00000002 	andeq	r0, r0, r2
   8:	01040000 	mrseq	r0, (UNDEF: 4)
   c:	00000000 	andeq	r0, r0, r0
  10:	40008000 	andmi	r8, r0, r0
  14:	40008134 	andmi	r8, r0, r4, lsr r1
  18:	72617473 	rsbvc	r7, r1, #1929379840	; 0x73000000
  1c:	74732f74 	ldrbtvc	r2, [r3], #-3956	; 0xf74
  20:	2e747261 	cdpcs	2, 7, cr7, cr4, cr1, {3}
  24:	3a450053 	bcc	1140178 <_start-0x3eec7e88>
  28:	6c63655c 	cfstr64vs	mvdx6, [r3], #-368	; 0xfffffe90
  2c:	65737069 	ldrbvs	r7, [r3, #-105]!	; 0x69
  30:	6f72705f 	svcvs	0x0072705f
  34:	7463656a 	strbtvc	r6, [r3], #-1386	; 0x56a
  38:	554d5c73 	strbpl	r5, [sp, #-3187]	; 0xc73
  3c:	00434953 	subeq	r4, r3, r3, asr r9
  40:	20554e47 	subscs	r4, r5, r7, asr #28
  44:	32205341 	eorcc	r5, r0, #67108865	; 0x4000001
  48:	0031322e 	eorseq	r3, r1, lr, lsr #4
  4c:	00528001 	subseq	r8, r2, r1
  50:	00020000 	andeq	r0, r2, r0
  54:	00000014 	andeq	r0, r0, r4, lsl r0
  58:	007d0104 	rsbseq	r0, sp, r4, lsl #2
  5c:	81400000 	mrshi	r0, (UNDEF: 64)
  60:	81d44000 	bicshi	r4, r4, r0
  64:	6f634000 	svcvs	0x00634000
  68:	6e6f6d6d 	cdpvs	13, 6, cr6, cr15, cr13, {3}
  6c:	6372732f 	cmnvs	r2, #-1140850688	; 0xbc000000
  70:	64755f2f 	ldrbtvs	r5, [r5], #-3887	; 0xf2f
  74:	69737669 	ldmdbvs	r3!, {r0, r3, r5, r6, r9, sl, ip, sp, lr}^
  78:	00532e33 	subseq	r2, r3, r3, lsr lr
  7c:	655c3a45 	ldrbvs	r3, [ip, #-2629]	; 0xa45
  80:	70696c63 	rsbvc	r6, r9, r3, ror #24
  84:	705f6573 	subsvc	r6, pc, r3, ror r5	; <UNPREDICTABLE>
  88:	656a6f72 	strbvs	r6, [sl, #-3954]!	; 0xf72
  8c:	5c737463 	cfldrdpl	mvd7, [r3], #-396	; 0xfffffe74
  90:	4953554d 	ldmdbmi	r3, {r0, r2, r3, r6, r8, sl, ip, lr}^
  94:	4e470043 	cdpmi	0, 4, cr0, cr7, cr3, {2}
  98:	53412055 	movtpl	r2, #4181	; 0x1055
  9c:	322e3220 	eorcc	r3, lr, #2
  a0:	80010031 	andhi	r0, r1, r1, lsr r0
  a4:	00000052 	andeq	r0, r0, r2, asr r0
  a8:	00280002 	eoreq	r0, r8, r2
  ac:	01040000 	mrseq	r0, (UNDEF: 4)
  b0:	000000e6 	andeq	r0, r0, r6, ror #1
  b4:	400081d4 	ldrdmi	r8, [r0], -r4
  b8:	40008284 	andmi	r8, r0, r4, lsl #5
  bc:	6d6d6f63 	stclvs	15, cr6, [sp, #-396]!	; 0xfffffe74
  c0:	732f6e6f 	teqvc	pc, #1776	; 0x6f0
  c4:	5f2f6372 	svcpl	0x002f6372
  c8:	646f6d75 	strbtvs	r6, [pc], #-3445	; d0 <_start-0x40007f30>
  cc:	2e336973 	mrccs	9, 1, r6, cr3, cr3, {3}
  d0:	3a450053 	bcc	1140224 <_start-0x3eec7ddc>
  d4:	6c63655c 	cfstr64vs	mvdx6, [r3], #-368	; 0xfffffe90
  d8:	65737069 	ldrbvs	r7, [r3, #-105]!	; 0x69
  dc:	6f72705f 	svcvs	0x0072705f
  e0:	7463656a 	strbtvc	r6, [r3], #-1386	; 0x56a
  e4:	554d5c73 	strbpl	r5, [sp, #-3187]	; 0xc73
  e8:	00434953 	subeq	r4, r3, r3, asr r9
  ec:	20554e47 	subscs	r4, r5, r7, asr #28
  f0:	32205341 	eorcc	r5, r0, #67108865	; 0x4000001
  f4:	0031322e 	eorseq	r3, r1, lr, lsr #4
  f8:	04be8001 	ldrteq	r8, [lr], #1
  fc:	00020000 	andeq	r0, r2, r0
 100:	0000003c 	andeq	r0, r0, ip, lsr r0
 104:	00840104 	addeq	r0, r4, r4, lsl #2
 108:	b0010000 	andlt	r0, r1, r0
 10c:	2d000000 	stccs	0, cr0, [r0]
 110:	84000000 	strhi	r0, [r0]
 114:	78400082 	stmdavc	r0, {r1, r7}^
 118:	56400094 			; <UNDEFINED> instruction: 0x56400094
 11c:	02000001 	andeq	r0, r0, #1
 120:	00000058 	andeq	r0, r0, r8, asr r0
 124:	00302803 	eorseq	r2, r0, r3, lsl #16
 128:	04030000 	streq	r0, [r3]
 12c:	00000000 	andeq	r0, r0, r0
 130:	00005f02 	andeq	r5, r0, r2, lsl #30
 134:	25660300 	strbcs	r0, [r6, #-768]!	; 0x300
 138:	04000000 	streq	r0, [r0]
 13c:	00000047 	andeq	r0, r0, r7, asr #32
 140:	6a014401 	bvs	5114c <_start-0x3ffb6eb4>
 144:	84000000 	strhi	r0, [r0]
 148:	d4400082 	strble	r0, [r0], #-130	; 0x82
 14c:	00400082 	subeq	r0, r0, r2, lsl #1
 150:	6a000000 	bvs	158 <_start-0x40007ea8>
 154:	05000000 	streq	r0, [r0]
 158:	44010063 	strmi	r0, [r1], #-99	; 0x63
 15c:	0000006a 	andeq	r0, r0, sl, rrx
 160:	00789102 	rsbseq	r9, r8, r2, lsl #2
 164:	71080106 	tstvc	r8, r6, lsl #2
 168:	07000000 	streq	r0, [r0, -r0]
 16c:	00001201 	andeq	r1, r0, r1, lsl #4
 170:	01070200 	mrseq	r0, (UNDEF: 39)
 174:	000000d4 	ldrdeq	r0, [r0], -r4
 178:	400082d4 	ldrdmi	r8, [r0], -r4
 17c:	4000847c 	andmi	r8, r0, ip, ror r4
 180:	0000002c 	andeq	r0, r0, ip, lsr #32
 184:	000000d4 	ldrdeq	r0, [r0], -r4
 188:	00706305 	rsbseq	r6, r0, r5, lsl #6
 18c:	00db0702 	sbcseq	r0, fp, r2, lsl #14
 190:	91020000 	mrsls	r0, (UNDEF: 2)
 194:	00ed086c 	rsceq	r0, sp, ip, ror #16
 198:	07020000 	streq	r0, [r2, -r0]
 19c:	000000ed 	andeq	r0, r0, sp, ror #1
 1a0:	08689102 	stmdaeq	r8!, {r1, r8, ip, pc}^
 1a4:	0000007f 	andeq	r0, r0, pc, ror r0
 1a8:	00f90702 	rscseq	r0, r9, r2, lsl #14
 1ac:	91020000 	mrsls	r0, (UNDEF: 2)
 1b0:	00d40964 	sbcseq	r0, r4, r4, ror #18
 1b4:	09020000 	stmdbeq	r2, {}	; <UNPREDICTABLE>
 1b8:	000000d4 	ldrdeq	r0, [r0], -r4
 1bc:	09749102 	ldmdbeq	r4!, {r1, r8, ip, pc}^
 1c0:	00000021 	andeq	r0, r0, r1, lsr #32
 1c4:	00d40902 	sbcseq	r0, r4, r2, lsl #18
 1c8:	91020000 	mrsls	r0, (UNDEF: 2)
 1cc:	04060070 	streq	r0, [r6], #-112	; 0x70
 1d0:	00009007 	andeq	r9, r0, r7
 1d4:	e1040a00 	tst	r4, r0, lsl #20
 1d8:	0b000000 	bleq	1e0 <_start-0x40007e20>
 1dc:	000000e6 	andeq	r0, r0, r6, ror #1
 1e0:	7a080106 	bvc	200600 <_start-0x3fe07a00>
 1e4:	0a000000 	beq	1ec <_start-0x40007e14>
 1e8:	0000f304 	andeq	pc, r0, r4, lsl #6
 1ec:	e6040a00 	str	r0, [r4], -r0, lsl #20
 1f0:	06000000 	streq	r0, [r0], -r0
 1f4:	00950704 	addseq	r0, r5, r4, lsl #14
 1f8:	01070000 	mrseq	r0, (UNDEF: 7)
 1fc:	000000a2 	andeq	r0, r0, r2, lsr #1
 200:	47012202 	strmi	r2, [r1, -r2, lsl #4]
 204:	7c000001 	stcvc	0, cr0, [r0], {1}
 208:	ec400084 	mcrr	0, 8, r0, r0, cr4
 20c:	58400084 	stmdapl	r0, {r2, r7}^
 210:	47000000 	strmi	r0, [r0, -r0]
 214:	05000001 	streq	r0, [r0, #-1]
 218:	02007063 	andeq	r7, r0, #99	; 0x63
 21c:	0000db22 	andeq	sp, r0, r2, lsr #22
 220:	74910200 	ldrvc	r0, [r1], #512	; 0x200
 224:	0000ed08 	andeq	lr, r0, r8, lsl #26
 228:	ed220200 	sfm	f0, 4, [r2]
 22c:	02000000 	andeq	r0, r0, #0
 230:	7f087091 	svcvc	0x00087091
 234:	02000000 	andeq	r0, r0, #0
 238:	0000f922 	andeq	pc, r0, r2, lsr #18
 23c:	6c910200 	lfmvs	f0, 4, [r1], {0}
 240:	05040600 	streq	r0, [r4, #-1536]	; 0x600
 244:	00000124 	andeq	r0, r0, r4, lsr #2
 248:	0000db04 	andeq	sp, r0, r4, lsl #22
 24c:	014a0200 	mrseq	r0, (UNDEF: 106)
 250:	00000183 	andeq	r0, r0, r3, lsl #3
 254:	400084ec 	andmi	r8, r0, ip, ror #9
 258:	40008580 	andmi	r8, r0, r0, lsl #11
 25c:	00000084 	andeq	r0, r0, r4, lsl #1
 260:	00000183 	andeq	r0, r0, r3, lsl #3
 264:	02007305 	andeq	r7, r0, #335544320	; 0x14000000
 268:	00018a4a 	andeq	r8, r1, sl, asr #20
 26c:	74910200 	ldrvc	r0, [r1], #512	; 0x200
 270:	0200690c 	andeq	r6, r0, #196608	; 0x30000
 274:	0001834c 	andeq	r8, r1, ip, asr #6
 278:	78910200 	ldmvc	r1, {r9}
 27c:	05040d00 	streq	r0, [r4, #-3328]	; 0xd00
 280:	00746e69 	rsbseq	r6, r4, r9, ror #28
 284:	00db040a 	sbcseq	r0, fp, sl, lsl #8
 288:	1d040000 	stcne	0, cr0, [r4]
 28c:	02000001 	andeq	r0, r0, #1
 290:	00f3016f 	rscseq	r0, r3, pc, ror #2
 294:	85800000 	strhi	r0, [r0]
 298:	8a184000 	bhi	6102a0 <_start-0x3f9f7d60>
 29c:	00b04000 	adcseq	r4, r0, r0
 2a0:	02600000 	rsbeq	r0, r0, #0
 2a4:	73050000 	movwvc	r0, #20480	; 0x5000
 2a8:	02007274 	andeq	r7, r0, #1073741831	; 0x40000007
 2ac:	0000f36f 	andeq	pc, r0, pc, ror #6
 2b0:	9c910300 	ldcls	3, cr0, [r1], {0}
 2b4:	756e057f 	strbvc	r0, [lr, #-1407]!	; 0x57f
 2b8:	6f02006d 	svcvs	0x0002006d
 2bc:	00000147 	andeq	r0, r0, r7, asr #2
 2c0:	7f989103 	svcvc	0x00989103
 2c4:	00007f08 	andeq	r7, r0, r8, lsl #30
 2c8:	f96f0200 			; <UNDEFINED> instruction: 0xf96f0200
 2cc:	03000000 	movweq	r0, #0
 2d0:	087f9491 	ldmdaeq	pc!, {r0, r4, r7, sl, ip, pc}^	; <UNPREDICTABLE>
 2d4:	00000138 	andeq	r0, r0, r8, lsr r1
 2d8:	01836f02 	orreq	r6, r3, r2, lsl #30
 2dc:	91030000 	mrsls	r0, (UNDEF: 3)
 2e0:	67087f90 			; <UNDEFINED> instruction: 0x67087f90
 2e4:	02000000 	andeq	r0, r0, #0
 2e8:	0001836f 	andeq	r8, r1, pc, ror #6
 2ec:	00910200 	addseq	r0, r1, r0, lsl #4
 2f0:	0000f408 	andeq	pc, r0, r8, lsl #8
 2f4:	836f0200 	cmnhi	pc, #0
 2f8:	02000001 	andeq	r0, r0, #1
 2fc:	630c0491 	movwvs	r0, #50321	; 0xc491
 300:	e6720200 	ldrbt	r0, [r2], -r0, lsl #4
 304:	02000000 	andeq	r0, r0, #0
 308:	2d096b91 	vstrcs	d6, [r9, #-580]	; 0xfffffdbc
 30c:	02000001 	andeq	r0, r0, #1
 310:	0000e672 	andeq	lr, r0, r2, ror r6
 314:	77910200 	ldrvc	r0, [r1, r0, lsl #4]
 318:	706d740c 	rsbvc	r7, sp, ip, lsl #8
 31c:	60720200 	rsbsvs	r0, r2, r0, lsl #4
 320:	03000002 	movweq	r0, #2
 324:	097fa091 	ldmdbeq	pc!, {r0, r4, r7, sp, pc}^	; <UNPREDICTABLE>
 328:	000000f9 	strdeq	r0, [r0], -r9
 32c:	00db7302 	sbcseq	r7, fp, r2, lsl #6
 330:	91020000 	mrsls	r0, (UNDEF: 2)
 334:	00690c70 	rsbeq	r0, r9, r0, ror ip
 338:	01837402 	orreq	r7, r3, r2, lsl #8
 33c:	91020000 	mrsls	r0, (UNDEF: 2)
 340:	87440e6c 	strbhi	r0, [r4, -ip, ror #28]
 344:	87784000 	ldrbhi	r4, [r8, -r0]!
 348:	32094000 	andcc	r4, r9, #0
 34c:	02000001 	andeq	r0, r0, #1
 350:	00018396 	muleq	r1, r6, r3
 354:	64910200 	ldrvs	r0, [r1], #512	; 0x200
 358:	e60f0000 	str	r0, [pc], -r0
 35c:	70000000 	andvc	r0, r0, r0
 360:	10000002 	andne	r0, r0, r2
 364:	000000d4 	ldrdeq	r0, [r0], -r4
 368:	01070041 	tsteq	r7, r1, asr #32
 36c:	000000e5 	andeq	r0, r0, r5, ror #1
 370:	f901b402 			; <UNDEFINED> instruction: 0xf901b402
 374:	18000000 	stmdane	r0, {}	; <UNPREDICTABLE>
 378:	9840008a 	stmdals	r0, {r1, r3, r7}^
 37c:	dc40008a 	mcrrle	0, 8, r0, r0, cr10
 380:	b5000000 	strlt	r0, [r0]
 384:	05000002 	streq	r0, [r0, #-2]
 388:	b4020073 	strlt	r0, [r2], #-115	; 0x73
 38c:	000000db 	ldrdeq	r0, [r0], -fp
 390:	08749102 	ldmdaeq	r4!, {r1, r8, ip, pc}^
 394:	00000027 	andeq	r0, r0, r7, lsr #32
 398:	00f9b402 	rscseq	fp, r9, r2, lsl #8
 39c:	91020000 	mrsls	r0, (UNDEF: 2)
 3a0:	63730c70 	cmnvs	r3, #28672	; 0x7000
 3a4:	dbb60200 	blle	fed80bac <Num+0xbed768b4>
 3a8:	02000000 	andeq	r0, r0, #0
 3ac:	07007891 			; <UNDEFINED> instruction: 0x07007891
 3b0:	00013d01 	andeq	r3, r1, r1, lsl #26
 3b4:	01bc0200 			; <UNDEFINED> instruction: 0x01bc0200
 3b8:	00000183 	andeq	r0, r0, r3, lsl #3
 3bc:	40008a98 	mulmi	r0, r8, sl
 3c0:	400093d0 	ldrdmi	r9, [r0], -r0
 3c4:	00000108 	andeq	r0, r0, r8, lsl #2
 3c8:	000003c5 	andeq	r0, r0, r5, asr #7
 3cc:	66756205 	ldrbtvs	r6, [r5], -r5, lsl #4
 3d0:	f3bc0200 	vpaddl.s<illegal width 64>	d0, d0
 3d4:	02000000 	andeq	r0, r0, #0
 3d8:	66054491 			; <UNDEFINED> instruction: 0x66054491
 3dc:	0200746d 	andeq	r7, r0, #1828716544	; 0x6d000000
 3e0:	0000dbbc 			; <UNDEFINED> instruction: 0x0000dbbc
 3e4:	40910200 	addsmi	r0, r1, r0, lsl #4
 3e8:	00011808 	andeq	r1, r1, r8, lsl #16
 3ec:	36bc0200 	ldrtcc	r0, [ip], r0, lsl #4
 3f0:	03000000 	movweq	r0, #0
 3f4:	0c7fbc91 	ldcleq	12, cr11, [pc], #-580	; 1b8 <_start-0x40007e48>
 3f8:	006e656c 	rsbeq	r6, lr, ip, ror #10
 3fc:	0183be02 	orreq	fp, r3, r2, lsl #28
 400:	91020000 	mrsls	r0, (UNDEF: 2)
 404:	756e0c50 	strbvc	r0, [lr, #-3152]!	; 0xc50
 408:	c202006d 	andgt	r0, r2, #109	; 0x6d
 40c:	000000d4 	ldrdeq	r0, [r0], -r4
 410:	0c749102 	ldfeqp	f1, [r4], #-8
 414:	c4020069 	strgt	r0, [r2], #-105	; 0x69
 418:	00000183 	andeq	r0, r0, r3, lsl #3
 41c:	09709102 	ldmdbeq	r0!, {r1, r8, ip, pc}^
 420:	0000007f 	andeq	r0, r0, pc, ror r0
 424:	0183c402 	orreq	ip, r3, r2, lsl #8
 428:	91020000 	mrsls	r0, (UNDEF: 2)
 42c:	74730c6c 	ldrbtvc	r0, [r3], #-3180	; 0xc6c
 430:	c5020072 	strgt	r0, [r2, #-114]	; 0x72
 434:	000000f3 	strdeq	r0, [r0], -r3
 438:	0c689102 	stfeqp	f1, [r8], #-8
 43c:	c6020073 			; <UNDEFINED> instruction: 0xc6020073
 440:	000000db 	ldrdeq	r0, [r0], -fp
 444:	09649102 	stmdbeq	r4!, {r1, r8, ip, pc}^
 448:	000000c4 	andeq	r0, r0, r4, asr #1
 44c:	0183c802 	orreq	ip, r3, r2, lsl #16
 450:	91020000 	mrsls	r0, (UNDEF: 2)
 454:	010c0960 	tsteq	ip, r0, ror #18
 458:	ca020000 	bgt	80460 <_start-0x3ff87ba0>
 45c:	00000183 	andeq	r0, r0, r3, lsl #3
 460:	095c9102 	ldmdbeq	ip, {r1, r8, ip, pc}^
 464:	00000067 	andeq	r0, r0, r7, rrx
 468:	0183cb02 	orreq	ip, r3, r2, lsl #22
 46c:	91020000 	mrsls	r0, (UNDEF: 2)
 470:	00ca0958 	sbceq	r0, sl, r8, asr r9
 474:	cd020000 	stcgt	0, cr0, [r2]
 478:	00000183 	andeq	r0, r0, r3, lsl #3
 47c:	11549102 	cmpne	r4, r2, lsl #2
 480:	00000051 	andeq	r0, r0, r1, asr r0
 484:	8af4d702 	bhi	ffd36094 <Num+0xbfd2bd9c>
 488:	4c124000 	ldcmi	0, cr4, [r2], {0}
 48c:	74400091 	strbvc	r0, [r0], #-145	; 0x91
 490:	ac400091 	mcrrge	0, 9, r0, r0, cr1
 494:	13000003 	movwne	r0, #3
 498:	02007069 	andeq	r7, r0, #105	; 0x69
 49c:	03c50135 	biceq	r0, r5, #1073741837	; 0x4000000d
 4a0:	91020000 	mrsls	r0, (UNDEF: 2)
 4a4:	780e004c 	stmdavc	lr, {r2, r3, r6}
 4a8:	a0400091 	umaalge	r0, r0, r1, r0
 4ac:	13400091 	movtne	r0, #145	; 0x91
 4b0:	02007069 	andeq	r7, r0, #105	; 0x69
 4b4:	03cb0138 	biceq	r0, fp, #14
 4b8:	91020000 	mrsls	r0, (UNDEF: 2)
 4bc:	0a000048 	beq	5e4 <_start-0x40007a1c>
 4c0:	00014704 	andeq	r4, r1, r4, lsl #14
 4c4:	83040a00 	movwhi	r0, #18944	; 0x4a00
 4c8:	14000001 	strne	r0, [r0], #-1
 4cc:	00013e01 	andeq	r3, r1, r1, lsl #28
 4d0:	01730200 	cmneq	r3, r0, lsl #4
 4d4:	00018301 	andeq	r8, r1, r1, lsl #6
 4d8:	0093d000 	addseq	sp, r3, r0
 4dc:	00942040 	addseq	r2, r4, r0, asr #32
 4e0:	00013440 	andeq	r3, r1, r0, asr #8
 4e4:	00042b00 	andeq	r2, r4, r0, lsl #22
 4e8:	75621500 	strbvc	r1, [r2, #-1280]!	; 0x500
 4ec:	73020066 	movwvc	r0, #8294	; 0x2066
 4f0:	0000f301 	andeq	pc, r0, r1, lsl #6
 4f4:	60910200 	addsvs	r0, r1, r0, lsl #4
 4f8:	746d6615 	strbtvc	r6, [sp], #-1557	; 0x615
 4fc:	01730200 	cmneq	r3, r0, lsl #4
 500:	000000db 	ldrdeq	r0, [r0], -fp
 504:	16749102 	ldrbtne	r9, [r4], -r2, lsl #2
 508:	00011817 	andeq	r1, r1, r7, lsl r8
 50c:	01750200 	cmneq	r5, r0, lsl #4
 510:	00000036 	andeq	r0, r0, r6, lsr r0
 514:	13649102 	cmnne	r4, #-2147483648	; 0x80000000
 518:	76020069 	strvc	r0, [r2], -r9, rrx
 51c:	00018301 	andeq	r8, r1, r1, lsl #6
 520:	68910200 	ldmvs	r1, {r9}
 524:	3f011800 	svccc	0x00011800
 528:	02000001 	andeq	r0, r0, #1
 52c:	2001017e 	andcs	r0, r1, lr, ror r1
 530:	78400094 	stmdavc	r0, {r2, r4, r7}^
 534:	6c400094 	mcrrvs	0, 9, r0, r0, cr4
 538:	82000001 	andhi	r0, r0, #1
 53c:	15000004 	strne	r0, [r0, #-4]
 540:	00746d66 	rsbseq	r6, r4, r6, ror #26
 544:	db017e02 	blle	5fd54 <_start-0x3ffa82ac>
 548:	02000000 	andeq	r0, r0, #0
 54c:	17167091 			; <UNDEFINED> instruction: 0x17167091
 550:	00000118 	andeq	r0, r0, r8, lsl r1
 554:	36018002 	strcc	r8, [r1], -r2
 558:	02000000 	andeq	r0, r0, #0
 55c:	69136091 	ldmdbvs	r3, {r0, r4, r7, sp, lr}
 560:	01810200 	orreq	r0, r1, r0, lsl #4
 564:	000000f9 	strdeq	r0, [r0], -r9
 568:	17649102 	strbne	r9, [r4, -r2, lsl #2]!
 56c:	00000100 	andeq	r0, r0, r0, lsl #2
 570:	82018202 	andhi	r8, r1, #536870912	; 0x20000000
 574:	03000004 	movweq	r0, #4
 578:	007efc91 			; <UNDEFINED> instruction: 0x007efc91
 57c:	0000e60f 	andeq	lr, r0, pc, lsl #12
 580:	00049200 	andeq	r9, r4, r0, lsl #4
 584:	00d41000 	sbcseq	r1, r4, r0
 588:	00630000 	rsbeq	r0, r3, r0
 58c:	00006a0f 	andeq	r6, r0, pc, lsl #20
 590:	0004a200 	andeq	sl, r4, r0, lsl #4
 594:	00d41000 	sbcseq	r1, r4, r0
 598:	00ff0000 	rscseq	r0, pc, r0
 59c:	0000f219 	andeq	pc, r0, r9, lsl r2	; <UNPREDICTABLE>
 5a0:	92110100 	andsls	r0, r1, #0
 5a4:	01000004 	tsteq	r0, r4
 5a8:	00f21a01 	rscseq	r1, r2, r1, lsl #20
 5ac:	11010000 	mrsne	r0, (UNDEF: 1)
 5b0:	00000492 	muleq	r0, r2, r4
 5b4:	04030501 	streq	r0, [r3], #-1281	; 0x501
 5b8:	004000a0 	subeq	r0, r0, r0, lsr #1
 5bc:	0000020d 	andeq	r0, r0, sp, lsl #4
 5c0:	01af0002 			; <UNDEFINED> instruction: 0x01af0002
 5c4:	01040000 	mrseq	r0, (UNDEF: 4)
 5c8:	00000084 	andeq	r0, r0, r4, lsl #1
 5cc:	0001d201 	andeq	sp, r1, r1, lsl #4
 5d0:	00002d00 	andeq	r2, r0, r0, lsl #26
 5d4:	00947800 	addseq	r7, r4, r0, lsl #16
 5d8:	00958440 	addseq	r8, r5, r0, asr #8
 5dc:	0003ad40 	andeq	sl, r3, r0, asr #26
 5e0:	07040200 	streq	r0, [r4, -r0, lsl #4]
 5e4:	00000095 	muleq	r0, r5, r0
 5e8:	89021803 	stmdbhi	r2, {r0, r1, fp, ip}
 5ec:	00009001 	andeq	r9, r0, r1
 5f0:	4f430400 	svcmi	0x00430400
 5f4:	8a02004e 	bhi	80734 <_start-0x3ff878cc>
 5f8:	00002501 	andeq	r2, r0, r1, lsl #10
 5fc:	00230200 	eoreq	r0, r3, r0, lsl #4
 600:	54414404 	strbpl	r4, [r1], #-1028	; 0x404
 604:	018b0200 	orreq	r0, fp, r0, lsl #4
 608:	00000025 	andeq	r0, r0, r5, lsr #32
 60c:	04042302 	streq	r2, [r4], #-770	; 0x302
 610:	00445550 	subeq	r5, r4, r0, asr r5
 614:	25018c02 	strcs	r8, [r1, #-3074]	; 0xc02
 618:	02000000 	andeq	r0, r0, #0
 61c:	44040823 	strmi	r0, [r4], #-2083	; 0x823
 620:	02005652 	andeq	r5, r0, #85983232	; 0x5200000
 624:	0025018d 	eoreq	r0, r5, sp, lsl #3
 628:	23020000 	movwcs	r0, #8192	; 0x2000
 62c:	0195050c 	orrseq	r0, r5, ip, lsl #10
 630:	8e020000 	cdphi	0, 0, cr0, cr2, cr0, {0}
 634:	00002501 	andeq	r2, r0, r1, lsl #10
 638:	10230200 	eorne	r0, r3, r0, lsl #4
 63c:	0001cb05 	andeq	ip, r1, r5, lsl #22
 640:	018f0200 	orreq	r0, pc, r0, lsl #4
 644:	00000025 	andeq	r0, r0, r5, lsr #32
 648:	00142302 	andseq	r2, r4, r2, lsl #6
 64c:	0001b806 	andeq	fp, r1, r6, lsl #16
 650:	01900200 	orrseq	r0, r0, r0, lsl #4
 654:	0000002c 	andeq	r0, r0, ip, lsr #32
 658:	c9023c03 	stmdbgt	r2, {r0, r1, sl, fp, ip, sp}
 65c:	00018703 	andeq	r8, r1, r3, lsl #14
 660:	01b10500 			; <UNDEFINED> instruction: 0x01b10500
 664:	ca020000 	bgt	8066c <_start-0x3ff87994>
 668:	00002503 	andeq	r2, r0, r3, lsl #10
 66c:	00230200 	eoreq	r0, r3, r0, lsl #4
 670:	00019c05 	andeq	r9, r1, r5, lsl #24
 674:	03cb0200 	biceq	r0, fp, #0
 678:	00000025 	andeq	r0, r0, r5, lsr #32
 67c:	05042302 	streq	r2, [r4, #-770]	; 0x302
 680:	00000188 	andeq	r0, r0, r8, lsl #3
 684:	2503cc02 	strcs	ip, [r3, #-3074]	; 0xc02
 688:	02000000 	andeq	r0, r0, #0
 68c:	e9050823 	stmdb	r5, {r0, r1, r5, fp}
 690:	02000001 	andeq	r0, r0, #1
 694:	002503cd 	eoreq	r0, r5, sp, asr #7
 698:	23020000 	movwcs	r0, #8192	; 0x2000
 69c:	0170050c 	cmneq	r0, ip, lsl #10
 6a0:	ce020000 	cdpgt	0, 0, cr0, cr2, cr0, {0}
 6a4:	00002503 	andeq	r2, r0, r3, lsl #10
 6a8:	10230200 	eorne	r0, r3, r0, lsl #4
 6ac:	0001c205 	andeq	ip, r1, r5, lsl #4
 6b0:	03cf0200 	biceq	r0, pc, #0
 6b4:	00000025 	andeq	r0, r0, r5, lsr #32
 6b8:	05142302 	ldreq	r2, [r4, #-770]	; 0x302
 6bc:	00000168 	andeq	r0, r0, r8, ror #2
 6c0:	2503d002 	strcs	sp, [r3, #-2]
 6c4:	02000000 	andeq	r0, r0, #0
 6c8:	a2051823 	andge	r1, r5, #2293760	; 0x230000
 6cc:	02000001 	andeq	r0, r0, #1
 6d0:	002503d1 	ldrdeq	r0, [r5], -r1	; <UNPREDICTABLE>
 6d4:	23020000 	movwcs	r0, #8192	; 0x2000
 6d8:	018f051c 	orreq	r0, pc, ip, lsl r5	; <UNPREDICTABLE>
 6dc:	d2020000 	andle	r0, r2, #0
 6e0:	00002503 	andeq	r2, r0, r3, lsl #10
 6e4:	20230200 	eorcs	r0, r3, r0, lsl #4
 6e8:	0001f005 	andeq	pc, r1, r5
 6ec:	03d30200 	bicseq	r0, r3, #0
 6f0:	00000025 	andeq	r0, r0, r5, lsr #32
 6f4:	05242302 	streq	r2, [r4, #-770]!	; 0x302
 6f8:	0000015b 	andeq	r0, r0, fp, asr r1
 6fc:	2503d402 	strcs	sp, [r3, #-1026]	; 0x402
 700:	02000000 	andeq	r0, r0, #0
 704:	f6052823 			; <UNDEFINED> instruction: 0xf6052823
 708:	02000001 	andeq	r0, r0, #1
 70c:	002503d5 	ldrdeq	r0, [r5], -r5	; <UNPREDICTABLE>
 710:	23020000 	movwcs	r0, #8192	; 0x2000
 714:	014c052c 	cmpeq	ip, ip, lsr #10
 718:	d6020000 	strle	r0, [r2], -r0
 71c:	00002503 	andeq	r2, r0, r3, lsl #10
 720:	30230200 	eorcc	r0, r3, r0, lsl #4
 724:	00015305 	andeq	r5, r1, r5, lsl #6
 728:	03d70200 	bicseq	r0, r7, #0
 72c:	00000025 	andeq	r0, r0, r5, lsr #32
 730:	05342302 	ldreq	r2, [r4, #-770]!	; 0x302
 734:	000001aa 	andeq	r0, r0, sl, lsr #3
 738:	2503d802 	strcs	sp, [r3, #-2050]	; 0x802
 73c:	02000000 	andeq	r0, r0, #0
 740:	06003823 	streq	r3, [r0], -r3, lsr #16
 744:	00000146 	andeq	r0, r0, r6, asr #2
 748:	9c03d902 	stcls	9, cr13, [r3], {2}
 74c:	02000000 	andeq	r0, r0, #0
 750:	00900704 	addseq	r0, r0, r4, lsl #14
 754:	01070000 	mrseq	r0, (UNDEF: 7)
 758:	00000179 	andeq	r0, r0, r9, ror r1
 75c:	94780301 	ldrbtls	r0, [r8], #-769	; 0x301
 760:	94dc4000 	ldrbls	r4, [ip]
 764:	01a44000 			; <UNDEFINED> instruction: 0x01a44000
 768:	01080000 	mrseq	r0, (UNDEF: 8)
 76c:	000001bd 			; <UNDEFINED> instruction: 0x000001bd
 770:	dc011001 	stcle	0, cr1, [r1], {1}
 774:	38400094 	stmdacc	r0, {r2, r4, r7}^
 778:	d0400095 	umaalle	r0, r0, r5, r0
 77c:	d6000001 	strle	r0, [r0], -r1
 780:	09000001 	stmdbeq	r0, {r0}
 784:	00000183 	andeq	r0, r0, r3, lsl #3
 788:	01d61001 	bicseq	r1, r6, r1
 78c:	91020000 	mrsls	r0, (UNDEF: 2)
 790:	db0a0074 	blle	280968 <_start-0x3fd87698>
 794:	02000001 	andeq	r0, r0, #1
 798:	007a0801 	rsbseq	r0, sl, r1, lsl #16
 79c:	01080000 	mrseq	r0, (UNDEF: 8)
 7a0:	000001e4 	andeq	r0, r0, r4, ror #3
 7a4:	38011701 	stmdacc	r1, {r0, r8, r9, sl, ip}
 7a8:	84400095 	strbhi	r0, [r0], #-149	; 0x95
 7ac:	fc400095 	mcrr2	0, 9, r0, r0, cr5
 7b0:	0a000001 	beq	7bc <_start-0x40007844>
 7b4:	09000002 	stmdbeq	r0, {r1}
 7b8:	00000163 	andeq	r0, r0, r3, ror #2
 7bc:	020a1701 	andeq	r1, sl, #262144	; 0x40000
 7c0:	91020000 	mrsls	r0, (UNDEF: 2)
 7c4:	040b0074 	streq	r0, [fp], #-116	; 0x74
 7c8:	000001d6 	ldrdeq	r0, [r0], -r6
 7cc:	00026f00 	andeq	r6, r2, r0, lsl #30
 7d0:	4f000200 	svcmi	0x00000200
 7d4:	04000002 	streq	r0, [r0], #-2
 7d8:	00008401 	andeq	r8, r0, r1, lsl #8
 7dc:	02210100 	eoreq	r0, r1, #0
 7e0:	002d0000 	eoreq	r0, sp, r0
 7e4:	95840000 	strls	r0, [r4]
 7e8:	97ac4000 	strls	r4, [ip, r0]!
 7ec:	042a4000 	strteq	r4, [sl]
 7f0:	48020000 	stmdami	r2, {}	; <UNPREDICTABLE>
 7f4:	3d012d02 	stccc	13, cr2, [r1, #-8]
 7f8:	03000001 	movweq	r0, #1
 7fc:	00000243 	andeq	r0, r0, r3, asr #4
 800:	3d012e02 	stccc	14, cr2, [r1, #-8]
 804:	02000001 	andeq	r0, r0, #1
 808:	49030023 	stmdbmi	r3, {r0, r1, r5}
 80c:	02000002 	andeq	r0, r0, #2
 810:	013d012f 	teqeq	sp, pc, lsr #2
 814:	23020000 	movwcs	r0, #8192	; 0x2000
 818:	025d0304 	subseq	r0, sp, #268435456	; 0x10000000
 81c:	30020000 	andcc	r0, r2, r0
 820:	00013d01 	andeq	r3, r1, r1, lsl #26
 824:	08230200 	stmdaeq	r3!, {r9}
 828:	00029003 	andeq	r9, r2, r3
 82c:	01310200 	teqeq	r1, r0, lsl #4
 830:	0000013d 	andeq	r0, r0, sp, lsr r1
 834:	030c2302 	movweq	r2, #49922	; 0xc302
 838:	00000200 	andeq	r0, r0, r0, lsl #4
 83c:	3d013202 	sfmcc	f3, 4, [r1, #-8]
 840:	02000001 	andeq	r0, r0, #1
 844:	62031023 	andvs	r1, r3, #35	; 0x23
 848:	02000002 	andeq	r0, r0, #2
 84c:	013d0133 	teqeq	sp, r3, lsr r1
 850:	23020000 	movwcs	r0, #8192	; 0x2000
 854:	022e0314 	eoreq	r0, lr, #1342177280	; 0x50000000
 858:	34020000 	strcc	r0, [r2]
 85c:	00013d01 	andeq	r3, r1, r1, lsl #26
 860:	18230200 	stmdane	r3!, {r9}
 864:	00020c03 	andeq	r0, r2, r3, lsl #24
 868:	01350200 	teqeq	r5, r0, lsl #4
 86c:	0000013d 	andeq	r0, r0, sp, lsr r1
 870:	031c2302 	tsteq	ip, #134217728	; 0x8000000
 874:	00000269 	andeq	r0, r0, r9, ror #4
 878:	3d013602 	stccc	6, cr3, [r1, #-8]
 87c:	02000001 	andeq	r0, r0, #1
 880:	35032023 	strcc	r2, [r3, #-35]	; 0x23
 884:	02000002 	andeq	r0, r0, #2
 888:	013d0137 	teqeq	sp, r7, lsr r1
 88c:	23020000 	movwcs	r0, #8192	; 0x2000
 890:	02130324 	andseq	r0, r3, #-1879048192	; 0x90000000
 894:	38020000 	stmdacc	r2, {}	; <UNPREDICTABLE>
 898:	00013d01 	andeq	r3, r1, r1, lsl #26
 89c:	28230200 	stmdacs	r3!, {r9}
 8a0:	00027003 	andeq	r7, r2, r3
 8a4:	01390200 	teqeq	r9, r0, lsl #4
 8a8:	0000013d 	andeq	r0, r0, sp, lsr r1
 8ac:	032c2302 	teqeq	ip, #134217728	; 0x8000000
 8b0:	0000023c 	andeq	r0, r0, ip, lsr r2
 8b4:	3d013a02 	vstrcc	s6, [r1, #-8]
 8b8:	02000001 	andeq	r0, r0, #1
 8bc:	1a033023 	bne	cc950 <_start-0x3ff3b6b0>
 8c0:	02000002 	andeq	r0, r0, #2
 8c4:	013d013b 	teqeq	sp, fp, lsr r1
 8c8:	23020000 	movwcs	r0, #8192	; 0x2000
 8cc:	02770334 	rsbseq	r0, r7, #-805306368	; 0xd0000000
 8d0:	3c020000 	stccc	0, cr0, [r2], {0}
 8d4:	00013d01 	andeq	r3, r1, r1, lsl #26
 8d8:	38230200 	stmdacc	r3!, {r9}
 8dc:	00029703 	andeq	r9, r2, r3, lsl #14
 8e0:	013d0200 	teqeq	sp, r0, lsl #4
 8e4:	0000013d 	andeq	r0, r0, sp, lsr r1
 8e8:	033c2302 	teqeq	ip, #134217728	; 0x8000000
 8ec:	0000027e 	andeq	r0, r0, lr, ror r2
 8f0:	3d013e02 	stccc	14, cr3, [r1, #-8]
 8f4:	02000001 	andeq	r0, r0, #1
 8f8:	85034023 	strhi	r4, [r3, #-35]	; 0x23
 8fc:	02000002 	andeq	r0, r0, #2
 900:	013d013f 	teqeq	sp, pc, lsr r1
 904:	23020000 	movwcs	r0, #8192	; 0x2000
 908:	04040044 	streq	r0, [r4], #-68	; 0x44
 90c:	00009507 	andeq	r9, r0, r7, lsl #10
 910:	77700500 	ldrbvc	r0, [r0, -r0, lsl #10]!
 914:	4002006d 	andmi	r0, r2, sp, rrx
 918:	00002501 	andeq	r2, r0, r1, lsl #10
 91c:	02180200 	andseq	r0, r8, #0
 920:	01b401b5 			; <UNDEFINED> instruction: 0x01b401b5
 924:	43060000 	movwmi	r0, #24576	; 0x6000
 928:	02004e4f 	andeq	r4, r0, #1264	; 0x4f0
 92c:	013d01b6 			; <UNDEFINED> instruction: 0x013d01b6
 930:	23020000 	movwcs	r0, #8192	; 0x2000
 934:	41440600 	cmpmi	r4, r0, lsl #12
 938:	b7020054 	smlsdlt	r2, r4, r0, r0
 93c:	00013d01 	andeq	r3, r1, r1, lsl #26
 940:	04230200 	strteq	r0, [r3], #-512	; 0x200
 944:	44555006 	ldrbmi	r5, [r5], #-6
 948:	01b80200 			; <UNDEFINED> instruction: 0x01b80200
 94c:	0000013d 	andeq	r0, r0, sp, lsr r1
 950:	06082302 	streq	r2, [r8], -r2, lsl #6
 954:	00565244 	subseq	r5, r6, r4, asr #4
 958:	3d01b902 	stccc	9, cr11, [r1, #-8]
 95c:	02000001 	andeq	r0, r0, #1
 960:	95030c23 	strls	r0, [r3, #-3107]	; 0xc23
 964:	02000001 	andeq	r0, r0, #1
 968:	013d01ba 			; <UNDEFINED> instruction: 0x013d01ba
 96c:	23020000 	movwcs	r0, #8192	; 0x2000
 970:	01cb0310 	biceq	r0, fp, r0, lsl r3
 974:	bb020000 	bllt	8097c <_start-0x3ff87684>
 978:	00013d01 	andeq	r3, r1, r1, lsl #26
 97c:	14230200 	strtne	r0, [r3], #-512	; 0x200
 980:	02070700 	andeq	r0, r7, #0
 984:	bc020000 	stclt	0, cr0, [r2], {0}
 988:	00015001 	andeq	r5, r1, r1
 98c:	07040400 	streq	r0, [r4, -r0, lsl #8]
 990:	00000090 	muleq	r0, r0, r0
 994:	024f0108 	subeq	r0, pc, #2
 998:	24010000 	strcs	r0, [r1]
 99c:	00958401 	addseq	r8, r5, r1, lsl #8
 9a0:	0095f440 	addseq	pc, r5, r0, asr #8
 9a4:	00022840 	andeq	r2, r2, r0, asr #16
 9a8:	00020700 	andeq	r0, r2, r0, lsl #14
 9ac:	02580900 	subseq	r0, r8, #0
 9b0:	24010000 	strcs	r0, [r1]
 9b4:	0000013d 	andeq	r0, r0, sp, lsr r1
 9b8:	0a709102 	beq	1c24dc8 <_start-0x3e3e3238>
 9bc:	26010069 	strcs	r0, [r1], -r9, rrx
 9c0:	0000013d 	andeq	r0, r0, sp, lsr r1
 9c4:	0a789102 	beq	1e24dd4 <_start-0x3e1e322c>
 9c8:	2601006a 	strcs	r0, [r1], -sl, rrx
 9cc:	0000013d 	andeq	r0, r0, sp, lsr r1
 9d0:	00749102 	rsbseq	r9, r4, r2, lsl #2
 9d4:	0229010b 	eoreq	r0, r9, #-1073741822	; 0xc0000002
 9d8:	2c010000 	stccs	0, cr0, [r1], {0}
 9dc:	0095f401 	addseq	pc, r5, r1, lsl #8
 9e0:	0097ac40 	addseq	sl, r7, r0, asr #24
 9e4:	00025440 	andeq	r5, r2, r0, asr #8
 9e8:	022d0c00 	eoreq	r0, sp, #0
 9ec:	022d0000 	eoreq	r0, sp, #0
 9f0:	c00d0000 	andgt	r0, sp, r0
 9f4:	f3000001 	vhadd.u8	d0, d0, d1
 9f8:	01040001 	tsteq	r4, r1
 9fc:	00007108 	andeq	r7, r0, r8, lsl #2
 a00:	00410e00 	subeq	r0, r1, r0, lsl #28
 a04:	03010000 	movweq	r0, #4096	; 0x1000
 a08:	0000021c 	andeq	r0, r0, ip, lsl r2
 a0c:	4e0f0101 	adfmie	f0, f7, f1
 a10:	01006d75 	tsteq	r0, r5, ror sp
 a14:	00013d22 	andeq	r3, r1, r2, lsr #26
 a18:	10010100 	andne	r0, r1, r0, lsl #2
 a1c:	00000041 	andeq	r0, r0, r1, asr #32
 a20:	021c0301 	andseq	r0, ip, #67108864	; 0x4000000
 a24:	05010000 	streq	r0, [r1]
 a28:	00a10403 	adceq	r0, r1, r3, lsl #8
 a2c:	754e1140 	strbvc	r1, [lr, #-320]	; 0x140
 a30:	2201006d 	andcs	r0, r1, #109	; 0x6d
 a34:	0000013d 	andeq	r0, r0, sp, lsr r1
 a38:	f8030501 			; <UNDEFINED> instruction: 0xf8030501
 a3c:	004000a2 	subeq	r0, r0, r2, lsr #1

Disassembly of section .debug_abbrev:

00000000 <.debug_abbrev>:
   0:	10001101 	andne	r1, r0, r1, lsl #2
   4:	12011106 	andne	r1, r1, #-2147483647	; 0x80000001
   8:	1b080301 	blne	200c14 <_start-0x3fe073ec>
   c:	13082508 	movwne	r2, #34056	; 0x8508
  10:	00000005 	andeq	r0, r0, r5
  14:	10001101 	andne	r1, r0, r1, lsl #2
  18:	12011106 	andne	r1, r1, #-2147483647	; 0x80000001
  1c:	1b080301 	blne	200c28 <_start-0x3fe073d8>
  20:	13082508 	movwne	r2, #34056	; 0x8508
  24:	00000005 	andeq	r0, r0, r5
  28:	10001101 	andne	r1, r0, r1, lsl #2
  2c:	12011106 	andne	r1, r1, #-2147483647	; 0x80000001
  30:	1b080301 	blne	200c3c <_start-0x3fe073c4>
  34:	13082508 	movwne	r2, #34056	; 0x8508
  38:	00000005 	andeq	r0, r0, r5
  3c:	25011101 	strcs	r1, [r1, #-257]	; 0x101
  40:	030b130e 	movweq	r1, #45838	; 0xb30e
  44:	110e1b0e 	tstne	lr, lr, lsl #22
  48:	10011201 	andne	r1, r1, r1, lsl #4
  4c:	02000006 	andeq	r0, r0, #6
  50:	0e030016 	mcreq	0, 0, r0, cr3, cr6, {0}
  54:	0b3b0b3a 	bleq	ec2d44 <_start-0x3f1452bc>
  58:	00001349 	andeq	r1, r0, r9, asr #6
  5c:	0b000f03 	bleq	3c70 <_start-0x40004390>
  60:	000e030b 	andeq	r0, lr, fp, lsl #6
  64:	012e0400 	teqeq	lr, r0, lsl #8
  68:	0b3a0e03 	bleq	e8387c <_start-0x3f184784>
  6c:	0c270b3b 	stceq	11, cr0, [r7], #-236	; 0xffffff14
  70:	01111349 	tsteq	r1, r9, asr #6
  74:	06400112 			; <UNDEFINED> instruction: 0x06400112
  78:	00001301 	andeq	r1, r0, r1, lsl #6
  7c:	03000505 	movweq	r0, #1285	; 0x505
  80:	3b0b3a08 	blcc	2ce8a8 <_start-0x3fd39758>
  84:	0213490b 	andseq	r4, r3, #180224	; 0x2c000
  88:	0600000a 	streq	r0, [r0], -sl
  8c:	0b0b0024 	bleq	2c0124 <_start-0x3fd47edc>
  90:	0e030b3e 	vmoveq.16	d3[0], r0
  94:	2e070000 	cdpcs	0, 0, cr0, cr7, cr0, {0}
  98:	030c3f01 	movweq	r3, #52993	; 0xcf01
  9c:	3b0b3a0e 	blcc	2ce8dc <_start-0x3fd39724>
  a0:	490c270b 	stmdbmi	ip, {r0, r1, r3, r8, r9, sl, sp}
  a4:	12011113 	andne	r1, r1, #-1073741820	; 0xc0000004
  a8:	01064001 	tsteq	r6, r1
  ac:	08000013 	stmdaeq	r0, {r0, r1, r4}
  b0:	0e030005 	cdpeq	0, 0, cr0, cr3, cr5, {0}
  b4:	0b3b0b3a 	bleq	ec2da4 <_start-0x3f14525c>
  b8:	0a021349 	beq	84de4 <_start-0x3ff8321c>
  bc:	34090000 	strcc	r0, [r9]
  c0:	3a0e0300 	bcc	380cc8 <_start-0x3fc87338>
  c4:	490b3b0b 	stmdbmi	fp, {r0, r1, r3, r8, r9, fp, ip, sp}
  c8:	000a0213 	andeq	r0, sl, r3, lsl r2
  cc:	000f0a00 	andeq	r0, pc, r0, lsl #20
  d0:	13490b0b 	movtne	r0, #39691	; 0x9b0b
  d4:	260b0000 	strcs	r0, [fp], -r0
  d8:	00134900 	andseq	r4, r3, r0, lsl #18
  dc:	00340c00 	eorseq	r0, r4, r0, lsl #24
  e0:	0b3a0803 	bleq	e820f4 <_start-0x3f185f0c>
  e4:	13490b3b 	movtne	r0, #39739	; 0x9b3b
  e8:	00000a02 	andeq	r0, r0, r2, lsl #20
  ec:	0b00240d 	bleq	9128 <_start-0x3fffeed8>
  f0:	030b3e0b 	movweq	r3, #48651	; 0xbe0b
  f4:	0e000008 	cdpeq	0, 0, cr0, cr0, cr8, {0}
  f8:	0111010b 	tsteq	r1, fp, lsl #2
  fc:	00000112 	andeq	r0, r0, r2, lsl r1
 100:	4901010f 	stmdbmi	r1, {r0, r1, r2, r3, r8}
 104:	00130113 	andseq	r0, r3, r3, lsl r1
 108:	00211000 	eoreq	r1, r1, r0
 10c:	0b2f1349 	bleq	bc4e38 <_start-0x3f4431c8>
 110:	0a110000 	beq	440118 <_start-0x3fbc7ee8>
 114:	3a0e0300 	bcc	380d1c <_start-0x3fc872e4>
 118:	110b3b0b 	tstne	fp, fp, lsl #22
 11c:	12000001 	andne	r0, r0, #1
 120:	0111010b 	tsteq	r1, fp, lsl #2
 124:	13010112 	movwne	r0, #4370	; 0x1112
 128:	34130000 	ldrcc	r0, [r3]
 12c:	3a080300 	bcc	200d34 <_start-0x3fe072cc>
 130:	49053b0b 	stmdbmi	r5, {r0, r1, r3, r8, r9, fp, ip, sp}
 134:	000a0213 	andeq	r0, sl, r3, lsl r2
 138:	012e1400 	teqeq	lr, r0, lsl #8
 13c:	0e030c3f 	mcreq	12, 0, r0, cr3, cr15, {1}
 140:	053b0b3a 	ldreq	r0, [fp, #-2874]!	; 0xb3a
 144:	13490c27 	movtne	r0, #39975	; 0x9c27
 148:	01120111 	tsteq	r2, r1, lsl r1
 14c:	13010640 	movwne	r0, #5696	; 0x1640
 150:	05150000 	ldreq	r0, [r5]
 154:	3a080300 	bcc	200d5c <_start-0x3fe072a4>
 158:	49053b0b 	stmdbmi	r5, {r0, r1, r3, r8, r9, fp, ip, sp}
 15c:	000a0213 	andeq	r0, sl, r3, lsl r2
 160:	00181600 	andseq	r1, r8, r0, lsl #12
 164:	34170000 	ldrcc	r0, [r7]
 168:	3a0e0300 	bcc	380d70 <_start-0x3fc87290>
 16c:	49053b0b 	stmdbmi	r5, {r0, r1, r3, r8, r9, fp, ip, sp}
 170:	000a0213 	andeq	r0, sl, r3, lsl r2
 174:	012e1800 	teqeq	lr, r0, lsl #16
 178:	0e030c3f 	mcreq	12, 0, r0, cr3, cr15, {1}
 17c:	053b0b3a 	ldreq	r0, [fp, #-2874]!	; 0xb3a
 180:	01110c27 	tsteq	r1, r7, lsr #24
 184:	06400112 			; <UNDEFINED> instruction: 0x06400112
 188:	00001301 	andeq	r1, r0, r1, lsl #6
 18c:	03003419 	movweq	r3, #1049	; 0x419
 190:	3b0b3a0e 	blcc	2ce9d0 <_start-0x3fd39630>
 194:	3f13490b 	svccc	0x0013490b
 198:	000c3c0c 	andeq	r3, ip, ip, lsl #24
 19c:	00341a00 	eorseq	r1, r4, r0, lsl #20
 1a0:	0b3a0e03 	bleq	e839b4 <_start-0x3f18464c>
 1a4:	13490b3b 	movtne	r0, #39739	; 0x9b3b
 1a8:	0a020c3f 	beq	832ac <_start-0x3ff84d54>
 1ac:	01000000 	mrseq	r0, (UNDEF: 0)
 1b0:	0e250111 	mcreq	1, 1, r0, cr5, cr1, {0}
 1b4:	0e030b13 	vmoveq.32	d3[0], r0
 1b8:	01110e1b 	tsteq	r1, fp, lsl lr
 1bc:	06100112 			; <UNDEFINED> instruction: 0x06100112
 1c0:	24020000 	strcs	r0, [r2]
 1c4:	3e0b0b00 	vmlacc.f64	d0, d11, d0
 1c8:	000e030b 	andeq	r0, lr, fp, lsl #6
 1cc:	01130300 	tsteq	r3, r0, lsl #6
 1d0:	0b3a0b0b 	bleq	e82e04 <_start-0x3f1851fc>
 1d4:	1301053b 	movwne	r0, #5435	; 0x153b
 1d8:	0d040000 	stceq	0, cr0, [r4]
 1dc:	3a080300 	bcc	200de4 <_start-0x3fe0721c>
 1e0:	49053b0b 	stmdbmi	r5, {r0, r1, r3, r8, r9, fp, ip, sp}
 1e4:	000a3813 	andeq	r3, sl, r3, lsl r8
 1e8:	000d0500 	andeq	r0, sp, r0, lsl #10
 1ec:	0b3a0e03 	bleq	e83a00 <_start-0x3f184600>
 1f0:	1349053b 	movtne	r0, #38203	; 0x953b
 1f4:	00000a38 	andeq	r0, r0, r8, lsr sl
 1f8:	03001606 	movweq	r1, #1542	; 0x606
 1fc:	3b0b3a0e 	blcc	2cea3c <_start-0x3fd395c4>
 200:	00134905 	andseq	r4, r3, r5, lsl #18
 204:	002e0700 	eoreq	r0, lr, r0, lsl #14
 208:	0e030c3f 	mcreq	12, 0, r0, cr3, cr15, {1}
 20c:	0b3b0b3a 	bleq	ec2efc <_start-0x3f145104>
 210:	01120111 	tsteq	r2, r1, lsl r1
 214:	00000640 	andeq	r0, r0, r0, asr #12
 218:	3f012e08 	svccc	0x00012e08
 21c:	3a0e030c 	bcc	380e54 <_start-0x3fc871ac>
 220:	270b3b0b 	strcs	r3, [fp, -fp, lsl #22]
 224:	1201110c 	andne	r1, r1, #3
 228:	01064001 	tsteq	r6, r1
 22c:	09000013 	stmdbeq	r0, {r0, r1, r4}
 230:	0e030005 	cdpeq	0, 0, cr0, cr3, cr5, {0}
 234:	0b3b0b3a 	bleq	ec2f24 <_start-0x3f1450dc>
 238:	0a021349 	beq	84f64 <_start-0x3ff8309c>
 23c:	260a0000 	strcs	r0, [sl], -r0
 240:	00134900 	andseq	r4, r3, r0, lsl #18
 244:	000f0b00 	andeq	r0, pc, r0, lsl #22
 248:	13490b0b 	movtne	r0, #39691	; 0x9b0b
 24c:	01000000 	mrseq	r0, (UNDEF: 0)
 250:	0e250111 	mcreq	1, 1, r0, cr5, cr1, {0}
 254:	0e030b13 	vmoveq.32	d3[0], r0
 258:	01110e1b 	tsteq	r1, fp, lsl lr
 25c:	06100112 			; <UNDEFINED> instruction: 0x06100112
 260:	13020000 	movwne	r0, #8192	; 0x2000
 264:	3a0b0b01 	bcc	2c2e70 <_start-0x3fd45190>
 268:	01053b0b 	tsteq	r5, fp, lsl #22
 26c:	03000013 	movweq	r0, #19
 270:	0e03000d 	cdpeq	0, 0, cr0, cr3, cr13, {0}
 274:	053b0b3a 	ldreq	r0, [fp, #-2874]!	; 0xb3a
 278:	0a381349 	beq	e04fa4 <_start-0x3f20305c>
 27c:	24040000 	strcs	r0, [r4]
 280:	3e0b0b00 	vmlacc.f64	d0, d11, d0
 284:	000e030b 	andeq	r0, lr, fp, lsl #6
 288:	00160500 	andseq	r0, r6, r0, lsl #10
 28c:	0b3a0803 	bleq	e822a0 <_start-0x3f185d60>
 290:	1349053b 	movtne	r0, #38203	; 0x953b
 294:	0d060000 	stceq	0, cr0, [r6]
 298:	3a080300 	bcc	200ea0 <_start-0x3fe07160>
 29c:	49053b0b 	stmdbmi	r5, {r0, r1, r3, r8, r9, fp, ip, sp}
 2a0:	000a3813 	andeq	r3, sl, r3, lsl r8
 2a4:	00160700 	andseq	r0, r6, r0, lsl #14
 2a8:	0b3a0e03 	bleq	e83abc <_start-0x3f184544>
 2ac:	1349053b 	movtne	r0, #38203	; 0x953b
 2b0:	2e080000 	cdpcs	0, 0, cr0, cr8, cr0, {0}
 2b4:	030c3f01 	movweq	r3, #52993	; 0xcf01
 2b8:	3b0b3a0e 	blcc	2ceaf8 <_start-0x3fd39508>
 2bc:	110c270b 	tstne	ip, fp, lsl #14
 2c0:	40011201 	andmi	r1, r1, r1, lsl #4
 2c4:	00130106 	andseq	r0, r3, r6, lsl #2
 2c8:	00050900 	andeq	r0, r5, r0, lsl #18
 2cc:	0b3a0e03 	bleq	e83ae0 <_start-0x3f184520>
 2d0:	13490b3b 	movtne	r0, #39739	; 0x9b3b
 2d4:	00000a02 	andeq	r0, r0, r2, lsl #20
 2d8:	0300340a 	movweq	r3, #1034	; 0x40a
 2dc:	3b0b3a08 	blcc	2ceb04 <_start-0x3fd394fc>
 2e0:	0213490b 	andseq	r4, r3, #180224	; 0x2c000
 2e4:	0b00000a 	bleq	314 <_start-0x40007cec>
 2e8:	0c3f002e 	ldceq	0, cr0, [pc], #-184	; 238 <_start-0x40007dc8>
 2ec:	0b3a0e03 	bleq	e83b00 <_start-0x3f184500>
 2f0:	0c270b3b 	stceq	11, cr0, [r7], #-236	; 0xffffff14
 2f4:	01120111 	tsteq	r2, r1, lsl r1
 2f8:	00000640 	andeq	r0, r0, r0, asr #12
 2fc:	4901010c 	stmdbmi	r1, {r2, r3, r8}
 300:	00130113 	andseq	r0, r3, r3, lsl r1
 304:	00210d00 	eoreq	r0, r1, r0, lsl #26
 308:	052f1349 	streq	r1, [pc, #-841]!	; ffffffc7 <Num+0xbfff5ccf>
 30c:	340e0000 	strcc	r0, [lr]
 310:	3a0e0300 	bcc	380f18 <_start-0x3fc870e8>
 314:	490b3b0b 	stmdbmi	fp, {r0, r1, r3, r8, r9, fp, ip, sp}
 318:	3c0c3f13 	stccc	15, cr3, [ip], {19}
 31c:	0f00000c 	svceq	0x0000000c
 320:	08030034 	stmdaeq	r3, {r2, r4, r5}
 324:	0b3b0b3a 	bleq	ec3014 <_start-0x3f144fec>
 328:	0c3f1349 	ldceq	3, cr1, [pc], #-292	; 20c <_start-0x40007df4>
 32c:	00000c3c 	andeq	r0, r0, ip, lsr ip
 330:	03003410 	movweq	r3, #1040	; 0x410
 334:	3b0b3a0e 	blcc	2ceb74 <_start-0x3fd3948c>
 338:	3f13490b 	svccc	0x0013490b
 33c:	000a020c 	andeq	r0, sl, ip, lsl #4
 340:	00341100 	eorseq	r1, r4, r0, lsl #2
 344:	0b3a0803 	bleq	e82358 <_start-0x3f185ca8>
 348:	13490b3b 	movtne	r0, #39739	; 0x9b3b
 34c:	0a020c3f 	beq	83450 <_start-0x3ff84bb0>
 350:	Address 0x00000350 is out of bounds.


Disassembly of section .debug_aranges:

00000000 <.debug_aranges>:
   0:	0000001c 	andeq	r0, r0, ip, lsl r0
   4:	00000002 	andeq	r0, r0, r2
   8:	00040000 	andeq	r0, r4, r0
   c:	00000000 	andeq	r0, r0, r0
  10:	40008000 	andmi	r8, r0, r0
  14:	00000134 	andeq	r0, r0, r4, lsr r1
	...
  20:	0000001c 	andeq	r0, r0, ip, lsl r0
  24:	004e0002 	subeq	r0, lr, r2
  28:	00040000 	andeq	r0, r4, r0
  2c:	00000000 	andeq	r0, r0, r0
  30:	40008140 	andmi	r8, r0, r0, asr #2
  34:	00000094 	muleq	r0, r4, r0
	...
  40:	0000001c 	andeq	r0, r0, ip, lsl r0
  44:	00a40002 	adceq	r0, r4, r2
  48:	00040000 	andeq	r0, r4, r0
  4c:	00000000 	andeq	r0, r0, r0
  50:	400081d4 	ldrdmi	r8, [r0], -r4
  54:	000000b0 	strheq	r0, [r0], -r0	; <UNPREDICTABLE>
	...
  60:	0000001c 	andeq	r0, r0, ip, lsl r0
  64:	00fa0002 	rscseq	r0, sl, r2
  68:	00040000 	andeq	r0, r4, r0
  6c:	00000000 	andeq	r0, r0, r0
  70:	40008284 	andmi	r8, r0, r4, lsl #5
  74:	000011f4 	strdeq	r1, [r0], -r4
	...
  80:	0000001c 	andeq	r0, r0, ip, lsl r0
  84:	05bc0002 	ldreq	r0, [ip, #2]!
  88:	00040000 	andeq	r0, r4, r0
  8c:	00000000 	andeq	r0, r0, r0
  90:	40009478 	andmi	r9, r0, r8, ror r4
  94:	0000010c 	andeq	r0, r0, ip, lsl #2
	...
  a0:	0000001c 	andeq	r0, r0, ip, lsl r0
  a4:	07cd0002 	strbeq	r0, [sp, r2]
  a8:	00040000 	andeq	r0, r4, r0
  ac:	00000000 	andeq	r0, r0, r0
  b0:	40009584 	andmi	r9, r0, r4, lsl #11
  b4:	00000228 	andeq	r0, r0, r8, lsr #4
	...

Disassembly of section .debug_loc:

00000000 <.debug_loc>:
   0:	00000000 	andeq	r0, r0, r0
   4:	00000004 	andeq	r0, r0, r4
   8:	007d0002 	rsbseq	r0, sp, r2
   c:	00000004 	andeq	r0, r0, r4
  10:	00000008 	andeq	r0, r0, r8
  14:	047d0002 	ldrbteq	r0, [sp], #-2
  18:	00000008 	andeq	r0, r0, r8
  1c:	00000050 	andeq	r0, r0, r0, asr r0
  20:	047b0002 	ldrbteq	r0, [fp], #-2
	...
  2c:	00000050 	andeq	r0, r0, r0, asr r0
  30:	00000054 	andeq	r0, r0, r4, asr r0
  34:	007d0002 	rsbseq	r0, sp, r2
  38:	00000054 	andeq	r0, r0, r4, asr r0
  3c:	00000058 	andeq	r0, r0, r8, asr r0
  40:	087d0002 	ldmdaeq	sp!, {r1}^
  44:	00000058 	andeq	r0, r0, r8, asr r0
  48:	000001f8 	strdeq	r0, [r0], -r8
  4c:	047b0002 	ldrbteq	r0, [fp], #-2
	...
  58:	000001f8 	strdeq	r0, [r0], -r8
  5c:	000001fc 	strdeq	r0, [r0], -ip
  60:	007d0002 	rsbseq	r0, sp, r2
  64:	000001fc 	strdeq	r0, [r0], -ip
  68:	00000200 	andeq	r0, r0, r0, lsl #4
  6c:	087d0002 	ldmdaeq	sp!, {r1}^
  70:	00000200 	andeq	r0, r0, r0, lsl #4
  74:	00000268 	andeq	r0, r0, r8, ror #4
  78:	047b0002 	ldrbteq	r0, [fp], #-2
	...
  84:	00000268 	andeq	r0, r0, r8, ror #4
  88:	0000026c 	andeq	r0, r0, ip, ror #4
  8c:	007d0002 	rsbseq	r0, sp, r2
  90:	0000026c 	andeq	r0, r0, ip, ror #4
  94:	00000270 	andeq	r0, r0, r0, ror r2
  98:	047d0002 	ldrbteq	r0, [sp], #-2
  9c:	00000270 	andeq	r0, r0, r0, ror r2
  a0:	000002fc 	strdeq	r0, [r0], -ip
  a4:	047b0002 	ldrbteq	r0, [fp], #-2
	...
  b0:	000002fc 	strdeq	r0, [r0], -ip
  b4:	00000300 	andeq	r0, r0, r0, lsl #6
  b8:	007d0002 	rsbseq	r0, sp, r2
  bc:	00000300 	andeq	r0, r0, r0, lsl #6
  c0:	00000304 	andeq	r0, r0, r4, lsl #6
  c4:	087d0002 	ldmdaeq	sp!, {r1}^
  c8:	00000304 	andeq	r0, r0, r4, lsl #6
  cc:	00000794 	muleq	r0, r4, r7
  d0:	047b0002 	ldrbteq	r0, [fp], #-2
	...
  dc:	00000794 	muleq	r0, r4, r7
  e0:	00000798 	muleq	r0, r8, r7
  e4:	007d0002 	rsbseq	r0, sp, r2
  e8:	00000798 	muleq	r0, r8, r7
  ec:	0000079c 	muleq	r0, ip, r7
  f0:	047d0002 	ldrbteq	r0, [sp], #-2
  f4:	0000079c 	muleq	r0, ip, r7
  f8:	00000814 	andeq	r0, r0, r4, lsl r8
  fc:	047b0002 	ldrbteq	r0, [fp], #-2
	...
 108:	00000814 	andeq	r0, r0, r4, lsl r8
 10c:	00000818 	andeq	r0, r0, r8, lsl r8
 110:	007d0002 	rsbseq	r0, sp, r2
 114:	00000818 	andeq	r0, r0, r8, lsl r8
 118:	0000081c 	andeq	r0, r0, ip, lsl r8
 11c:	087d0002 	ldmdaeq	sp!, {r1}^
 120:	0000081c 	andeq	r0, r0, ip, lsl r8
 124:	0000114c 	andeq	r1, r0, ip, asr #2
 128:	047b0002 	ldrbteq	r0, [fp], #-2
	...
 134:	0000114c 	andeq	r1, r0, ip, asr #2
 138:	00001150 	andeq	r1, r0, r0, asr r1
 13c:	007d0002 	rsbseq	r0, sp, r2
 140:	00001150 	andeq	r1, r0, r0, asr r1
 144:	00001154 	andeq	r1, r0, r4, asr r1
 148:	0c7d0002 	ldcleq	0, cr0, [sp], #-8
 14c:	00001154 	andeq	r1, r0, r4, asr r1
 150:	00001158 	andeq	r1, r0, r8, asr r1
 154:	147d0002 	ldrbtne	r0, [sp], #-2
 158:	00001158 	andeq	r1, r0, r8, asr r1
 15c:	0000119c 	muleq	r0, ip, r1
 160:	107b0002 	rsbsne	r0, fp, r2
	...
 16c:	0000119c 	muleq	r0, ip, r1
 170:	000011a0 	andeq	r1, r0, r0, lsr #3
 174:	007d0002 	rsbseq	r0, sp, r2
 178:	000011a0 	andeq	r1, r0, r0, lsr #3
 17c:	000011a4 	andeq	r1, r0, r4, lsr #3
 180:	107d0002 	rsbsne	r0, sp, r2
 184:	000011a4 	andeq	r1, r0, r4, lsr #3
 188:	000011a8 	andeq	r1, r0, r8, lsr #3
 18c:	187d0002 	ldmdane	sp!, {r1}^
 190:	000011a8 	andeq	r1, r0, r8, lsr #3
 194:	000011f4 	strdeq	r1, [r0], -r4
 198:	147b0002 	ldrbtne	r0, [fp], #-2
	...
 1a8:	00000004 	andeq	r0, r0, r4
 1ac:	007d0002 	rsbseq	r0, sp, r2
 1b0:	00000004 	andeq	r0, r0, r4
 1b4:	00000008 	andeq	r0, r0, r8
 1b8:	047d0002 	ldrbteq	r0, [sp], #-2
 1bc:	00000008 	andeq	r0, r0, r8
 1c0:	00000064 	andeq	r0, r0, r4, rrx
 1c4:	047b0002 	ldrbteq	r0, [fp], #-2
	...
 1d0:	00000064 	andeq	r0, r0, r4, rrx
 1d4:	00000068 	andeq	r0, r0, r8, rrx
 1d8:	007d0002 	rsbseq	r0, sp, r2
 1dc:	00000068 	andeq	r0, r0, r8, rrx
 1e0:	0000006c 	andeq	r0, r0, ip, rrx
 1e4:	087d0002 	ldmdaeq	sp!, {r1}^
 1e8:	0000006c 	andeq	r0, r0, ip, rrx
 1ec:	000000c0 	andeq	r0, r0, r0, asr #1
 1f0:	047b0002 	ldrbteq	r0, [fp], #-2
	...
 1fc:	000000c0 	andeq	r0, r0, r0, asr #1
 200:	000000c4 	andeq	r0, r0, r4, asr #1
 204:	007d0002 	rsbseq	r0, sp, r2
 208:	000000c4 	andeq	r0, r0, r4, asr #1
 20c:	000000c8 	andeq	r0, r0, r8, asr #1
 210:	087d0002 	ldmdaeq	sp!, {r1}^
 214:	000000c8 	andeq	r0, r0, r8, asr #1
 218:	0000010c 	andeq	r0, r0, ip, lsl #2
 21c:	047b0002 	ldrbteq	r0, [fp], #-2
	...
 22c:	00000004 	andeq	r0, r0, r4
 230:	007d0002 	rsbseq	r0, sp, r2
 234:	00000004 	andeq	r0, r0, r4
 238:	00000008 	andeq	r0, r0, r8
 23c:	047d0002 	ldrbteq	r0, [sp], #-2
 240:	00000008 	andeq	r0, r0, r8
 244:	00000070 	andeq	r0, r0, r0, ror r0
 248:	047b0002 	ldrbteq	r0, [fp], #-2
	...
 254:	00000070 	andeq	r0, r0, r0, ror r0
 258:	00000074 	andeq	r0, r0, r4, ror r0
 25c:	007d0002 	rsbseq	r0, sp, r2
 260:	00000074 	andeq	r0, r0, r4, ror r0
 264:	00000078 	andeq	r0, r0, r8, ror r0
 268:	087d0002 	ldmdaeq	sp!, {r1}^
 26c:	00000078 	andeq	r0, r0, r8, ror r0
 270:	00000228 	andeq	r0, r0, r8, lsr #4
 274:	047b0002 	ldrbteq	r0, [fp], #-2
	...

Disassembly of section .debug_str:

00000000 <.debug_str>:
   0:	75625f5f 	strbvc	r5, [r2, #-3935]!	; 0xf5f
   4:	69746c69 	ldmdbvs	r4!, {r0, r3, r5, r6, sl, fp, sp, lr}^
   8:	61765f6e 	cmnvs	r6, lr, ror #30
   c:	73696c5f 	cmnvc	r9, #24320	; 0x5f00
  10:	69730074 	ldmdbvs	r3!, {r2, r4, r5, r6}^
  14:	656c706d 	strbvs	r7, [ip, #-109]!	; 0x6d
  18:	7274735f 	rsbsvc	r7, r4, #2080374785	; 0x7c000001
  1c:	6c756f74 	ldclvs	15, cr6, [r5], #-464	; 0xfffffe30
  20:	6c617600 	stclvs	6, cr7, [r1]
  24:	63006575 	movwvs	r6, #1397	; 0x575
  28:	746e756f 	strbtvc	r7, [lr], #-1391	; 0x56f
  2c:	5c3a4500 	cfldr32pl	mvfx4, [sl]
  30:	696c6365 	stmdbvs	ip!, {r0, r2, r5, r6, r8, r9, sp, lr}^
  34:	5f657370 	svcpl	0x00657370
  38:	6a6f7270 	bvs	1bdca00 <_start-0x3e42b600>
  3c:	73746365 	cmnvc	r4, #-1811939327	; 0x94000001
  40:	53554d5c 	cmppl	r5, #5888	; 0x1700
  44:	5f004349 	svcpl	0x00004349
  48:	756f745f 	strbvc	r7, [pc, #-1119]!	; fffffbf1 <Num+0xbfff58f9>
  4c:	72657070 	rsbvc	r7, r5, #112	; 0x70
  50:	70657200 	rsbvc	r7, r5, r0, lsl #4
  54:	00746165 	rsbseq	r6, r4, r5, ror #2
  58:	6e675f5f 	mcrvs	15, 3, r5, cr7, cr15, {2}
  5c:	765f6375 			; <UNDEFINED> instruction: 0x765f6375
  60:	696c5f61 	stmdbvs	ip!, {r0, r5, r6, r8, r9, sl, fp, ip, lr}^
  64:	70007473 	andvc	r7, r0, r3, ror r4
  68:	69636572 	stmdbvs	r3!, {r1, r4, r5, r6, r8, sl, sp, lr}^
  6c:	6e6f6973 	mcrvs	9, 3, r6, cr15, cr3, {3}
  70:	736e7500 	cmnvc	lr, #0
  74:	656e6769 	strbvs	r6, [lr, #-1897]!	; 0x769
  78:	68632064 	stmdavs	r3!, {r2, r5, r6, sp}^
  7c:	62007261 	andvs	r7, r0, #268435462	; 0x10000006
  80:	00657361 	rsbeq	r7, r5, r1, ror #6
  84:	20554e47 	subscs	r4, r5, r7, asr #28
  88:	2e342043 	cdpcs	0, 3, cr2, cr4, cr3, {2}
  8c:	00322e36 	eorseq	r2, r2, r6, lsr lr
  90:	676e6f6c 	strbvs	r6, [lr, -ip, ror #30]!
  94:	736e7520 	cmnvc	lr, #134217728	; 0x8000000
  98:	656e6769 	strbvs	r6, [lr, #-1897]!	; 0x769
  9c:	6e692064 	cdpvs	0, 6, cr2, cr9, cr4, {3}
  a0:	69730074 	ldmdbvs	r3!, {r2, r4, r5, r6}^
  a4:	656c706d 	strbvs	r7, [ip, #-109]!	; 0x6d
  a8:	7274735f 	rsbsvc	r7, r4, #2080374785	; 0x7c000001
  ac:	006c6f74 	rsbeq	r6, ip, r4, ror pc
  b0:	6d6d6f63 	stclvs	15, cr6, [sp, #-396]!	; 0xfffffe74
  b4:	732f6e6f 	teqvc	pc, #1776	; 0x6f0
  b8:	702f6372 	eorvc	r6, pc, r2, ror r3	; <UNPREDICTABLE>
  bc:	746e6972 	strbtvc	r6, [lr], #-2418	; 0x972
  c0:	00632e66 	rsbeq	r2, r3, r6, ror #28
  c4:	67616c66 	strbvs	r6, [r1, -r6, ror #24]!
  c8:	75710073 	ldrbvc	r0, [r1, #-115]!	; 0x73
  cc:	66696c61 	strbtvs	r6, [r9], -r1, ror #24
  d0:	00726569 	rsbseq	r6, r2, r9, ror #10
  d4:	75736572 	ldrbvc	r6, [r3, #-1394]!	; 0x572
  d8:	7300746c 	movwvc	r7, #1132	; 0x46c
  dc:	5f70696b 	svcpl	0x0070696b
  e0:	696f7461 	stmdbvs	pc!, {r0, r5, r6, sl, ip, sp, lr}^	; <UNPREDICTABLE>
  e4:	72747300 	rsbsvc	r7, r4, #0
  e8:	6e656c6e 	cdpvs	12, 6, cr6, cr5, cr14, {3}
  ec:	646e6500 	strbtvs	r6, [lr], #-1280	; 0x500
  f0:	635f0070 	cmpvs	pc, #112	; 0x70
  f4:	65707974 	ldrbvs	r7, [r0, #-2420]!	; 0x974
  f8:	67696400 	strbvs	r6, [r9, -r0, lsl #8]!
  fc:	00737469 	rsbseq	r7, r3, r9, ror #8
 100:	6e697270 	mcrvs	2, 3, r7, cr9, cr0, {3}
 104:	66756274 			; <UNDEFINED> instruction: 0x66756274
 108:	00726566 	rsbseq	r6, r2, r6, ror #10
 10c:	6c656966 	stclvs	9, cr6, [r5], #-408	; 0xfffffe68
 110:	69775f64 	ldmdbvs	r7!, {r2, r5, r6, r8, r9, sl, fp, ip, lr}^
 114:	00687464 	rsbeq	r7, r8, r4, ror #8
 118:	73677261 	cmnvc	r7, #268435462	; 0x10000006
 11c:	6d756e00 	ldclvs	14, cr6, [r5]
 120:	00726562 	rsbseq	r6, r2, r2, ror #10
 124:	676e6f6c 	strbvs	r6, [lr, -ip, ror #30]!
 128:	746e6920 	strbtvc	r6, [lr], #-2336	; 0x920
 12c:	67697300 	strbvs	r7, [r9, -r0, lsl #6]!
 130:	5f5f006e 	svcpl	0x005f006e
 134:	00736572 	rsbseq	r6, r3, r2, ror r5
 138:	657a6973 	ldrbvs	r6, [sl, #-2419]!	; 0x973
 13c:	70737600 	rsbsvc	r7, r3, r0, lsl #12
 140:	746e6972 	strbtvc	r6, [lr], #-2418	; 0x972
 144:	61750066 	cmnvs	r5, r6, rrx
 148:	00327472 	eorseq	r7, r2, r2, ror r4
 14c:	544e4955 	strbpl	r4, [lr], #-2389	; 0x955
 150:	55003250 	strpl	r3, [r0, #-592]	; 0x250
 154:	53544e49 	cmppl	r4, #1168	; 0x490
 158:	55003250 	strpl	r3, [r0, #-592]	; 0x250
 15c:	49445242 	stmdbmi	r4, {r1, r6, r9, ip, lr}^
 160:	70003256 	andvc	r3, r0, r6, asr r2
 164:	00727473 	rsbseq	r7, r2, r3, ror r4
 168:	54534655 	ldrbpl	r4, [r3], #-1621	; 0x655
 16c:	00325441 	eorseq	r5, r2, r1, asr #8
 170:	53525455 	cmppl	r2, #1426063360	; 0x55000000
 174:	32544154 	subscc	r4, r4, #21
 178:	72617500 	rsbvc	r7, r1, #0
 17c:	6e695f74 	mcrvs	15, 3, r5, cr9, cr4, {3}
 180:	64007469 	strvs	r7, [r0], #-1129	; 0x469
 184:	00617461 	rsbeq	r7, r1, r1, ror #8
 188:	4f434655 	svcmi	0x00434655
 18c:	5500324e 	strpl	r3, [r0, #-590]	; 0x24e
 190:	32485854 	subcc	r5, r8, #5505024	; 0x540000
 194:	4e4f4300 	cdpmi	3, 4, cr4, cr15, cr0, {0}
 198:	004e4450 	subeq	r4, lr, r0, asr r4
 19c:	4e4f4355 	mcrmi	3, 2, r4, cr15, cr5, {2}
 1a0:	4d550032 	ldclmi	0, cr0, [r5, #-200]	; 0xffffff38
 1a4:	54415453 	strbpl	r5, [r1], #-1107	; 0x453
 1a8:	49550032 	ldmdbmi	r5, {r1, r4, r5}^
 1ac:	324d544e 	subcc	r5, sp, #1308622848	; 0x4e000000
 1b0:	434c5500 	movtmi	r5, #50432	; 0xc500
 1b4:	00324e4f 	eorseq	r4, r2, pc, asr #28
 1b8:	31617067 	cmncc	r1, r7, rrx
 1bc:	74757000 	ldrbtvc	r7, [r5]
 1c0:	45550063 	ldrbmi	r0, [r5, #-99]	; 0x63
 1c4:	41545352 	cmpmi	r4, r2, asr r3
 1c8:	50003254 	andpl	r3, r0, r4, asr r2
 1cc:	44504455 	ldrbmi	r4, [r0], #-1109	; 0x455
 1d0:	6f63004e 	svcvs	0x0063004e
 1d4:	6e6f6d6d 	cdpvs	13, 6, cr6, cr15, cr13, {3}
 1d8:	6372732f 	cmnvs	r2, #-1140850688	; 0xbc000000
 1dc:	7261752f 	rsbvc	r7, r1, #197132288	; 0xbc00000
 1e0:	00632e74 	rsbeq	r2, r3, r4, ror lr
 1e4:	73747570 	cmnvc	r4, #469762048	; 0x1c000000
 1e8:	434d5500 	movtmi	r5, #54528	; 0xd500
 1ec:	00324e4f 	eorseq	r4, r2, pc, asr #28
 1f0:	48585255 	ldmdami	r8, {r0, r2, r4, r6, r9, ip, lr}^
 1f4:	46550032 			; <UNDEFINED> instruction: 0x46550032
 1f8:	56434152 			; <UNDEFINED> instruction: 0x56434152
 1fc:	00324c41 	eorseq	r4, r2, r1, asr #24
 200:	504d4354 	subpl	r4, sp, r4, asr r3
 204:	67003042 	strvs	r3, [r0, -r2, asr #32]
 208:	00306470 	eorseq	r6, r0, r0, ror r4
 20c:	504d4354 	subpl	r4, sp, r4, asr r3
 210:	54003142 	strpl	r3, [r0], #-322	; 0x142
 214:	42504d43 	subsmi	r4, r0, #4288	; 0x10c0
 218:	43540032 	cmpmi	r4, #50	; 0x32
 21c:	3342504d 	movtcc	r5, #8269	; 0x204d
 220:	73756d00 	cmnvc	r5, #0
 224:	632e6369 	teqvs	lr, #-1543503871	; 0xa4000001
 228:	69616d00 	stmdbvs	r1!, {r8, sl, fp, sp, lr}^
 22c:	4354006e 	cmpmi	r4, #110	; 0x6e
 230:	3142544e 	cmpcc	r2, lr, asr #8
 234:	4e435400 	cdpmi	4, 4, cr5, cr3, cr0, {0}
 238:	00324254 	eorseq	r4, r2, r4, asr r2
 23c:	544e4354 	strbpl	r4, [lr], #-852	; 0x354
 240:	54003342 	strpl	r3, [r0], #-834	; 0x342
 244:	30474643 	subcc	r4, r7, r3, asr #12
 248:	46435400 	strbmi	r5, [r3], -r0, lsl #8
 24c:	44003147 	strmi	r3, [r0], #-327	; 0x147
 250:	796c6165 	stmdbvc	ip!, {r0, r2, r5, r6, r8, sp, lr}^
 254:	00734d5f 	rsbseq	r4, r3, pc, asr sp
 258:	656d6954 	strbvs	r6, [sp, #-2388]!	; 0x954
 25c:	4f435400 	svcmi	0x00435400
 260:	4354004e 	cmpmi	r4, #78	; 0x4e
 264:	304f544e 	subcc	r5, pc, lr, asr #8
 268:	4e435400 	cdpmi	4, 4, cr5, cr3, cr0, {0}
 26c:	00314f54 	eorseq	r4, r1, r4, asr pc
 270:	544e4354 	strbpl	r4, [lr], #-852	; 0x354
 274:	5400324f 	strpl	r3, [r0], #-591	; 0x24f
 278:	4f544e43 	svcmi	0x00544e43
 27c:	43540033 	cmpmi	r4, #51	; 0x33
 280:	344f544e 	strbcc	r5, [pc], #-1102	; 288 <_start-0x40007d78>
 284:	4e495400 	cdpmi	4, 4, cr5, cr9, cr0, {0}
 288:	53435f54 	movtpl	r5, #16212	; 0x3f54
 28c:	00544154 	subseq	r4, r4, r4, asr r1
 290:	544e4354 	strbpl	r4, [lr], #-852	; 0x354
 294:	54003042 	strpl	r3, [r0], #-66	; 0x42
 298:	42544e43 	subsmi	r4, r4, #1072	; 0x430
 29c:	Address 0x0000029c is out of bounds.


Disassembly of section .debug_frame:

00000000 <.debug_frame>:
   0:	0000000c 	andeq	r0, r0, ip
   4:	ffffffff 			; <UNDEFINED> instruction: 0xffffffff
   8:	7c020001 	stcvc	0, cr0, [r2], {1}
   c:	000d0c0e 	andeq	r0, sp, lr, lsl #24
  10:	00000014 	andeq	r0, r0, r4, lsl r0
  14:	00000000 	andeq	r0, r0, r0
  18:	40008284 	andmi	r8, r0, r4, lsl #5
  1c:	00000050 	andeq	r0, r0, r0, asr r0
  20:	8b040e42 	blhi	103930 <_start-0x3ff046d0>
  24:	0b0d4201 	bleq	350830 <_start-0x3fcb77d0>
  28:	00000018 	andeq	r0, r0, r8, lsl r0
  2c:	00000000 	andeq	r0, r0, r0
  30:	400082d4 	ldrdmi	r8, [r0], -r4
  34:	000001a8 	andeq	r0, r0, r8, lsr #3
  38:	8e080e42 	cdphi	14, 0, cr0, cr8, cr2, {2}
  3c:	42028b01 	andmi	r8, r2, #1024	; 0x400
  40:	00040b0c 	andeq	r0, r4, ip, lsl #22
  44:	00000018 	andeq	r0, r0, r8, lsl r0
  48:	00000000 	andeq	r0, r0, r0
  4c:	4000847c 	andmi	r8, r0, ip, ror r4
  50:	00000070 	andeq	r0, r0, r0, ror r0
  54:	8e080e42 	cdphi	14, 0, cr0, cr8, cr2, {2}
  58:	42028b01 	andmi	r8, r2, #1024	; 0x400
  5c:	00040b0c 	andeq	r0, r4, ip, lsl #22
  60:	00000014 	andeq	r0, r0, r4, lsl r0
  64:	00000000 	andeq	r0, r0, r0
  68:	400084ec 	andmi	r8, r0, ip, ror #9
  6c:	00000094 	muleq	r0, r4, r0
  70:	8b040e42 	blhi	103980 <_start-0x3ff04680>
  74:	0b0d4201 	bleq	350880 <_start-0x3fcb7780>
  78:	00000018 	andeq	r0, r0, r8, lsl r0
  7c:	00000000 	andeq	r0, r0, r0
  80:	40008580 	andmi	r8, r0, r0, lsl #11
  84:	00000498 	muleq	r0, r8, r4
  88:	8e080e42 	cdphi	14, 0, cr0, cr8, cr2, {2}
  8c:	42028b01 	andmi	r8, r2, #1024	; 0x400
  90:	00040b0c 	andeq	r0, r4, ip, lsl #22
  94:	00000014 	andeq	r0, r0, r4, lsl r0
  98:	00000000 	andeq	r0, r0, r0
  9c:	40008a18 	andmi	r8, r0, r8, lsl sl
  a0:	00000080 	andeq	r0, r0, r0, lsl #1
  a4:	8b040e42 	blhi	1039b4 <_start-0x3ff0464c>
  a8:	0b0d4201 	bleq	3508b4 <_start-0x3fcb774c>
  ac:	00000018 	andeq	r0, r0, r8, lsl r0
  b0:	00000000 	andeq	r0, r0, r0
  b4:	40008a98 	mulmi	r0, r8, sl
  b8:	00000938 	andeq	r0, r0, r8, lsr r9
  bc:	8e080e42 	cdphi	14, 0, cr0, cr8, cr2, {2}
  c0:	42028b01 	andmi	r8, r2, #1024	; 0x400
  c4:	00040b0c 	andeq	r0, r4, ip, lsl #22
  c8:	00000020 	andeq	r0, r0, r0, lsr #32
  cc:	00000000 	andeq	r0, r0, r0
  d0:	400093d0 	ldrdmi	r9, [r0], -r0
  d4:	00000050 	andeq	r0, r0, r0, asr r0
  d8:	830c0e42 	movwhi	r0, #52802	; 0xce42
  dc:	81028201 	tsthi	r2, r1, lsl #4
  e0:	140e4203 	strne	r4, [lr], #-515	; 0x203
  e4:	058b048e 	streq	r0, [fp, #1166]	; 0x48e
  e8:	100b0c42 	andne	r0, fp, r2, asr #24
  ec:	00000024 	andeq	r0, r0, r4, lsr #32
  f0:	00000000 	andeq	r0, r0, r0
  f4:	40009420 	andmi	r9, r0, r0, lsr #8
  f8:	00000058 	andeq	r0, r0, r8, asr r0
  fc:	83100e42 	tsthi	r0, #1056	; 0x420
 100:	81028201 	tsthi	r2, r1, lsl #4
 104:	42048003 	andmi	r8, r4, #3
 108:	058e180e 	streq	r1, [lr, #2062]	; 0x80e
 10c:	0c42068b 	mcrreq	6, 8, r0, r2, cr11
 110:	0000140b 	andeq	r1, r0, fp, lsl #8
 114:	0000000c 	andeq	r0, r0, ip
 118:	ffffffff 			; <UNDEFINED> instruction: 0xffffffff
 11c:	7c020001 	stcvc	0, cr0, [r2], {1}
 120:	000d0c0e 	andeq	r0, sp, lr, lsl #24
 124:	00000014 	andeq	r0, r0, r4, lsl r0
 128:	00000114 	andeq	r0, r0, r4, lsl r1
 12c:	40009478 	andmi	r9, r0, r8, ror r4
 130:	00000064 	andeq	r0, r0, r4, rrx
 134:	8b040e42 	blhi	103a44 <_start-0x3ff045bc>
 138:	0b0d4201 	bleq	350944 <_start-0x3fcb76bc>
 13c:	00000018 	andeq	r0, r0, r8, lsl r0
 140:	00000114 	andeq	r0, r0, r4, lsl r1
 144:	400094dc 	ldrdmi	r9, [r0], -ip
 148:	0000005c 	andeq	r0, r0, ip, asr r0
 14c:	8e080e42 	cdphi	14, 0, cr0, cr8, cr2, {2}
 150:	42028b01 	andmi	r8, r2, #1024	; 0x400
 154:	00040b0c 	andeq	r0, r4, ip, lsl #22
 158:	00000018 	andeq	r0, r0, r8, lsl r0
 15c:	00000114 	andeq	r0, r0, r4, lsl r1
 160:	40009538 	andmi	r9, r0, r8, lsr r5
 164:	0000004c 	andeq	r0, r0, ip, asr #32
 168:	8e080e42 	cdphi	14, 0, cr0, cr8, cr2, {2}
 16c:	42028b01 	andmi	r8, r2, #1024	; 0x400
 170:	00040b0c 	andeq	r0, r4, ip, lsl #22
 174:	0000000c 	andeq	r0, r0, ip
 178:	ffffffff 			; <UNDEFINED> instruction: 0xffffffff
 17c:	7c020001 	stcvc	0, cr0, [r2], {1}
 180:	000d0c0e 	andeq	r0, sp, lr, lsl #24
 184:	00000014 	andeq	r0, r0, r4, lsl r0
 188:	00000174 	andeq	r0, r0, r4, ror r1
 18c:	40009584 	andmi	r9, r0, r4, lsl #11
 190:	00000070 	andeq	r0, r0, r0, ror r0
 194:	8b040e42 	blhi	103aa4 <_start-0x3ff0455c>
 198:	0b0d4201 	bleq	3509a4 <_start-0x3fcb765c>
 19c:	00000018 	andeq	r0, r0, r8, lsl r0
 1a0:	00000174 	andeq	r0, r0, r4, ror r1
 1a4:	400095f4 	strdmi	r9, [r0], -r4
 1a8:	000001b8 			; <UNDEFINED> instruction: 0x000001b8
 1ac:	8e080e42 	cdphi	14, 0, cr0, cr8, cr2, {2}
 1b0:	42028b01 	andmi	r8, r2, #1024	; 0x400
 1b4:	00040b0c 	andeq	r0, r4, ip, lsl #22
