
key_int.elf:     file format elf32-littlearm


Disassembly of section .text:

40008000 <_start>:
40008000:	ea00000d 	b	4000803c <reset>
40008004:	e59ff014 	ldr	pc, [pc, #20]	; 40008020 <_undefined_instruction>
40008008:	e59ff014 	ldr	pc, [pc, #20]	; 40008024 <_software_interrupt>
4000800c:	e59ff014 	ldr	pc, [pc, #20]	; 40008028 <_prefetch_abort>
40008010:	e59ff014 	ldr	pc, [pc, #20]	; 4000802c <_data_abort>
40008014:	e59ff014 	ldr	pc, [pc, #20]	; 40008030 <_not_used>
40008018:	e59ff014 	ldr	pc, [pc, #20]	; 40008034 <_irq>
4000801c:	e59ff014 	ldr	pc, [pc, #20]	; 40008038 <_fiq>

40008020 <_undefined_instruction>:
40008020:	40008020 	andmi	r8, r0, r0, lsr #32

40008024 <_software_interrupt>:
40008024:	40008024 	andmi	r8, r0, r4, lsr #32

40008028 <_prefetch_abort>:
40008028:	40008028 	andmi	r8, r0, r8, lsr #32

4000802c <_data_abort>:
4000802c:	4000802c 	andmi	r8, r0, ip, lsr #32

40008030 <_not_used>:
40008030:	40008030 	andmi	r8, r0, r0, lsr r0

40008034 <_irq>:
40008034:	40008110 	andmi	r8, r0, r0, lsl r1

40008038 <_fiq>:
40008038:	40008038 	andmi	r8, r0, r8, lsr r0

4000803c <reset>:
4000803c:	e59f00e0 	ldr	r0, [pc, #224]	; 40008124 <stacktop+0x4>
40008040:	ee0c0f10 	mcr	15, 0, r0, cr12, cr0, {0}
40008044:	e10f0000 	mrs	r0, CPSR
40008048:	e3c0001f 	bic	r0, r0, #31
4000804c:	e38000d3 	orr	r0, r0, #211	; 0xd3
40008050:	e129f000 	msr	CPSR_fc, r0
40008054:	e3e0020f 	mvn	r0, #-268435456	; 0xf0000000
40008058:	ee010f50 	mcr	15, 0, r0, cr1, cr0, {2}
4000805c:	e3a00000 	mov	r0, #0
40008060:	ee080f17 	mcr	15, 0, r0, cr8, cr7, {0}
40008064:	ee070f15 	mcr	15, 0, r0, cr7, cr5, {0}
40008068:	e3a03101 	mov	r3, #1073741824	; 0x40000000
4000806c:	eee83a10 	vmsr	fpexc, r3
40008070:	ee110f10 	mrc	15, 0, r0, cr1, cr0, {0}
40008074:	e3c00a02 	bic	r0, r0, #8192	; 0x2000
40008078:	e3c00007 	bic	r0, r0, #7
4000807c:	e3800a01 	orr	r0, r0, #4096	; 0x1000
40008080:	e3800002 	orr	r0, r0, #2
40008084:	e3800b02 	orr	r0, r0, #2048	; 0x800
40008088:	ee010f10 	mcr	15, 0, r0, cr1, cr0, {0}
4000808c:	e59f0094 	ldr	r0, [pc, #148]	; 40008128 <stacktop+0x8>
40008090:	e5901000 	ldr	r1, [r0]
40008094:	e3c1180f 	bic	r1, r1, #983040	; 0xf0000
40008098:	e3811801 	orr	r1, r1, #65536	; 0x10000
4000809c:	e5801000 	str	r1, [r0]
400080a0:	e59f0084 	ldr	r0, [pc, #132]	; 4000812c <stacktop+0xc>
400080a4:	e5901000 	ldr	r1, [r0]
400080a8:	e3c11c03 	bic	r1, r1, #768	; 0x300
400080ac:	e5801000 	str	r1, [r0]
400080b0:	e59f0078 	ldr	r0, [pc, #120]	; 40008130 <stacktop+0x10>
400080b4:	e5901000 	ldr	r1, [r0]
400080b8:	e3811010 	orr	r1, r1, #16
400080bc:	e5801000 	str	r1, [r0]

400080c0 <init_stack>:
400080c0:	e59f0058 	ldr	r0, [pc, #88]	; 40008120 <stacktop>
400080c4:	e1a0d000 	mov	sp, r0
400080c8:	e2400c02 	sub	r0, r0, #512	; 0x200
400080cc:	e329f0d2 	msr	CPSR_fc, #210	; 0xd2
400080d0:	e1a0d000 	mov	sp, r0
400080d4:	e2400c02 	sub	r0, r0, #512	; 0x200
400080d8:	e329f0d1 	msr	CPSR_fc, #209	; 0xd1
400080dc:	e1a0d000 	mov	sp, r0
400080e0:	e2400000 	sub	r0, r0, #0
400080e4:	e329f0d7 	msr	CPSR_fc, #215	; 0xd7
400080e8:	e1a0d000 	mov	sp, r0
400080ec:	e2400000 	sub	r0, r0, #0
400080f0:	e329f0db 	msr	CPSR_fc, #219	; 0xdb
400080f4:	e1a0d000 	mov	sp, r0
400080f8:	e2400000 	sub	r0, r0, #0
400080fc:	e329f010 	msr	CPSR_fc, #16
40008100:	e1a0d000 	mov	sp, r0
40008104:	ea000562 	b	40009694 <main>
40008108:	e1a00000 	nop			; (mov r0, r0)
4000810c:	e1a00000 	nop			; (mov r0, r0)

40008110 <irq_handler>:
40008110:	e24ee004 	sub	lr, lr, #4
40008114:	e92d5fff 	push	{r0, r1, r2, r3, r4, r5, r6, r7, r8, r9, sl, fp, ip, lr}
40008118:	eb000519 	bl	40009584 <do_irq>
4000811c:	e8fd9fff 	ldm	sp!, {r0, r1, r2, r3, r4, r5, r6, r7, r8, r9, sl, fp, ip, pc}^

40008120 <stacktop>:
40008120:	40009fd8 	ldrdmi	r9, [r0], -r8
40008124:	40008000 	andmi	r8, r0, r0
40008128:	114001e0 	smlalttne	r0, r0, r0, r1	; <UNPREDICTABLE>
4000812c:	114001e8 	smlalttne	r0, r0, r8, r1	; <UNPREDICTABLE>
40008130:	114001e4 	smlalttne	r0, r0, r4, r1	; <UNPREDICTABLE>
40008134:	e1a00000 	nop			; (mov r0, r0)
40008138:	e1a00000 	nop			; (mov r0, r0)
4000813c:	e1a00000 	nop			; (mov r0, r0)

40008140 <__udivsi3>:
40008140:	e3510000 	cmp	r1, #0
40008144:	0a00001f 	beq	400081c8 <Ldiv0>
40008148:	e3a03001 	mov	r3, #1
4000814c:	e3a02000 	mov	r2, #0
40008150:	e1500001 	cmp	r0, r1
40008154:	3a000019 	bcc	400081c0 <Lgot_result>

40008158 <Loop1>:
40008158:	e3510201 	cmp	r1, #268435456	; 0x10000000
4000815c:	31510000 	cmpcc	r1, r0
40008160:	31a01201 	lslcc	r1, r1, #4
40008164:	31a03203 	lslcc	r3, r3, #4
40008168:	3afffffa 	bcc	40008158 <Loop1>

4000816c <Lbignum>:
4000816c:	e3510102 	cmp	r1, #-2147483648	; 0x80000000
40008170:	31510000 	cmpcc	r1, r0
40008174:	31a01081 	lslcc	r1, r1, #1
40008178:	31a03083 	lslcc	r3, r3, #1
4000817c:	3afffffa 	bcc	4000816c <Lbignum>

40008180 <Loop3>:
40008180:	e1500001 	cmp	r0, r1
40008184:	20400001 	subcs	r0, r0, r1
40008188:	21822003 	orrcs	r2, r2, r3
4000818c:	e15000a1 	cmp	r0, r1, lsr #1
40008190:	204000a1 	subcs	r0, r0, r1, lsr #1
40008194:	218220a3 	orrcs	r2, r2, r3, lsr #1
40008198:	e1500121 	cmp	r0, r1, lsr #2
4000819c:	20400121 	subcs	r0, r0, r1, lsr #2
400081a0:	21822123 	orrcs	r2, r2, r3, lsr #2
400081a4:	e15001a1 	cmp	r0, r1, lsr #3
400081a8:	204001a1 	subcs	r0, r0, r1, lsr #3
400081ac:	218221a3 	orrcs	r2, r2, r3, lsr #3
400081b0:	e3500000 	cmp	r0, #0
400081b4:	11b03223 	lsrsne	r3, r3, #4
400081b8:	11a01221 	lsrne	r1, r1, #4
400081bc:	1affffef 	bne	40008180 <Loop3>

400081c0 <Lgot_result>:
400081c0:	e1a00002 	mov	r0, r2
400081c4:	e1a0f00e 	mov	pc, lr

400081c8 <Ldiv0>:
400081c8:	e52de004 	push	{lr}		; (str lr, [sp, #-4]!)
400081cc:	e3a00000 	mov	r0, #0
400081d0:	e8bd8000 	pop	{pc}

400081d4 <__umodsi3>:
400081d4:	e3510000 	cmp	r1, #0
400081d8:	0a000026 	beq	40008278 <Ldiv0>
400081dc:	e3a03001 	mov	r3, #1
400081e0:	e1500001 	cmp	r0, r1
400081e4:	31a0f00e 	movcc	pc, lr

400081e8 <Loop1>:
400081e8:	e3510201 	cmp	r1, #268435456	; 0x10000000
400081ec:	31510000 	cmpcc	r1, r0
400081f0:	31a01201 	lslcc	r1, r1, #4
400081f4:	31a03203 	lslcc	r3, r3, #4
400081f8:	3afffffa 	bcc	400081e8 <Loop1>

400081fc <Lbignum>:
400081fc:	e3510102 	cmp	r1, #-2147483648	; 0x80000000
40008200:	31510000 	cmpcc	r1, r0
40008204:	31a01081 	lslcc	r1, r1, #1
40008208:	31a03083 	lslcc	r3, r3, #1
4000820c:	3afffffa 	bcc	400081fc <Lbignum>

40008210 <Loop3>:
40008210:	e3a02000 	mov	r2, #0
40008214:	e1500001 	cmp	r0, r1
40008218:	20400001 	subcs	r0, r0, r1
4000821c:	e15000a1 	cmp	r0, r1, lsr #1
40008220:	204000a1 	subcs	r0, r0, r1, lsr #1
40008224:	218220e3 	orrcs	r2, r2, r3, ror #1
40008228:	e1500121 	cmp	r0, r1, lsr #2
4000822c:	20400121 	subcs	r0, r0, r1, lsr #2
40008230:	21822163 	orrcs	r2, r2, r3, ror #2
40008234:	e15001a1 	cmp	r0, r1, lsr #3
40008238:	204001a1 	subcs	r0, r0, r1, lsr #3
4000823c:	218221e3 	orrcs	r2, r2, r3, ror #3
40008240:	e1a0c003 	mov	ip, r3
40008244:	e3500000 	cmp	r0, #0
40008248:	11b03223 	lsrsne	r3, r3, #4
4000824c:	11a01221 	lsrne	r1, r1, #4
40008250:	1affffee 	bne	40008210 <Loop3>
40008254:	e212220e 	ands	r2, r2, #-536870912	; 0xe0000000
40008258:	01a0f00e 	moveq	pc, lr
4000825c:	e11201ec 	tst	r2, ip, ror #3
40008260:	108001a1 	addne	r0, r0, r1, lsr #3
40008264:	e112016c 	tst	r2, ip, ror #2
40008268:	10800121 	addne	r0, r0, r1, lsr #2
4000826c:	e11200ec 	tst	r2, ip, ror #1
40008270:	108000a1 	addne	r0, r0, r1, lsr #1
40008274:	e1a0f00e 	mov	pc, lr

40008278 <Ldiv0>:
40008278:	e52de004 	push	{lr}		; (str lr, [sp, #-4]!)
4000827c:	e3a00000 	mov	r0, #0
40008280:	e8bd8000 	pop	{pc}

40008284 <__toupper>:
40008284:	e52db004 	push	{fp}		; (str fp, [sp, #-4]!)
40008288:	e28db000 	add	fp, sp, #0
4000828c:	e24dd004 	sub	sp, sp, #4
40008290:	e1a03000 	mov	r3, r0
40008294:	e54b3004 	strb	r3, [fp, #-4]
40008298:	e55b3004 	ldrb	r3, [fp, #-4]
4000829c:	e59f202c 	ldr	r2, [pc, #44]	; 400082d0 <__toupper+0x4c>
400082a0:	e7d23003 	ldrb	r3, [r2, r3]
400082a4:	e2033002 	and	r3, r3, #2
400082a8:	e3530000 	cmp	r3, #0
400082ac:	0a000002 	beq	400082bc <__toupper+0x38>
400082b0:	e55b3004 	ldrb	r3, [fp, #-4]
400082b4:	e2433020 	sub	r3, r3, #32
400082b8:	e54b3004 	strb	r3, [fp, #-4]
400082bc:	e55b3004 	ldrb	r3, [fp, #-4]
400082c0:	e1a00003 	mov	r0, r3
400082c4:	e28bd000 	add	sp, fp, #0
400082c8:	e8bd0800 	pop	{fp}
400082cc:	e12fff1e 	bx	lr
400082d0:	40009fd8 	ldrdmi	r9, [r0], -r8

400082d4 <simple_strtoul>:
400082d4:	e92d4800 	push	{fp, lr}
400082d8:	e28db004 	add	fp, sp, #4
400082dc:	e24dd014 	sub	sp, sp, #20
400082e0:	e50b0010 	str	r0, [fp, #-16]
400082e4:	e50b1014 	str	r1, [fp, #-20]
400082e8:	e50b2018 	str	r2, [fp, #-24]
400082ec:	e3a03000 	mov	r3, #0
400082f0:	e50b3008 	str	r3, [fp, #-8]
400082f4:	e51b3010 	ldr	r3, [fp, #-16]
400082f8:	e5d33000 	ldrb	r3, [r3]
400082fc:	e3530030 	cmp	r3, #48	; 0x30
40008300:	1a000018 	bne	40008368 <simple_strtoul+0x94>
40008304:	e51b3010 	ldr	r3, [fp, #-16]
40008308:	e2833001 	add	r3, r3, #1
4000830c:	e50b3010 	str	r3, [fp, #-16]
40008310:	e51b3010 	ldr	r3, [fp, #-16]
40008314:	e5d33000 	ldrb	r3, [r3]
40008318:	e3530078 	cmp	r3, #120	; 0x78
4000831c:	1a00000c 	bne	40008354 <simple_strtoul+0x80>
40008320:	e51b3010 	ldr	r3, [fp, #-16]
40008324:	e2833001 	add	r3, r3, #1
40008328:	e5d33000 	ldrb	r3, [r3]
4000832c:	e59f2144 	ldr	r2, [pc, #324]	; 40008478 <simple_strtoul+0x1a4>
40008330:	e7d23003 	ldrb	r3, [r2, r3]
40008334:	e2033044 	and	r3, r3, #68	; 0x44
40008338:	e3530000 	cmp	r3, #0
4000833c:	0a000004 	beq	40008354 <simple_strtoul+0x80>
40008340:	e3a03010 	mov	r3, #16
40008344:	e50b3018 	str	r3, [fp, #-24]
40008348:	e51b3010 	ldr	r3, [fp, #-16]
4000834c:	e2833001 	add	r3, r3, #1
40008350:	e50b3010 	str	r3, [fp, #-16]
40008354:	e51b3018 	ldr	r3, [fp, #-24]
40008358:	e3530000 	cmp	r3, #0
4000835c:	1a000001 	bne	40008368 <simple_strtoul+0x94>
40008360:	e3a03008 	mov	r3, #8
40008364:	e50b3018 	str	r3, [fp, #-24]
40008368:	e51b3018 	ldr	r3, [fp, #-24]
4000836c:	e3530000 	cmp	r3, #0
40008370:	1a00000c 	bne	400083a8 <simple_strtoul+0xd4>
40008374:	e3a0300a 	mov	r3, #10
40008378:	e50b3018 	str	r3, [fp, #-24]
4000837c:	ea000009 	b	400083a8 <simple_strtoul+0xd4>
40008380:	e51b3008 	ldr	r3, [fp, #-8]
40008384:	e51b2018 	ldr	r2, [fp, #-24]
40008388:	e0020293 	mul	r2, r3, r2
4000838c:	e51b300c 	ldr	r3, [fp, #-12]
40008390:	e0823003 	add	r3, r2, r3
40008394:	e50b3008 	str	r3, [fp, #-8]
40008398:	e51b3010 	ldr	r3, [fp, #-16]
4000839c:	e2833001 	add	r3, r3, #1
400083a0:	e50b3010 	str	r3, [fp, #-16]
400083a4:	ea000000 	b	400083ac <simple_strtoul+0xd8>
400083a8:	e1a00000 	nop			; (mov r0, r0)
400083ac:	e51b3010 	ldr	r3, [fp, #-16]
400083b0:	e5d33000 	ldrb	r3, [r3]
400083b4:	e59f20bc 	ldr	r2, [pc, #188]	; 40008478 <simple_strtoul+0x1a4>
400083b8:	e7d23003 	ldrb	r3, [r2, r3]
400083bc:	e2033044 	and	r3, r3, #68	; 0x44
400083c0:	e3530000 	cmp	r3, #0
400083c4:	0a000020 	beq	4000844c <simple_strtoul+0x178>
400083c8:	e51b3010 	ldr	r3, [fp, #-16]
400083cc:	e5d33000 	ldrb	r3, [r3]
400083d0:	e59f20a0 	ldr	r2, [pc, #160]	; 40008478 <simple_strtoul+0x1a4>
400083d4:	e7d23003 	ldrb	r3, [r2, r3]
400083d8:	e2033004 	and	r3, r3, #4
400083dc:	e3530000 	cmp	r3, #0
400083e0:	0a000003 	beq	400083f4 <simple_strtoul+0x120>
400083e4:	e51b3010 	ldr	r3, [fp, #-16]
400083e8:	e5d33000 	ldrb	r3, [r3]
400083ec:	e2433030 	sub	r3, r3, #48	; 0x30
400083f0:	ea000010 	b	40008438 <simple_strtoul+0x164>
400083f4:	e51b3010 	ldr	r3, [fp, #-16]
400083f8:	e5d33000 	ldrb	r3, [r3]
400083fc:	e59f2074 	ldr	r2, [pc, #116]	; 40008478 <simple_strtoul+0x1a4>
40008400:	e7d23003 	ldrb	r3, [r2, r3]
40008404:	e2033002 	and	r3, r3, #2
40008408:	e3530000 	cmp	r3, #0
4000840c:	0a000006 	beq	4000842c <simple_strtoul+0x158>
40008410:	e51b3010 	ldr	r3, [fp, #-16]
40008414:	e5d33000 	ldrb	r3, [r3]
40008418:	e1a00003 	mov	r0, r3
4000841c:	ebffff98 	bl	40008284 <__toupper>
40008420:	e1a03000 	mov	r3, r0
40008424:	e2433037 	sub	r3, r3, #55	; 0x37
40008428:	ea000002 	b	40008438 <simple_strtoul+0x164>
4000842c:	e51b3010 	ldr	r3, [fp, #-16]
40008430:	e5d33000 	ldrb	r3, [r3]
40008434:	e2433037 	sub	r3, r3, #55	; 0x37
40008438:	e50b300c 	str	r3, [fp, #-12]
4000843c:	e51b200c 	ldr	r2, [fp, #-12]
40008440:	e51b3018 	ldr	r3, [fp, #-24]
40008444:	e1520003 	cmp	r2, r3
40008448:	3affffcc 	bcc	40008380 <simple_strtoul+0xac>
4000844c:	e51b3014 	ldr	r3, [fp, #-20]
40008450:	e3530000 	cmp	r3, #0
40008454:	0a000002 	beq	40008464 <simple_strtoul+0x190>
40008458:	e51b3014 	ldr	r3, [fp, #-20]
4000845c:	e51b2010 	ldr	r2, [fp, #-16]
40008460:	e5832000 	str	r2, [r3]
40008464:	e51b3008 	ldr	r3, [fp, #-8]
40008468:	e1a00003 	mov	r0, r3
4000846c:	e24bd004 	sub	sp, fp, #4
40008470:	e8bd4800 	pop	{fp, lr}
40008474:	e12fff1e 	bx	lr
40008478:	40009fd8 	ldrdmi	r9, [r0], -r8

4000847c <simple_strtol>:
4000847c:	e92d4800 	push	{fp, lr}
40008480:	e28db004 	add	fp, sp, #4
40008484:	e24dd00c 	sub	sp, sp, #12
40008488:	e50b0008 	str	r0, [fp, #-8]
4000848c:	e50b100c 	str	r1, [fp, #-12]
40008490:	e50b2010 	str	r2, [fp, #-16]
40008494:	e51b3008 	ldr	r3, [fp, #-8]
40008498:	e5d33000 	ldrb	r3, [r3]
4000849c:	e353002d 	cmp	r3, #45	; 0x2d
400084a0:	1a000008 	bne	400084c8 <simple_strtol+0x4c>
400084a4:	e51b3008 	ldr	r3, [fp, #-8]
400084a8:	e2833001 	add	r3, r3, #1
400084ac:	e1a00003 	mov	r0, r3
400084b0:	e51b100c 	ldr	r1, [fp, #-12]
400084b4:	e51b2010 	ldr	r2, [fp, #-16]
400084b8:	ebffff85 	bl	400082d4 <simple_strtoul>
400084bc:	e1a03000 	mov	r3, r0
400084c0:	e2633000 	rsb	r3, r3, #0
400084c4:	ea000004 	b	400084dc <simple_strtol+0x60>
400084c8:	e51b0008 	ldr	r0, [fp, #-8]
400084cc:	e51b100c 	ldr	r1, [fp, #-12]
400084d0:	e51b2010 	ldr	r2, [fp, #-16]
400084d4:	ebffff7e 	bl	400082d4 <simple_strtoul>
400084d8:	e1a03000 	mov	r3, r0
400084dc:	e1a00003 	mov	r0, r3
400084e0:	e24bd004 	sub	sp, fp, #4
400084e4:	e8bd4800 	pop	{fp, lr}
400084e8:	e12fff1e 	bx	lr

400084ec <skip_atoi>:
400084ec:	e52db004 	push	{fp}		; (str fp, [sp, #-4]!)
400084f0:	e28db000 	add	fp, sp, #0
400084f4:	e24dd008 	sub	sp, sp, #8
400084f8:	e50b0008 	str	r0, [fp, #-8]
400084fc:	e3a03000 	mov	r3, #0
40008500:	e50b3004 	str	r3, [fp, #-4]
40008504:	ea00000e 	b	40008544 <skip_atoi+0x58>
40008508:	e51b2004 	ldr	r2, [fp, #-4]
4000850c:	e1a03002 	mov	r3, r2
40008510:	e1a03103 	lsl	r3, r3, #2
40008514:	e0833002 	add	r3, r3, r2
40008518:	e1a03083 	lsl	r3, r3, #1
4000851c:	e1a01003 	mov	r1, r3
40008520:	e51b3008 	ldr	r3, [fp, #-8]
40008524:	e5933000 	ldr	r3, [r3]
40008528:	e5d32000 	ldrb	r2, [r3]
4000852c:	e0812002 	add	r2, r1, r2
40008530:	e2422030 	sub	r2, r2, #48	; 0x30
40008534:	e50b2004 	str	r2, [fp, #-4]
40008538:	e2832001 	add	r2, r3, #1
4000853c:	e51b3008 	ldr	r3, [fp, #-8]
40008540:	e5832000 	str	r2, [r3]
40008544:	e51b3008 	ldr	r3, [fp, #-8]
40008548:	e5933000 	ldr	r3, [r3]
4000854c:	e5d33000 	ldrb	r3, [r3]
40008550:	e353002f 	cmp	r3, #47	; 0x2f
40008554:	9a000004 	bls	4000856c <skip_atoi+0x80>
40008558:	e51b3008 	ldr	r3, [fp, #-8]
4000855c:	e5933000 	ldr	r3, [r3]
40008560:	e5d33000 	ldrb	r3, [r3]
40008564:	e3530039 	cmp	r3, #57	; 0x39
40008568:	9affffe6 	bls	40008508 <skip_atoi+0x1c>
4000856c:	e51b3004 	ldr	r3, [fp, #-4]
40008570:	e1a00003 	mov	r0, r3
40008574:	e28bd000 	add	sp, fp, #0
40008578:	e8bd0800 	pop	{fp}
4000857c:	e12fff1e 	bx	lr

40008580 <number>:
40008580:	e92d4800 	push	{fp, lr}
40008584:	e28db004 	add	fp, sp, #4
40008588:	e24dd068 	sub	sp, sp, #104	; 0x68
4000858c:	e50b0060 	str	r0, [fp, #-96]	; 0x60
40008590:	e50b1064 	str	r1, [fp, #-100]	; 0x64
40008594:	e50b2068 	str	r2, [fp, #-104]	; 0x68
40008598:	e50b306c 	str	r3, [fp, #-108]	; 0x6c
4000859c:	e59f346c 	ldr	r3, [pc, #1132]	; 40008a10 <number+0x490>
400085a0:	e50b300c 	str	r3, [fp, #-12]
400085a4:	e59b3008 	ldr	r3, [fp, #8]
400085a8:	e2033040 	and	r3, r3, #64	; 0x40
400085ac:	e3530000 	cmp	r3, #0
400085b0:	0a000001 	beq	400085bc <number+0x3c>
400085b4:	e59f3458 	ldr	r3, [pc, #1112]	; 40008a14 <number+0x494>
400085b8:	e50b300c 	str	r3, [fp, #-12]
400085bc:	e59b3008 	ldr	r3, [fp, #8]
400085c0:	e2033010 	and	r3, r3, #16
400085c4:	e3530000 	cmp	r3, #0
400085c8:	0a000002 	beq	400085d8 <number+0x58>
400085cc:	e59b3008 	ldr	r3, [fp, #8]
400085d0:	e3c33001 	bic	r3, r3, #1
400085d4:	e58b3008 	str	r3, [fp, #8]
400085d8:	e51b3068 	ldr	r3, [fp, #-104]	; 0x68
400085dc:	e3530001 	cmp	r3, #1
400085e0:	9a000002 	bls	400085f0 <number+0x70>
400085e4:	e51b3068 	ldr	r3, [fp, #-104]	; 0x68
400085e8:	e3530024 	cmp	r3, #36	; 0x24
400085ec:	9a000001 	bls	400085f8 <number+0x78>
400085f0:	e3a03000 	mov	r3, #0
400085f4:	ea000101 	b	40008a00 <number+0x480>
400085f8:	e59b3008 	ldr	r3, [fp, #8]
400085fc:	e2033001 	and	r3, r3, #1
40008600:	e20330ff 	and	r3, r3, #255	; 0xff
40008604:	e3530000 	cmp	r3, #0
40008608:	0a000001 	beq	40008614 <number+0x94>
4000860c:	e3a03030 	mov	r3, #48	; 0x30
40008610:	ea000000 	b	40008618 <number+0x98>
40008614:	e3a03020 	mov	r3, #32
40008618:	e54b3011 	strb	r3, [fp, #-17]
4000861c:	e3a03000 	mov	r3, #0
40008620:	e54b3005 	strb	r3, [fp, #-5]
40008624:	e59b3008 	ldr	r3, [fp, #8]
40008628:	e2033002 	and	r3, r3, #2
4000862c:	e3530000 	cmp	r3, #0
40008630:	0a00001e 	beq	400086b0 <number+0x130>
40008634:	e51b3064 	ldr	r3, [fp, #-100]	; 0x64
40008638:	e3530000 	cmp	r3, #0
4000863c:	aa000008 	bge	40008664 <number+0xe4>
40008640:	e3a0302d 	mov	r3, #45	; 0x2d
40008644:	e54b3005 	strb	r3, [fp, #-5]
40008648:	e51b3064 	ldr	r3, [fp, #-100]	; 0x64
4000864c:	e2633000 	rsb	r3, r3, #0
40008650:	e50b3064 	str	r3, [fp, #-100]	; 0x64
40008654:	e51b306c 	ldr	r3, [fp, #-108]	; 0x6c
40008658:	e2433001 	sub	r3, r3, #1
4000865c:	e50b306c 	str	r3, [fp, #-108]	; 0x6c
40008660:	ea000012 	b	400086b0 <number+0x130>
40008664:	e59b3008 	ldr	r3, [fp, #8]
40008668:	e2033004 	and	r3, r3, #4
4000866c:	e3530000 	cmp	r3, #0
40008670:	0a000005 	beq	4000868c <number+0x10c>
40008674:	e3a0302b 	mov	r3, #43	; 0x2b
40008678:	e54b3005 	strb	r3, [fp, #-5]
4000867c:	e51b306c 	ldr	r3, [fp, #-108]	; 0x6c
40008680:	e2433001 	sub	r3, r3, #1
40008684:	e50b306c 	str	r3, [fp, #-108]	; 0x6c
40008688:	ea000008 	b	400086b0 <number+0x130>
4000868c:	e59b3008 	ldr	r3, [fp, #8]
40008690:	e2033008 	and	r3, r3, #8
40008694:	e3530000 	cmp	r3, #0
40008698:	0a000004 	beq	400086b0 <number+0x130>
4000869c:	e3a03020 	mov	r3, #32
400086a0:	e54b3005 	strb	r3, [fp, #-5]
400086a4:	e51b306c 	ldr	r3, [fp, #-108]	; 0x6c
400086a8:	e2433001 	sub	r3, r3, #1
400086ac:	e50b306c 	str	r3, [fp, #-108]	; 0x6c
400086b0:	e59b3008 	ldr	r3, [fp, #8]
400086b4:	e2033020 	and	r3, r3, #32
400086b8:	e3530000 	cmp	r3, #0
400086bc:	0a00000c 	beq	400086f4 <number+0x174>
400086c0:	e51b3068 	ldr	r3, [fp, #-104]	; 0x68
400086c4:	e3530010 	cmp	r3, #16
400086c8:	1a000003 	bne	400086dc <number+0x15c>
400086cc:	e51b306c 	ldr	r3, [fp, #-108]	; 0x6c
400086d0:	e2433002 	sub	r3, r3, #2
400086d4:	e50b306c 	str	r3, [fp, #-108]	; 0x6c
400086d8:	ea000005 	b	400086f4 <number+0x174>
400086dc:	e51b3068 	ldr	r3, [fp, #-104]	; 0x68
400086e0:	e3530008 	cmp	r3, #8
400086e4:	1a000002 	bne	400086f4 <number+0x174>
400086e8:	e51b306c 	ldr	r3, [fp, #-108]	; 0x6c
400086ec:	e2433001 	sub	r3, r3, #1
400086f0:	e50b306c 	str	r3, [fp, #-108]	; 0x6c
400086f4:	e3a03000 	mov	r3, #0
400086f8:	e50b3010 	str	r3, [fp, #-16]
400086fc:	e51b3064 	ldr	r3, [fp, #-100]	; 0x64
40008700:	e3530000 	cmp	r3, #0
40008704:	1a000027 	bne	400087a8 <number+0x228>
40008708:	e3e03057 	mvn	r3, #87	; 0x57
4000870c:	e51b2010 	ldr	r2, [fp, #-16]
40008710:	e24b0004 	sub	r0, fp, #4
40008714:	e0802002 	add	r2, r0, r2
40008718:	e0823003 	add	r3, r2, r3
4000871c:	e3a02030 	mov	r2, #48	; 0x30
40008720:	e5c32000 	strb	r2, [r3]
40008724:	e51b3010 	ldr	r3, [fp, #-16]
40008728:	e2833001 	add	r3, r3, #1
4000872c:	e50b3010 	str	r3, [fp, #-16]
40008730:	ea00001f 	b	400087b4 <number+0x234>
40008734:	e51b2010 	ldr	r2, [fp, #-16]
40008738:	e59b3004 	ldr	r3, [fp, #4]
4000873c:	e1520003 	cmp	r2, r3
40008740:	da000018 	ble	400087a8 <number+0x228>
40008744:	e51b3064 	ldr	r3, [fp, #-100]	; 0x64
40008748:	e1a00003 	mov	r0, r3
4000874c:	e51b1068 	ldr	r1, [fp, #-104]	; 0x68
40008750:	ebfffe9f 	bl	400081d4 <__umodsi3>
40008754:	e1a03000 	mov	r3, r0
40008758:	e50b3018 	str	r3, [fp, #-24]
4000875c:	e51b3064 	ldr	r3, [fp, #-100]	; 0x64
40008760:	e1a00003 	mov	r0, r3
40008764:	e51b1068 	ldr	r1, [fp, #-104]	; 0x68
40008768:	ebfffe74 	bl	40008140 <__udivsi3>
4000876c:	e1a03000 	mov	r3, r0
40008770:	e50b3064 	str	r3, [fp, #-100]	; 0x64
40008774:	e51b3018 	ldr	r3, [fp, #-24]
40008778:	e51b200c 	ldr	r2, [fp, #-12]
4000877c:	e0823003 	add	r3, r2, r3
40008780:	e5d32000 	ldrb	r2, [r3]
40008784:	e3e03057 	mvn	r3, #87	; 0x57
40008788:	e51b1010 	ldr	r1, [fp, #-16]
4000878c:	e24b0004 	sub	r0, fp, #4
40008790:	e0801001 	add	r1, r0, r1
40008794:	e0813003 	add	r3, r1, r3
40008798:	e5c32000 	strb	r2, [r3]
4000879c:	e51b3010 	ldr	r3, [fp, #-16]
400087a0:	e2833001 	add	r3, r3, #1
400087a4:	e50b3010 	str	r3, [fp, #-16]
400087a8:	e51b3064 	ldr	r3, [fp, #-100]	; 0x64
400087ac:	e3530000 	cmp	r3, #0
400087b0:	1affffdf 	bne	40008734 <number+0x1b4>
400087b4:	e51b3010 	ldr	r3, [fp, #-16]
400087b8:	e58b3004 	str	r3, [fp, #4]
400087bc:	e51b206c 	ldr	r2, [fp, #-108]	; 0x6c
400087c0:	e59b3004 	ldr	r3, [fp, #4]
400087c4:	e0633002 	rsb	r3, r3, r2
400087c8:	e50b306c 	str	r3, [fp, #-108]	; 0x6c
400087cc:	e59b3008 	ldr	r3, [fp, #8]
400087d0:	e2033011 	and	r3, r3, #17
400087d4:	e3530000 	cmp	r3, #0
400087d8:	1a000010 	bne	40008820 <number+0x2a0>
400087dc:	ea000005 	b	400087f8 <number+0x278>
400087e0:	e51b3060 	ldr	r3, [fp, #-96]	; 0x60
400087e4:	e3a02020 	mov	r2, #32
400087e8:	e5c32000 	strb	r2, [r3]
400087ec:	e51b3060 	ldr	r3, [fp, #-96]	; 0x60
400087f0:	e2833001 	add	r3, r3, #1
400087f4:	e50b3060 	str	r3, [fp, #-96]	; 0x60
400087f8:	e51b306c 	ldr	r3, [fp, #-108]	; 0x6c
400087fc:	e3530000 	cmp	r3, #0
40008800:	d3a03000 	movle	r3, #0
40008804:	c3a03001 	movgt	r3, #1
40008808:	e20330ff 	and	r3, r3, #255	; 0xff
4000880c:	e51b206c 	ldr	r2, [fp, #-108]	; 0x6c
40008810:	e2422001 	sub	r2, r2, #1
40008814:	e50b206c 	str	r2, [fp, #-108]	; 0x6c
40008818:	e3530000 	cmp	r3, #0
4000881c:	1affffef 	bne	400087e0 <number+0x260>
40008820:	e55b3005 	ldrb	r3, [fp, #-5]
40008824:	e3530000 	cmp	r3, #0
40008828:	0a000005 	beq	40008844 <number+0x2c4>
4000882c:	e51b3060 	ldr	r3, [fp, #-96]	; 0x60
40008830:	e55b2005 	ldrb	r2, [fp, #-5]
40008834:	e5c32000 	strb	r2, [r3]
40008838:	e51b3060 	ldr	r3, [fp, #-96]	; 0x60
4000883c:	e2833001 	add	r3, r3, #1
40008840:	e50b3060 	str	r3, [fp, #-96]	; 0x60
40008844:	e59b3008 	ldr	r3, [fp, #8]
40008848:	e2033020 	and	r3, r3, #32
4000884c:	e3530000 	cmp	r3, #0
40008850:	0a000019 	beq	400088bc <number+0x33c>
40008854:	e51b3068 	ldr	r3, [fp, #-104]	; 0x68
40008858:	e3530008 	cmp	r3, #8
4000885c:	1a000006 	bne	4000887c <number+0x2fc>
40008860:	e51b3060 	ldr	r3, [fp, #-96]	; 0x60
40008864:	e3a02030 	mov	r2, #48	; 0x30
40008868:	e5c32000 	strb	r2, [r3]
4000886c:	e51b3060 	ldr	r3, [fp, #-96]	; 0x60
40008870:	e2833001 	add	r3, r3, #1
40008874:	e50b3060 	str	r3, [fp, #-96]	; 0x60
40008878:	ea00000f 	b	400088bc <number+0x33c>
4000887c:	e51b3068 	ldr	r3, [fp, #-104]	; 0x68
40008880:	e3530010 	cmp	r3, #16
40008884:	1a00000c 	bne	400088bc <number+0x33c>
40008888:	e51b3060 	ldr	r3, [fp, #-96]	; 0x60
4000888c:	e3a02030 	mov	r2, #48	; 0x30
40008890:	e5c32000 	strb	r2, [r3]
40008894:	e51b3060 	ldr	r3, [fp, #-96]	; 0x60
40008898:	e2833001 	add	r3, r3, #1
4000889c:	e50b3060 	str	r3, [fp, #-96]	; 0x60
400088a0:	e51b300c 	ldr	r3, [fp, #-12]
400088a4:	e5d32021 	ldrb	r2, [r3, #33]	; 0x21
400088a8:	e51b3060 	ldr	r3, [fp, #-96]	; 0x60
400088ac:	e5c32000 	strb	r2, [r3]
400088b0:	e51b3060 	ldr	r3, [fp, #-96]	; 0x60
400088b4:	e2833001 	add	r3, r3, #1
400088b8:	e50b3060 	str	r3, [fp, #-96]	; 0x60
400088bc:	e59b3008 	ldr	r3, [fp, #8]
400088c0:	e2033010 	and	r3, r3, #16
400088c4:	e3530000 	cmp	r3, #0
400088c8:	1a000018 	bne	40008930 <number+0x3b0>
400088cc:	ea000005 	b	400088e8 <number+0x368>
400088d0:	e51b3060 	ldr	r3, [fp, #-96]	; 0x60
400088d4:	e55b2011 	ldrb	r2, [fp, #-17]
400088d8:	e5c32000 	strb	r2, [r3]
400088dc:	e51b3060 	ldr	r3, [fp, #-96]	; 0x60
400088e0:	e2833001 	add	r3, r3, #1
400088e4:	e50b3060 	str	r3, [fp, #-96]	; 0x60
400088e8:	e51b306c 	ldr	r3, [fp, #-108]	; 0x6c
400088ec:	e3530000 	cmp	r3, #0
400088f0:	d3a03000 	movle	r3, #0
400088f4:	c3a03001 	movgt	r3, #1
400088f8:	e20330ff 	and	r3, r3, #255	; 0xff
400088fc:	e51b206c 	ldr	r2, [fp, #-108]	; 0x6c
40008900:	e2422001 	sub	r2, r2, #1
40008904:	e50b206c 	str	r2, [fp, #-108]	; 0x6c
40008908:	e3530000 	cmp	r3, #0
4000890c:	1affffef 	bne	400088d0 <number+0x350>
40008910:	ea000006 	b	40008930 <number+0x3b0>
40008914:	e51b3060 	ldr	r3, [fp, #-96]	; 0x60
40008918:	e3a02030 	mov	r2, #48	; 0x30
4000891c:	e5c32000 	strb	r2, [r3]
40008920:	e51b3060 	ldr	r3, [fp, #-96]	; 0x60
40008924:	e2833001 	add	r3, r3, #1
40008928:	e50b3060 	str	r3, [fp, #-96]	; 0x60
4000892c:	ea000000 	b	40008934 <number+0x3b4>
40008930:	e1a00000 	nop			; (mov r0, r0)
40008934:	e59b2004 	ldr	r2, [fp, #4]
40008938:	e51b3010 	ldr	r3, [fp, #-16]
4000893c:	e1520003 	cmp	r2, r3
40008940:	d3a03000 	movle	r3, #0
40008944:	c3a03001 	movgt	r3, #1
40008948:	e20330ff 	and	r3, r3, #255	; 0xff
4000894c:	e59b2004 	ldr	r2, [fp, #4]
40008950:	e2422001 	sub	r2, r2, #1
40008954:	e58b2004 	str	r2, [fp, #4]
40008958:	e3530000 	cmp	r3, #0
4000895c:	1affffec 	bne	40008914 <number+0x394>
40008960:	ea00000a 	b	40008990 <number+0x410>
40008964:	e3e03057 	mvn	r3, #87	; 0x57
40008968:	e51b2010 	ldr	r2, [fp, #-16]
4000896c:	e24b1004 	sub	r1, fp, #4
40008970:	e0812002 	add	r2, r1, r2
40008974:	e0823003 	add	r3, r2, r3
40008978:	e5d32000 	ldrb	r2, [r3]
4000897c:	e51b3060 	ldr	r3, [fp, #-96]	; 0x60
40008980:	e5c32000 	strb	r2, [r3]
40008984:	e51b3060 	ldr	r3, [fp, #-96]	; 0x60
40008988:	e2833001 	add	r3, r3, #1
4000898c:	e50b3060 	str	r3, [fp, #-96]	; 0x60
40008990:	e51b3010 	ldr	r3, [fp, #-16]
40008994:	e3530000 	cmp	r3, #0
40008998:	d3a03000 	movle	r3, #0
4000899c:	c3a03001 	movgt	r3, #1
400089a0:	e20330ff 	and	r3, r3, #255	; 0xff
400089a4:	e51b2010 	ldr	r2, [fp, #-16]
400089a8:	e2422001 	sub	r2, r2, #1
400089ac:	e50b2010 	str	r2, [fp, #-16]
400089b0:	e3530000 	cmp	r3, #0
400089b4:	1affffea 	bne	40008964 <number+0x3e4>
400089b8:	ea000005 	b	400089d4 <number+0x454>
400089bc:	e51b3060 	ldr	r3, [fp, #-96]	; 0x60
400089c0:	e3a02020 	mov	r2, #32
400089c4:	e5c32000 	strb	r2, [r3]
400089c8:	e51b3060 	ldr	r3, [fp, #-96]	; 0x60
400089cc:	e2833001 	add	r3, r3, #1
400089d0:	e50b3060 	str	r3, [fp, #-96]	; 0x60
400089d4:	e51b306c 	ldr	r3, [fp, #-108]	; 0x6c
400089d8:	e3530000 	cmp	r3, #0
400089dc:	d3a03000 	movle	r3, #0
400089e0:	c3a03001 	movgt	r3, #1
400089e4:	e20330ff 	and	r3, r3, #255	; 0xff
400089e8:	e51b206c 	ldr	r2, [fp, #-108]	; 0x6c
400089ec:	e2422001 	sub	r2, r2, #1
400089f0:	e50b206c 	str	r2, [fp, #-108]	; 0x6c
400089f4:	e3530000 	cmp	r3, #0
400089f8:	1affffef 	bne	400089bc <number+0x43c>
400089fc:	e51b3060 	ldr	r3, [fp, #-96]	; 0x60
40008a00:	e1a00003 	mov	r0, r3
40008a04:	e24bd004 	sub	sp, fp, #4
40008a08:	e8bd4800 	pop	{fp, lr}
40008a0c:	e12fff1e 	bx	lr
40008a10:	40009780 	andmi	r9, r0, r0, lsl #15
40008a14:	400097a8 	andmi	r9, r0, r8, lsr #15

40008a18 <strnlen>:
40008a18:	e52db004 	push	{fp}		; (str fp, [sp, #-4]!)
40008a1c:	e28db000 	add	fp, sp, #0
40008a20:	e24dd00c 	sub	sp, sp, #12
40008a24:	e50b0008 	str	r0, [fp, #-8]
40008a28:	e50b100c 	str	r1, [fp, #-12]
40008a2c:	e51b3008 	ldr	r3, [fp, #-8]
40008a30:	e50b3004 	str	r3, [fp, #-4]
40008a34:	ea000002 	b	40008a44 <strnlen+0x2c>
40008a38:	e51b3004 	ldr	r3, [fp, #-4]
40008a3c:	e2833001 	add	r3, r3, #1
40008a40:	e50b3004 	str	r3, [fp, #-4]
40008a44:	e51b300c 	ldr	r3, [fp, #-12]
40008a48:	e3530000 	cmp	r3, #0
40008a4c:	03a03000 	moveq	r3, #0
40008a50:	13a03001 	movne	r3, #1
40008a54:	e20330ff 	and	r3, r3, #255	; 0xff
40008a58:	e51b200c 	ldr	r2, [fp, #-12]
40008a5c:	e2422001 	sub	r2, r2, #1
40008a60:	e50b200c 	str	r2, [fp, #-12]
40008a64:	e3530000 	cmp	r3, #0
40008a68:	0a000003 	beq	40008a7c <strnlen+0x64>
40008a6c:	e51b3004 	ldr	r3, [fp, #-4]
40008a70:	e5d33000 	ldrb	r3, [r3]
40008a74:	e3530000 	cmp	r3, #0
40008a78:	1affffee 	bne	40008a38 <strnlen+0x20>
40008a7c:	e51b2004 	ldr	r2, [fp, #-4]
40008a80:	e51b3008 	ldr	r3, [fp, #-8]
40008a84:	e0633002 	rsb	r3, r3, r2
40008a88:	e1a00003 	mov	r0, r3
40008a8c:	e28bd000 	add	sp, fp, #0
40008a90:	e8bd0800 	pop	{fp}
40008a94:	e12fff1e 	bx	lr

40008a98 <vsprintf>:
40008a98:	e92d4800 	push	{fp, lr}
40008a9c:	e28db004 	add	fp, sp, #4
40008aa0:	e24dd044 	sub	sp, sp, #68	; 0x44
40008aa4:	e50b0038 	str	r0, [fp, #-56]	; 0x38
40008aa8:	e50b103c 	str	r1, [fp, #-60]	; 0x3c
40008aac:	e50b2040 	str	r2, [fp, #-64]	; 0x40
40008ab0:	e51b3038 	ldr	r3, [fp, #-56]	; 0x38
40008ab4:	e50b3014 	str	r3, [fp, #-20]
40008ab8:	ea000235 	b	40009394 <vsprintf+0x8fc>
40008abc:	e51b303c 	ldr	r3, [fp, #-60]	; 0x3c
40008ac0:	e5d33000 	ldrb	r3, [r3]
40008ac4:	e3530025 	cmp	r3, #37	; 0x25
40008ac8:	0a000007 	beq	40008aec <vsprintf+0x54>
40008acc:	e51b303c 	ldr	r3, [fp, #-60]	; 0x3c
40008ad0:	e5d32000 	ldrb	r2, [r3]
40008ad4:	e51b3014 	ldr	r3, [fp, #-20]
40008ad8:	e5c32000 	strb	r2, [r3]
40008adc:	e51b3014 	ldr	r3, [fp, #-20]
40008ae0:	e2833001 	add	r3, r3, #1
40008ae4:	e50b3014 	str	r3, [fp, #-20]
40008ae8:	ea000226 	b	40009388 <vsprintf+0x8f0>
40008aec:	e3a03000 	mov	r3, #0
40008af0:	e50b301c 	str	r3, [fp, #-28]
40008af4:	e51b303c 	ldr	r3, [fp, #-60]	; 0x3c
40008af8:	e2833001 	add	r3, r3, #1
40008afc:	e50b303c 	str	r3, [fp, #-60]	; 0x3c
40008b00:	e51b303c 	ldr	r3, [fp, #-60]	; 0x3c
40008b04:	e5d33000 	ldrb	r3, [r3]
40008b08:	e2433020 	sub	r3, r3, #32
40008b0c:	e3530010 	cmp	r3, #16
40008b10:	979ff103 	ldrls	pc, [pc, r3, lsl #2]
40008b14:	ea000024 	b	40008bac <vsprintf+0x114>
40008b18:	40008b7c 	andmi	r8, r0, ip, ror fp
40008b1c:	40008bac 	andmi	r8, r0, ip, lsr #23
40008b20:	40008bac 	andmi	r8, r0, ip, lsr #23
40008b24:	40008b8c 	andmi	r8, r0, ip, lsl #23
40008b28:	40008bac 	andmi	r8, r0, ip, lsr #23
40008b2c:	40008bac 	andmi	r8, r0, ip, lsr #23
40008b30:	40008bac 	andmi	r8, r0, ip, lsr #23
40008b34:	40008bac 	andmi	r8, r0, ip, lsr #23
40008b38:	40008bac 	andmi	r8, r0, ip, lsr #23
40008b3c:	40008bac 	andmi	r8, r0, ip, lsr #23
40008b40:	40008bac 	andmi	r8, r0, ip, lsr #23
40008b44:	40008b6c 	andmi	r8, r0, ip, ror #22
40008b48:	40008bac 	andmi	r8, r0, ip, lsr #23
40008b4c:	40008b5c 	andmi	r8, r0, ip, asr fp
40008b50:	40008bac 	andmi	r8, r0, ip, lsr #23
40008b54:	40008bac 	andmi	r8, r0, ip, lsr #23
40008b58:	40008b9c 	mulmi	r0, ip, fp
40008b5c:	e51b301c 	ldr	r3, [fp, #-28]
40008b60:	e3833010 	orr	r3, r3, #16
40008b64:	e50b301c 	str	r3, [fp, #-28]
40008b68:	eaffffe1 	b	40008af4 <vsprintf+0x5c>
40008b6c:	e51b301c 	ldr	r3, [fp, #-28]
40008b70:	e3833004 	orr	r3, r3, #4
40008b74:	e50b301c 	str	r3, [fp, #-28]
40008b78:	eaffffdd 	b	40008af4 <vsprintf+0x5c>
40008b7c:	e51b301c 	ldr	r3, [fp, #-28]
40008b80:	e3833008 	orr	r3, r3, #8
40008b84:	e50b301c 	str	r3, [fp, #-28]
40008b88:	eaffffd9 	b	40008af4 <vsprintf+0x5c>
40008b8c:	e51b301c 	ldr	r3, [fp, #-28]
40008b90:	e3833020 	orr	r3, r3, #32
40008b94:	e50b301c 	str	r3, [fp, #-28]
40008b98:	eaffffd5 	b	40008af4 <vsprintf+0x5c>
40008b9c:	e51b301c 	ldr	r3, [fp, #-28]
40008ba0:	e3833001 	orr	r3, r3, #1
40008ba4:	e50b301c 	str	r3, [fp, #-28]
40008ba8:	eaffffd1 	b	40008af4 <vsprintf+0x5c>
40008bac:	e3e03000 	mvn	r3, #0
40008bb0:	e50b3020 	str	r3, [fp, #-32]
40008bb4:	e51b303c 	ldr	r3, [fp, #-60]	; 0x3c
40008bb8:	e5d33000 	ldrb	r3, [r3]
40008bbc:	e353002f 	cmp	r3, #47	; 0x2f
40008bc0:	9a000008 	bls	40008be8 <vsprintf+0x150>
40008bc4:	e51b303c 	ldr	r3, [fp, #-60]	; 0x3c
40008bc8:	e5d33000 	ldrb	r3, [r3]
40008bcc:	e3530039 	cmp	r3, #57	; 0x39
40008bd0:	8a000004 	bhi	40008be8 <vsprintf+0x150>
40008bd4:	e24b303c 	sub	r3, fp, #60	; 0x3c
40008bd8:	e1a00003 	mov	r0, r3
40008bdc:	ebfffe42 	bl	400084ec <skip_atoi>
40008be0:	e50b0020 	str	r0, [fp, #-32]
40008be4:	ea000014 	b	40008c3c <vsprintf+0x1a4>
40008be8:	e51b303c 	ldr	r3, [fp, #-60]	; 0x3c
40008bec:	e5d33000 	ldrb	r3, [r3]
40008bf0:	e353002a 	cmp	r3, #42	; 0x2a
40008bf4:	1a000010 	bne	40008c3c <vsprintf+0x1a4>
40008bf8:	e51b303c 	ldr	r3, [fp, #-60]	; 0x3c
40008bfc:	e2833001 	add	r3, r3, #1
40008c00:	e50b303c 	str	r3, [fp, #-60]	; 0x3c
40008c04:	e51b3040 	ldr	r3, [fp, #-64]	; 0x40
40008c08:	e2832004 	add	r2, r3, #4
40008c0c:	e50b2040 	str	r2, [fp, #-64]	; 0x40
40008c10:	e5933000 	ldr	r3, [r3]
40008c14:	e50b3020 	str	r3, [fp, #-32]
40008c18:	e51b3020 	ldr	r3, [fp, #-32]
40008c1c:	e3530000 	cmp	r3, #0
40008c20:	aa000005 	bge	40008c3c <vsprintf+0x1a4>
40008c24:	e51b3020 	ldr	r3, [fp, #-32]
40008c28:	e2633000 	rsb	r3, r3, #0
40008c2c:	e50b3020 	str	r3, [fp, #-32]
40008c30:	e51b301c 	ldr	r3, [fp, #-28]
40008c34:	e3833010 	orr	r3, r3, #16
40008c38:	e50b301c 	str	r3, [fp, #-28]
40008c3c:	e3e03000 	mvn	r3, #0
40008c40:	e50b3024 	str	r3, [fp, #-36]	; 0x24
40008c44:	e51b303c 	ldr	r3, [fp, #-60]	; 0x3c
40008c48:	e5d33000 	ldrb	r3, [r3]
40008c4c:	e353002e 	cmp	r3, #46	; 0x2e
40008c50:	1a000020 	bne	40008cd8 <vsprintf+0x240>
40008c54:	e51b303c 	ldr	r3, [fp, #-60]	; 0x3c
40008c58:	e2833001 	add	r3, r3, #1
40008c5c:	e50b303c 	str	r3, [fp, #-60]	; 0x3c
40008c60:	e51b303c 	ldr	r3, [fp, #-60]	; 0x3c
40008c64:	e5d33000 	ldrb	r3, [r3]
40008c68:	e353002f 	cmp	r3, #47	; 0x2f
40008c6c:	9a000008 	bls	40008c94 <vsprintf+0x1fc>
40008c70:	e51b303c 	ldr	r3, [fp, #-60]	; 0x3c
40008c74:	e5d33000 	ldrb	r3, [r3]
40008c78:	e3530039 	cmp	r3, #57	; 0x39
40008c7c:	8a000004 	bhi	40008c94 <vsprintf+0x1fc>
40008c80:	e24b303c 	sub	r3, fp, #60	; 0x3c
40008c84:	e1a00003 	mov	r0, r3
40008c88:	ebfffe17 	bl	400084ec <skip_atoi>
40008c8c:	e50b0024 	str	r0, [fp, #-36]	; 0x24
40008c90:	ea00000b 	b	40008cc4 <vsprintf+0x22c>
40008c94:	e51b303c 	ldr	r3, [fp, #-60]	; 0x3c
40008c98:	e5d33000 	ldrb	r3, [r3]
40008c9c:	e353002a 	cmp	r3, #42	; 0x2a
40008ca0:	1a000007 	bne	40008cc4 <vsprintf+0x22c>
40008ca4:	e51b303c 	ldr	r3, [fp, #-60]	; 0x3c
40008ca8:	e2833001 	add	r3, r3, #1
40008cac:	e50b303c 	str	r3, [fp, #-60]	; 0x3c
40008cb0:	e51b3040 	ldr	r3, [fp, #-64]	; 0x40
40008cb4:	e2832004 	add	r2, r3, #4
40008cb8:	e50b2040 	str	r2, [fp, #-64]	; 0x40
40008cbc:	e5933000 	ldr	r3, [r3]
40008cc0:	e50b3024 	str	r3, [fp, #-36]	; 0x24
40008cc4:	e51b3024 	ldr	r3, [fp, #-36]	; 0x24
40008cc8:	e3530000 	cmp	r3, #0
40008ccc:	aa000001 	bge	40008cd8 <vsprintf+0x240>
40008cd0:	e3a03000 	mov	r3, #0
40008cd4:	e50b3024 	str	r3, [fp, #-36]	; 0x24
40008cd8:	e3e03000 	mvn	r3, #0
40008cdc:	e50b3028 	str	r3, [fp, #-40]	; 0x28
40008ce0:	e51b303c 	ldr	r3, [fp, #-60]	; 0x3c
40008ce4:	e5d33000 	ldrb	r3, [r3]
40008ce8:	e3530068 	cmp	r3, #104	; 0x68
40008cec:	0a000017 	beq	40008d50 <vsprintf+0x2b8>
40008cf0:	e51b303c 	ldr	r3, [fp, #-60]	; 0x3c
40008cf4:	e5d33000 	ldrb	r3, [r3]
40008cf8:	e353006c 	cmp	r3, #108	; 0x6c
40008cfc:	0a000013 	beq	40008d50 <vsprintf+0x2b8>
40008d00:	e51b303c 	ldr	r3, [fp, #-60]	; 0x3c
40008d04:	e5d33000 	ldrb	r3, [r3]
40008d08:	e353004c 	cmp	r3, #76	; 0x4c
40008d0c:	0a00000f 	beq	40008d50 <vsprintf+0x2b8>
40008d10:	e51b303c 	ldr	r3, [fp, #-60]	; 0x3c
40008d14:	e5d33000 	ldrb	r3, [r3]
40008d18:	e353005a 	cmp	r3, #90	; 0x5a
40008d1c:	0a00000b 	beq	40008d50 <vsprintf+0x2b8>
40008d20:	e51b303c 	ldr	r3, [fp, #-60]	; 0x3c
40008d24:	e5d33000 	ldrb	r3, [r3]
40008d28:	e353007a 	cmp	r3, #122	; 0x7a
40008d2c:	0a000007 	beq	40008d50 <vsprintf+0x2b8>
40008d30:	e51b303c 	ldr	r3, [fp, #-60]	; 0x3c
40008d34:	e5d33000 	ldrb	r3, [r3]
40008d38:	e3530074 	cmp	r3, #116	; 0x74
40008d3c:	0a000003 	beq	40008d50 <vsprintf+0x2b8>
40008d40:	e51b303c 	ldr	r3, [fp, #-60]	; 0x3c
40008d44:	e5d33000 	ldrb	r3, [r3]
40008d48:	e3530071 	cmp	r3, #113	; 0x71
40008d4c:	1a000012 	bne	40008d9c <vsprintf+0x304>
40008d50:	e51b303c 	ldr	r3, [fp, #-60]	; 0x3c
40008d54:	e5d33000 	ldrb	r3, [r3]
40008d58:	e50b3028 	str	r3, [fp, #-40]	; 0x28
40008d5c:	e51b3028 	ldr	r3, [fp, #-40]	; 0x28
40008d60:	e353006c 	cmp	r3, #108	; 0x6c
40008d64:	1a000009 	bne	40008d90 <vsprintf+0x2f8>
40008d68:	e51b303c 	ldr	r3, [fp, #-60]	; 0x3c
40008d6c:	e2833001 	add	r3, r3, #1
40008d70:	e5d33000 	ldrb	r3, [r3]
40008d74:	e353006c 	cmp	r3, #108	; 0x6c
40008d78:	1a000004 	bne	40008d90 <vsprintf+0x2f8>
40008d7c:	e3a03071 	mov	r3, #113	; 0x71
40008d80:	e50b3028 	str	r3, [fp, #-40]	; 0x28
40008d84:	e51b303c 	ldr	r3, [fp, #-60]	; 0x3c
40008d88:	e2833001 	add	r3, r3, #1
40008d8c:	e50b303c 	str	r3, [fp, #-60]	; 0x3c
40008d90:	e51b303c 	ldr	r3, [fp, #-60]	; 0x3c
40008d94:	e2833001 	add	r3, r3, #1
40008d98:	e50b303c 	str	r3, [fp, #-60]	; 0x3c
40008d9c:	e3a0300a 	mov	r3, #10
40008da0:	e50b3010 	str	r3, [fp, #-16]
40008da4:	e51b303c 	ldr	r3, [fp, #-60]	; 0x3c
40008da8:	e5d33000 	ldrb	r3, [r3]
40008dac:	e2433025 	sub	r3, r3, #37	; 0x25
40008db0:	e3530053 	cmp	r3, #83	; 0x53
40008db4:	979ff103 	ldrls	pc, [pc, r3, lsl #2]
40008db8:	ea00010d 	b	400091f4 <vsprintf+0x75c>
40008dbc:	400091a4 	andmi	r9, r0, r4, lsr #3
40008dc0:	400091f4 	strdmi	r9, [r0], -r4
40008dc4:	400091f4 	strdmi	r9, [r0], -r4
40008dc8:	400091f4 	strdmi	r9, [r0], -r4
40008dcc:	400091f4 	strdmi	r9, [r0], -r4
40008dd0:	400091f4 	strdmi	r9, [r0], -r4
40008dd4:	400091f4 	strdmi	r9, [r0], -r4
40008dd8:	400091f4 	strdmi	r9, [r0], -r4
40008ddc:	400091f4 	strdmi	r9, [r0], -r4
40008de0:	400091f4 	strdmi	r9, [r0], -r4
40008de4:	400091f4 	strdmi	r9, [r0], -r4
40008de8:	400091f4 	strdmi	r9, [r0], -r4
40008dec:	400091f4 	strdmi	r9, [r0], -r4
40008df0:	400091f4 	strdmi	r9, [r0], -r4
40008df4:	400091f4 	strdmi	r9, [r0], -r4
40008df8:	400091f4 	strdmi	r9, [r0], -r4
40008dfc:	400091f4 	strdmi	r9, [r0], -r4
40008e00:	400091f4 	strdmi	r9, [r0], -r4
40008e04:	400091f4 	strdmi	r9, [r0], -r4
40008e08:	400091f4 	strdmi	r9, [r0], -r4
40008e0c:	400091f4 	strdmi	r9, [r0], -r4
40008e10:	400091f4 	strdmi	r9, [r0], -r4
40008e14:	400091f4 	strdmi	r9, [r0], -r4
40008e18:	400091f4 	strdmi	r9, [r0], -r4
40008e1c:	400091f4 	strdmi	r9, [r0], -r4
40008e20:	400091f4 	strdmi	r9, [r0], -r4
40008e24:	400091f4 	strdmi	r9, [r0], -r4
40008e28:	400091f4 	strdmi	r9, [r0], -r4
40008e2c:	400091f4 	strdmi	r9, [r0], -r4
40008e30:	400091f4 	strdmi	r9, [r0], -r4
40008e34:	400091f4 	strdmi	r9, [r0], -r4
40008e38:	400091f4 	strdmi	r9, [r0], -r4
40008e3c:	400091f4 	strdmi	r9, [r0], -r4
40008e40:	400091f4 	strdmi	r9, [r0], -r4
40008e44:	400091f4 	strdmi	r9, [r0], -r4
40008e48:	400091f4 	strdmi	r9, [r0], -r4
40008e4c:	400091f4 	strdmi	r9, [r0], -r4
40008e50:	400091f4 	strdmi	r9, [r0], -r4
40008e54:	400091f4 	strdmi	r9, [r0], -r4
40008e58:	400091f4 	strdmi	r9, [r0], -r4
40008e5c:	400091f4 	strdmi	r9, [r0], -r4
40008e60:	400091f4 	strdmi	r9, [r0], -r4
40008e64:	400091f4 	strdmi	r9, [r0], -r4
40008e68:	400091f4 	strdmi	r9, [r0], -r4
40008e6c:	400091f4 	strdmi	r9, [r0], -r4
40008e70:	400091f4 	strdmi	r9, [r0], -r4
40008e74:	400091f4 	strdmi	r9, [r0], -r4
40008e78:	400091f4 	strdmi	r9, [r0], -r4
40008e7c:	400091f4 	strdmi	r9, [r0], -r4
40008e80:	400091f4 	strdmi	r9, [r0], -r4
40008e84:	400091f4 	strdmi	r9, [r0], -r4
40008e88:	400091cc 	andmi	r9, r0, ip, asr #3
40008e8c:	400091f4 	strdmi	r9, [r0], -r4
40008e90:	400091f4 	strdmi	r9, [r0], -r4
40008e94:	400091f4 	strdmi	r9, [r0], -r4
40008e98:	400091f4 	strdmi	r9, [r0], -r4
40008e9c:	400091f4 	strdmi	r9, [r0], -r4
40008ea0:	400091f4 	strdmi	r9, [r0], -r4
40008ea4:	400091f4 	strdmi	r9, [r0], -r4
40008ea8:	400091f4 	strdmi	r9, [r0], -r4
40008eac:	400091f4 	strdmi	r9, [r0], -r4
40008eb0:	400091f4 	strdmi	r9, [r0], -r4
40008eb4:	40008f0c 	andmi	r8, r0, ip, lsl #30
40008eb8:	400091e4 	andmi	r9, r0, r4, ror #3
40008ebc:	400091f4 	strdmi	r9, [r0], -r4
40008ec0:	400091f4 	strdmi	r9, [r0], -r4
40008ec4:	400091f4 	strdmi	r9, [r0], -r4
40008ec8:	400091f4 	strdmi	r9, [r0], -r4
40008ecc:	400091e4 	andmi	r9, r0, r4, ror #3
40008ed0:	400091f4 	strdmi	r9, [r0], -r4
40008ed4:	400091f4 	strdmi	r9, [r0], -r4
40008ed8:	400091f4 	strdmi	r9, [r0], -r4
40008edc:	400091f4 	strdmi	r9, [r0], -r4
40008ee0:	40009140 	andmi	r9, r0, r0, asr #2
40008ee4:	400091c0 	andmi	r9, r0, r0, asr #3
40008ee8:	400090e4 	andmi	r9, r0, r4, ror #1
40008eec:	400091f4 	strdmi	r9, [r0], -r4
40008ef0:	400091f4 	strdmi	r9, [r0], -r4
40008ef4:	40008fb0 			; <UNDEFINED> instruction: 0x40008fb0
40008ef8:	400091f4 	strdmi	r9, [r0], -r4
40008efc:	4000924c 	andmi	r9, r0, ip, asr #4
40008f00:	400091f4 	strdmi	r9, [r0], -r4
40008f04:	400091f4 	strdmi	r9, [r0], -r4
40008f08:	400091d8 	ldrdmi	r9, [r0], -r8
40008f0c:	e51b301c 	ldr	r3, [fp, #-28]
40008f10:	e2033010 	and	r3, r3, #16
40008f14:	e3530000 	cmp	r3, #0
40008f18:	1a00000c 	bne	40008f50 <vsprintf+0x4b8>
40008f1c:	ea000005 	b	40008f38 <vsprintf+0x4a0>
40008f20:	e51b3014 	ldr	r3, [fp, #-20]
40008f24:	e3a02020 	mov	r2, #32
40008f28:	e5c32000 	strb	r2, [r3]
40008f2c:	e51b3014 	ldr	r3, [fp, #-20]
40008f30:	e2833001 	add	r3, r3, #1
40008f34:	e50b3014 	str	r3, [fp, #-20]
40008f38:	e51b3020 	ldr	r3, [fp, #-32]
40008f3c:	e2433001 	sub	r3, r3, #1
40008f40:	e50b3020 	str	r3, [fp, #-32]
40008f44:	e51b3020 	ldr	r3, [fp, #-32]
40008f48:	e3530000 	cmp	r3, #0
40008f4c:	cafffff3 	bgt	40008f20 <vsprintf+0x488>
40008f50:	e51b3040 	ldr	r3, [fp, #-64]	; 0x40
40008f54:	e2832004 	add	r2, r3, #4
40008f58:	e50b2040 	str	r2, [fp, #-64]	; 0x40
40008f5c:	e5933000 	ldr	r3, [r3]
40008f60:	e20320ff 	and	r2, r3, #255	; 0xff
40008f64:	e51b3014 	ldr	r3, [fp, #-20]
40008f68:	e5c32000 	strb	r2, [r3]
40008f6c:	e51b3014 	ldr	r3, [fp, #-20]
40008f70:	e2833001 	add	r3, r3, #1
40008f74:	e50b3014 	str	r3, [fp, #-20]
40008f78:	ea000005 	b	40008f94 <vsprintf+0x4fc>
40008f7c:	e51b3014 	ldr	r3, [fp, #-20]
40008f80:	e3a02020 	mov	r2, #32
40008f84:	e5c32000 	strb	r2, [r3]
40008f88:	e51b3014 	ldr	r3, [fp, #-20]
40008f8c:	e2833001 	add	r3, r3, #1
40008f90:	e50b3014 	str	r3, [fp, #-20]
40008f94:	e51b3020 	ldr	r3, [fp, #-32]
40008f98:	e2433001 	sub	r3, r3, #1
40008f9c:	e50b3020 	str	r3, [fp, #-32]
40008fa0:	e51b3020 	ldr	r3, [fp, #-32]
40008fa4:	e3530000 	cmp	r3, #0
40008fa8:	cafffff3 	bgt	40008f7c <vsprintf+0x4e4>
40008fac:	ea0000f5 	b	40009388 <vsprintf+0x8f0>
40008fb0:	e51b3040 	ldr	r3, [fp, #-64]	; 0x40
40008fb4:	e2832004 	add	r2, r3, #4
40008fb8:	e50b2040 	str	r2, [fp, #-64]	; 0x40
40008fbc:	e5933000 	ldr	r3, [r3]
40008fc0:	e50b3018 	str	r3, [fp, #-24]
40008fc4:	e51b3018 	ldr	r3, [fp, #-24]
40008fc8:	e3530000 	cmp	r3, #0
40008fcc:	1a000001 	bne	40008fd8 <vsprintf+0x540>
40008fd0:	e59f33f4 	ldr	r3, [pc, #1012]	; 400093cc <vsprintf+0x934>
40008fd4:	e50b3018 	str	r3, [fp, #-24]
40008fd8:	e51b3024 	ldr	r3, [fp, #-36]	; 0x24
40008fdc:	e51b0018 	ldr	r0, [fp, #-24]
40008fe0:	e1a01003 	mov	r1, r3
40008fe4:	ebfffe8b 	bl	40008a18 <strnlen>
40008fe8:	e1a03000 	mov	r3, r0
40008fec:	e50b302c 	str	r3, [fp, #-44]	; 0x2c
40008ff0:	e51b301c 	ldr	r3, [fp, #-28]
40008ff4:	e2033010 	and	r3, r3, #16
40008ff8:	e3530000 	cmp	r3, #0
40008ffc:	1a000011 	bne	40009048 <vsprintf+0x5b0>
40009000:	ea000005 	b	4000901c <vsprintf+0x584>
40009004:	e51b3014 	ldr	r3, [fp, #-20]
40009008:	e3a02020 	mov	r2, #32
4000900c:	e5c32000 	strb	r2, [r3]
40009010:	e51b3014 	ldr	r3, [fp, #-20]
40009014:	e2833001 	add	r3, r3, #1
40009018:	e50b3014 	str	r3, [fp, #-20]
4000901c:	e51b2020 	ldr	r2, [fp, #-32]
40009020:	e51b302c 	ldr	r3, [fp, #-44]	; 0x2c
40009024:	e1520003 	cmp	r2, r3
40009028:	d3a03000 	movle	r3, #0
4000902c:	c3a03001 	movgt	r3, #1
40009030:	e20330ff 	and	r3, r3, #255	; 0xff
40009034:	e51b2020 	ldr	r2, [fp, #-32]
40009038:	e2422001 	sub	r2, r2, #1
4000903c:	e50b2020 	str	r2, [fp, #-32]
40009040:	e3530000 	cmp	r3, #0
40009044:	1affffee 	bne	40009004 <vsprintf+0x56c>
40009048:	e3a03000 	mov	r3, #0
4000904c:	e50b300c 	str	r3, [fp, #-12]
40009050:	ea00000c 	b	40009088 <vsprintf+0x5f0>
40009054:	e51b3018 	ldr	r3, [fp, #-24]
40009058:	e5d32000 	ldrb	r2, [r3]
4000905c:	e51b3014 	ldr	r3, [fp, #-20]
40009060:	e5c32000 	strb	r2, [r3]
40009064:	e51b3014 	ldr	r3, [fp, #-20]
40009068:	e2833001 	add	r3, r3, #1
4000906c:	e50b3014 	str	r3, [fp, #-20]
40009070:	e51b3018 	ldr	r3, [fp, #-24]
40009074:	e2833001 	add	r3, r3, #1
40009078:	e50b3018 	str	r3, [fp, #-24]
4000907c:	e51b300c 	ldr	r3, [fp, #-12]
40009080:	e2833001 	add	r3, r3, #1
40009084:	e50b300c 	str	r3, [fp, #-12]
40009088:	e51b200c 	ldr	r2, [fp, #-12]
4000908c:	e51b302c 	ldr	r3, [fp, #-44]	; 0x2c
40009090:	e1520003 	cmp	r2, r3
40009094:	baffffee 	blt	40009054 <vsprintf+0x5bc>
40009098:	ea000005 	b	400090b4 <vsprintf+0x61c>
4000909c:	e51b3014 	ldr	r3, [fp, #-20]
400090a0:	e3a02020 	mov	r2, #32
400090a4:	e5c32000 	strb	r2, [r3]
400090a8:	e51b3014 	ldr	r3, [fp, #-20]
400090ac:	e2833001 	add	r3, r3, #1
400090b0:	e50b3014 	str	r3, [fp, #-20]
400090b4:	e51b2020 	ldr	r2, [fp, #-32]
400090b8:	e51b302c 	ldr	r3, [fp, #-44]	; 0x2c
400090bc:	e1520003 	cmp	r2, r3
400090c0:	d3a03000 	movle	r3, #0
400090c4:	c3a03001 	movgt	r3, #1
400090c8:	e20330ff 	and	r3, r3, #255	; 0xff
400090cc:	e51b2020 	ldr	r2, [fp, #-32]
400090d0:	e2422001 	sub	r2, r2, #1
400090d4:	e50b2020 	str	r2, [fp, #-32]
400090d8:	e3530000 	cmp	r3, #0
400090dc:	1affffee 	bne	4000909c <vsprintf+0x604>
400090e0:	ea0000a8 	b	40009388 <vsprintf+0x8f0>
400090e4:	e51b3020 	ldr	r3, [fp, #-32]
400090e8:	e3730001 	cmn	r3, #1
400090ec:	1a000004 	bne	40009104 <vsprintf+0x66c>
400090f0:	e3a03008 	mov	r3, #8
400090f4:	e50b3020 	str	r3, [fp, #-32]
400090f8:	e51b301c 	ldr	r3, [fp, #-28]
400090fc:	e3833001 	orr	r3, r3, #1
40009100:	e50b301c 	str	r3, [fp, #-28]
40009104:	e51b3040 	ldr	r3, [fp, #-64]	; 0x40
40009108:	e2832004 	add	r2, r3, #4
4000910c:	e50b2040 	str	r2, [fp, #-64]	; 0x40
40009110:	e5933000 	ldr	r3, [r3]
40009114:	e51b2024 	ldr	r2, [fp, #-36]	; 0x24
40009118:	e58d2000 	str	r2, [sp]
4000911c:	e51b201c 	ldr	r2, [fp, #-28]
40009120:	e58d2004 	str	r2, [sp, #4]
40009124:	e51b0014 	ldr	r0, [fp, #-20]
40009128:	e1a01003 	mov	r1, r3
4000912c:	e3a02010 	mov	r2, #16
40009130:	e51b3020 	ldr	r3, [fp, #-32]
40009134:	ebfffd11 	bl	40008580 <number>
40009138:	e50b0014 	str	r0, [fp, #-20]
4000913c:	ea000091 	b	40009388 <vsprintf+0x8f0>
40009140:	e51b3028 	ldr	r3, [fp, #-40]	; 0x28
40009144:	e353006c 	cmp	r3, #108	; 0x6c
40009148:	1a00000a 	bne	40009178 <vsprintf+0x6e0>
4000914c:	e51b3040 	ldr	r3, [fp, #-64]	; 0x40
40009150:	e2832004 	add	r2, r3, #4
40009154:	e50b2040 	str	r2, [fp, #-64]	; 0x40
40009158:	e5933000 	ldr	r3, [r3]
4000915c:	e50b3030 	str	r3, [fp, #-48]	; 0x30
40009160:	e51b2014 	ldr	r2, [fp, #-20]
40009164:	e51b3038 	ldr	r3, [fp, #-56]	; 0x38
40009168:	e0632002 	rsb	r2, r3, r2
4000916c:	e51b3030 	ldr	r3, [fp, #-48]	; 0x30
40009170:	e5832000 	str	r2, [r3]
40009174:	ea000083 	b	40009388 <vsprintf+0x8f0>
40009178:	e51b3040 	ldr	r3, [fp, #-64]	; 0x40
4000917c:	e2832004 	add	r2, r3, #4
40009180:	e50b2040 	str	r2, [fp, #-64]	; 0x40
40009184:	e5933000 	ldr	r3, [r3]
40009188:	e50b3034 	str	r3, [fp, #-52]	; 0x34
4000918c:	e51b2014 	ldr	r2, [fp, #-20]
40009190:	e51b3038 	ldr	r3, [fp, #-56]	; 0x38
40009194:	e0632002 	rsb	r2, r3, r2
40009198:	e51b3034 	ldr	r3, [fp, #-52]	; 0x34
4000919c:	e5832000 	str	r2, [r3]
400091a0:	ea000078 	b	40009388 <vsprintf+0x8f0>
400091a4:	e51b3014 	ldr	r3, [fp, #-20]
400091a8:	e3a02025 	mov	r2, #37	; 0x25
400091ac:	e5c32000 	strb	r2, [r3]
400091b0:	e51b3014 	ldr	r3, [fp, #-20]
400091b4:	e2833001 	add	r3, r3, #1
400091b8:	e50b3014 	str	r3, [fp, #-20]
400091bc:	ea000071 	b	40009388 <vsprintf+0x8f0>
400091c0:	e3a03008 	mov	r3, #8
400091c4:	e50b3010 	str	r3, [fp, #-16]
400091c8:	ea000020 	b	40009250 <vsprintf+0x7b8>
400091cc:	e51b301c 	ldr	r3, [fp, #-28]
400091d0:	e3833040 	orr	r3, r3, #64	; 0x40
400091d4:	e50b301c 	str	r3, [fp, #-28]
400091d8:	e3a03010 	mov	r3, #16
400091dc:	e50b3010 	str	r3, [fp, #-16]
400091e0:	ea00001a 	b	40009250 <vsprintf+0x7b8>
400091e4:	e51b301c 	ldr	r3, [fp, #-28]
400091e8:	e3833002 	orr	r3, r3, #2
400091ec:	e50b301c 	str	r3, [fp, #-28]
400091f0:	ea000015 	b	4000924c <vsprintf+0x7b4>
400091f4:	e51b3014 	ldr	r3, [fp, #-20]
400091f8:	e3a02025 	mov	r2, #37	; 0x25
400091fc:	e5c32000 	strb	r2, [r3]
40009200:	e51b3014 	ldr	r3, [fp, #-20]
40009204:	e2833001 	add	r3, r3, #1
40009208:	e50b3014 	str	r3, [fp, #-20]
4000920c:	e51b303c 	ldr	r3, [fp, #-60]	; 0x3c
40009210:	e5d33000 	ldrb	r3, [r3]
40009214:	e3530000 	cmp	r3, #0
40009218:	0a000007 	beq	4000923c <vsprintf+0x7a4>
4000921c:	e51b303c 	ldr	r3, [fp, #-60]	; 0x3c
40009220:	e5d32000 	ldrb	r2, [r3]
40009224:	e51b3014 	ldr	r3, [fp, #-20]
40009228:	e5c32000 	strb	r2, [r3]
4000922c:	e51b3014 	ldr	r3, [fp, #-20]
40009230:	e2833001 	add	r3, r3, #1
40009234:	e50b3014 	str	r3, [fp, #-20]
40009238:	ea000052 	b	40009388 <vsprintf+0x8f0>
4000923c:	e51b303c 	ldr	r3, [fp, #-60]	; 0x3c
40009240:	e2433001 	sub	r3, r3, #1
40009244:	e50b303c 	str	r3, [fp, #-60]	; 0x3c
40009248:	ea00004e 	b	40009388 <vsprintf+0x8f0>
4000924c:	e1a00000 	nop			; (mov r0, r0)
40009250:	e51b3028 	ldr	r3, [fp, #-40]	; 0x28
40009254:	e353006c 	cmp	r3, #108	; 0x6c
40009258:	1a000005 	bne	40009274 <vsprintf+0x7dc>
4000925c:	e51b3040 	ldr	r3, [fp, #-64]	; 0x40
40009260:	e2832004 	add	r2, r3, #4
40009264:	e50b2040 	str	r2, [fp, #-64]	; 0x40
40009268:	e5933000 	ldr	r3, [r3]
4000926c:	e50b3008 	str	r3, [fp, #-8]
40009270:	ea000038 	b	40009358 <vsprintf+0x8c0>
40009274:	e51b3028 	ldr	r3, [fp, #-40]	; 0x28
40009278:	e353005a 	cmp	r3, #90	; 0x5a
4000927c:	0a000002 	beq	4000928c <vsprintf+0x7f4>
40009280:	e51b3028 	ldr	r3, [fp, #-40]	; 0x28
40009284:	e353007a 	cmp	r3, #122	; 0x7a
40009288:	1a000005 	bne	400092a4 <vsprintf+0x80c>
4000928c:	e51b3040 	ldr	r3, [fp, #-64]	; 0x40
40009290:	e2832004 	add	r2, r3, #4
40009294:	e50b2040 	str	r2, [fp, #-64]	; 0x40
40009298:	e5933000 	ldr	r3, [r3]
4000929c:	e50b3008 	str	r3, [fp, #-8]
400092a0:	ea00002c 	b	40009358 <vsprintf+0x8c0>
400092a4:	e51b3028 	ldr	r3, [fp, #-40]	; 0x28
400092a8:	e3530074 	cmp	r3, #116	; 0x74
400092ac:	1a000005 	bne	400092c8 <vsprintf+0x830>
400092b0:	e51b3040 	ldr	r3, [fp, #-64]	; 0x40
400092b4:	e2832004 	add	r2, r3, #4
400092b8:	e50b2040 	str	r2, [fp, #-64]	; 0x40
400092bc:	e5933000 	ldr	r3, [r3]
400092c0:	e50b3008 	str	r3, [fp, #-8]
400092c4:	ea000023 	b	40009358 <vsprintf+0x8c0>
400092c8:	e51b3028 	ldr	r3, [fp, #-40]	; 0x28
400092cc:	e3530068 	cmp	r3, #104	; 0x68
400092d0:	1a000011 	bne	4000931c <vsprintf+0x884>
400092d4:	e51b3040 	ldr	r3, [fp, #-64]	; 0x40
400092d8:	e2832004 	add	r2, r3, #4
400092dc:	e50b2040 	str	r2, [fp, #-64]	; 0x40
400092e0:	e5933000 	ldr	r3, [r3]
400092e4:	e1a03803 	lsl	r3, r3, #16
400092e8:	e1a03823 	lsr	r3, r3, #16
400092ec:	e50b3008 	str	r3, [fp, #-8]
400092f0:	e51b301c 	ldr	r3, [fp, #-28]
400092f4:	e2033002 	and	r3, r3, #2
400092f8:	e3530000 	cmp	r3, #0
400092fc:	0a000015 	beq	40009358 <vsprintf+0x8c0>
40009300:	e51b3008 	ldr	r3, [fp, #-8]
40009304:	e1a03803 	lsl	r3, r3, #16
40009308:	e1a03823 	lsr	r3, r3, #16
4000930c:	e1a03803 	lsl	r3, r3, #16
40009310:	e1a03843 	asr	r3, r3, #16
40009314:	e50b3008 	str	r3, [fp, #-8]
40009318:	ea00000e 	b	40009358 <vsprintf+0x8c0>
4000931c:	e51b301c 	ldr	r3, [fp, #-28]
40009320:	e2033002 	and	r3, r3, #2
40009324:	e3530000 	cmp	r3, #0
40009328:	0a000005 	beq	40009344 <vsprintf+0x8ac>
4000932c:	e51b3040 	ldr	r3, [fp, #-64]	; 0x40
40009330:	e2832004 	add	r2, r3, #4
40009334:	e50b2040 	str	r2, [fp, #-64]	; 0x40
40009338:	e5933000 	ldr	r3, [r3]
4000933c:	e50b3008 	str	r3, [fp, #-8]
40009340:	ea000004 	b	40009358 <vsprintf+0x8c0>
40009344:	e51b3040 	ldr	r3, [fp, #-64]	; 0x40
40009348:	e2832004 	add	r2, r3, #4
4000934c:	e50b2040 	str	r2, [fp, #-64]	; 0x40
40009350:	e5933000 	ldr	r3, [r3]
40009354:	e50b3008 	str	r3, [fp, #-8]
40009358:	e51b2008 	ldr	r2, [fp, #-8]
4000935c:	e51b3010 	ldr	r3, [fp, #-16]
40009360:	e51b1024 	ldr	r1, [fp, #-36]	; 0x24
40009364:	e58d1000 	str	r1, [sp]
40009368:	e51b101c 	ldr	r1, [fp, #-28]
4000936c:	e58d1004 	str	r1, [sp, #4]
40009370:	e51b0014 	ldr	r0, [fp, #-20]
40009374:	e1a01002 	mov	r1, r2
40009378:	e1a02003 	mov	r2, r3
4000937c:	e51b3020 	ldr	r3, [fp, #-32]
40009380:	ebfffc7e 	bl	40008580 <number>
40009384:	e50b0014 	str	r0, [fp, #-20]
40009388:	e51b303c 	ldr	r3, [fp, #-60]	; 0x3c
4000938c:	e2833001 	add	r3, r3, #1
40009390:	e50b303c 	str	r3, [fp, #-60]	; 0x3c
40009394:	e51b303c 	ldr	r3, [fp, #-60]	; 0x3c
40009398:	e5d33000 	ldrb	r3, [r3]
4000939c:	e3530000 	cmp	r3, #0
400093a0:	1afffdc5 	bne	40008abc <vsprintf+0x24>
400093a4:	e51b3014 	ldr	r3, [fp, #-20]
400093a8:	e3a02000 	mov	r2, #0
400093ac:	e5c32000 	strb	r2, [r3]
400093b0:	e51b2014 	ldr	r2, [fp, #-20]
400093b4:	e51b3038 	ldr	r3, [fp, #-56]	; 0x38
400093b8:	e0633002 	rsb	r3, r3, r2
400093bc:	e1a00003 	mov	r0, r3
400093c0:	e24bd004 	sub	sp, fp, #4
400093c4:	e8bd4800 	pop	{fp, lr}
400093c8:	e12fff1e 	bx	lr
400093cc:	400097d0 	ldrdmi	r9, [r0], -r0

400093d0 <sprintf>:
400093d0:	e92d000e 	push	{r1, r2, r3}
400093d4:	e92d4800 	push	{fp, lr}
400093d8:	e28db004 	add	fp, sp, #4
400093dc:	e24dd00c 	sub	sp, sp, #12
400093e0:	e50b0010 	str	r0, [fp, #-16]
400093e4:	e28b2008 	add	r2, fp, #8
400093e8:	e24b300c 	sub	r3, fp, #12
400093ec:	e5832000 	str	r2, [r3]
400093f0:	e51b300c 	ldr	r3, [fp, #-12]
400093f4:	e51b0010 	ldr	r0, [fp, #-16]
400093f8:	e59b1004 	ldr	r1, [fp, #4]
400093fc:	e1a02003 	mov	r2, r3
40009400:	ebfffda4 	bl	40008a98 <vsprintf>
40009404:	e50b0008 	str	r0, [fp, #-8]
40009408:	e51b3008 	ldr	r3, [fp, #-8]
4000940c:	e1a00003 	mov	r0, r3
40009410:	e24bd004 	sub	sp, fp, #4
40009414:	e8bd4800 	pop	{fp, lr}
40009418:	e28dd00c 	add	sp, sp, #12
4000941c:	e12fff1e 	bx	lr

40009420 <printf>:
40009420:	e92d000f 	push	{r0, r1, r2, r3}
40009424:	e92d4800 	push	{fp, lr}
40009428:	e28db004 	add	fp, sp, #4
4000942c:	e24dd06c 	sub	sp, sp, #108	; 0x6c
40009430:	e28b2008 	add	r2, fp, #8
40009434:	e24b300c 	sub	r3, fp, #12
40009438:	e5832000 	str	r2, [r3]
4000943c:	e51b300c 	ldr	r3, [fp, #-12]
40009440:	e24b2070 	sub	r2, fp, #112	; 0x70
40009444:	e1a00002 	mov	r0, r2
40009448:	e59b1004 	ldr	r1, [fp, #4]
4000944c:	e1a02003 	mov	r2, r3
40009450:	ebfffd90 	bl	40008a98 <vsprintf>
40009454:	e1a03000 	mov	r3, r0
40009458:	e50b3008 	str	r3, [fp, #-8]
4000945c:	e24b3070 	sub	r3, fp, #112	; 0x70
40009460:	e1a00003 	mov	r0, r3
40009464:	eb000033 	bl	40009538 <puts>
40009468:	e24bd004 	sub	sp, fp, #4
4000946c:	e8bd4800 	pop	{fp, lr}
40009470:	e28dd010 	add	sp, sp, #16
40009474:	e12fff1e 	bx	lr

40009478 <uart_init>:
40009478:	e52db004 	push	{fp}		; (str fp, [sp, #-4]!)
4000947c:	e28db000 	add	fp, sp, #0
40009480:	e59f304c 	ldr	r3, [pc, #76]	; 400094d4 <uart_init+0x5c>
40009484:	e59f2048 	ldr	r2, [pc, #72]	; 400094d4 <uart_init+0x5c>
40009488:	e5922000 	ldr	r2, [r2]
4000948c:	e3c220ff 	bic	r2, r2, #255	; 0xff
40009490:	e3822022 	orr	r2, r2, #34	; 0x22
40009494:	e5832000 	str	r2, [r3]
40009498:	e59f3038 	ldr	r3, [pc, #56]	; 400094d8 <uart_init+0x60>
4000949c:	e3a02003 	mov	r2, #3
400094a0:	e5832000 	str	r2, [r3]
400094a4:	e59f302c 	ldr	r3, [pc, #44]	; 400094d8 <uart_init+0x60>
400094a8:	e3a02005 	mov	r2, #5
400094ac:	e5832004 	str	r2, [r3, #4]
400094b0:	e59f3020 	ldr	r3, [pc, #32]	; 400094d8 <uart_init+0x60>
400094b4:	e3a02035 	mov	r2, #53	; 0x35
400094b8:	e5832028 	str	r2, [r3, #40]	; 0x28
400094bc:	e59f3014 	ldr	r3, [pc, #20]	; 400094d8 <uart_init+0x60>
400094c0:	e3a02005 	mov	r2, #5
400094c4:	e583202c 	str	r2, [r3, #44]	; 0x2c
400094c8:	e28bd000 	add	sp, fp, #0
400094cc:	e8bd0800 	pop	{fp}
400094d0:	e12fff1e 	bx	lr
400094d4:	11400020 	cmpne	r0, r0, lsr #32
400094d8:	13820000 	orrne	r0, r2, #0

400094dc <putc>:
400094dc:	e92d4800 	push	{fp, lr}
400094e0:	e28db004 	add	fp, sp, #4
400094e4:	e24dd004 	sub	sp, sp, #4
400094e8:	e1a03000 	mov	r3, r0
400094ec:	e54b3008 	strb	r3, [fp, #-8]
400094f0:	e1a00000 	nop			; (mov r0, r0)
400094f4:	e59f3038 	ldr	r3, [pc, #56]	; 40009534 <putc+0x58>
400094f8:	e5933010 	ldr	r3, [r3, #16]
400094fc:	e2033002 	and	r3, r3, #2
40009500:	e3530000 	cmp	r3, #0
40009504:	0afffffa 	beq	400094f4 <putc+0x18>
40009508:	e59f3024 	ldr	r3, [pc, #36]	; 40009534 <putc+0x58>
4000950c:	e55b2008 	ldrb	r2, [fp, #-8]
40009510:	e5832020 	str	r2, [r3, #32]
40009514:	e55b3008 	ldrb	r3, [fp, #-8]
40009518:	e353000a 	cmp	r3, #10
4000951c:	1a000001 	bne	40009528 <putc+0x4c>
40009520:	e3a0000d 	mov	r0, #13
40009524:	ebffffec 	bl	400094dc <putc>
40009528:	e24bd004 	sub	sp, fp, #4
4000952c:	e8bd4800 	pop	{fp, lr}
40009530:	e12fff1e 	bx	lr
40009534:	13820000 	orrne	r0, r2, #0

40009538 <puts>:
40009538:	e92d4800 	push	{fp, lr}
4000953c:	e28db004 	add	fp, sp, #4
40009540:	e24dd004 	sub	sp, sp, #4
40009544:	e50b0008 	str	r0, [fp, #-8]
40009548:	ea000006 	b	40009568 <puts+0x30>
4000954c:	e51b3008 	ldr	r3, [fp, #-8]
40009550:	e5d33000 	ldrb	r3, [r3]
40009554:	e51b2008 	ldr	r2, [fp, #-8]
40009558:	e2822001 	add	r2, r2, #1
4000955c:	e50b2008 	str	r2, [fp, #-8]
40009560:	e1a00003 	mov	r0, r3
40009564:	ebffffdc 	bl	400094dc <putc>
40009568:	e51b3008 	ldr	r3, [fp, #-8]
4000956c:	e5d33000 	ldrb	r3, [r3]
40009570:	e3530000 	cmp	r3, #0
40009574:	1afffff4 	bne	4000954c <puts+0x14>
40009578:	e24bd004 	sub	sp, fp, #4
4000957c:	e8bd4800 	pop	{fp, lr}
40009580:	e12fff1e 	bx	lr

40009584 <do_irq>:
40009584:	e52db004 	push	{fp}		; (str fp, [sp, #-4]!)
40009588:	e28db000 	add	fp, sp, #0
4000958c:	e24dd004 	sub	sp, sp, #4
40009590:	e59f30e8 	ldr	r3, [pc, #232]	; 40009680 <do_irq+0xfc>
40009594:	e593300c 	ldr	r3, [r3, #12]
40009598:	e1a03b03 	lsl	r3, r3, #22
4000959c:	e1a03b23 	lsr	r3, r3, #22
400095a0:	e50b3004 	str	r3, [fp, #-4]
400095a4:	e51b3004 	ldr	r3, [fp, #-4]
400095a8:	e3530039 	cmp	r3, #57	; 0x39
400095ac:	0a000006 	beq	400095cc <do_irq+0x48>
400095b0:	e3530039 	cmp	r3, #57	; 0x39
400095b4:	3a000021 	bcc	40009640 <do_irq+0xbc>
400095b8:	e353003a 	cmp	r3, #58	; 0x3a
400095bc:	0a000021 	beq	40009648 <do_irq+0xc4>
400095c0:	e353003b 	cmp	r3, #59	; 0x3b
400095c4:	0a000021 	beq	40009650 <do_irq+0xcc>
400095c8:	ea00001c 	b	40009640 <do_irq+0xbc>
400095cc:	e59f30b0 	ldr	r3, [pc, #176]	; 40009684 <do_irq+0x100>
400095d0:	e5933000 	ldr	r3, [r3]
400095d4:	e2832001 	add	r2, r3, #1
400095d8:	e59f30a4 	ldr	r3, [pc, #164]	; 40009684 <do_irq+0x100>
400095dc:	e5832000 	str	r2, [r3]
400095e0:	e59f309c 	ldr	r3, [pc, #156]	; 40009684 <do_irq+0x100>
400095e4:	e5933000 	ldr	r3, [r3]
400095e8:	e2033001 	and	r3, r3, #1
400095ec:	e20330ff 	and	r3, r3, #255	; 0xff
400095f0:	e3530000 	cmp	r3, #0
400095f4:	0a000005 	beq	40009610 <do_irq+0x8c>
400095f8:	e59f3088 	ldr	r3, [pc, #136]	; 40009688 <do_irq+0x104>
400095fc:	e59f2084 	ldr	r2, [pc, #132]	; 40009688 <do_irq+0x104>
40009600:	e5922004 	ldr	r2, [r2, #4]
40009604:	e3822080 	orr	r2, r2, #128	; 0x80
40009608:	e5832004 	str	r2, [r3, #4]
4000960c:	ea000004 	b	40009624 <do_irq+0xa0>
40009610:	e59f3070 	ldr	r3, [pc, #112]	; 40009688 <do_irq+0x104>
40009614:	e59f206c 	ldr	r2, [pc, #108]	; 40009688 <do_irq+0x104>
40009618:	e5922004 	ldr	r2, [r2, #4]
4000961c:	e3c22080 	bic	r2, r2, #128	; 0x80
40009620:	e5832004 	str	r2, [r3, #4]
40009624:	e59f3060 	ldr	r3, [pc, #96]	; 4000968c <do_irq+0x108>
40009628:	e3a02002 	mov	r2, #2
4000962c:	e5832000 	str	r2, [r3]
40009630:	e59f3058 	ldr	r3, [pc, #88]	; 40009690 <do_irq+0x10c>
40009634:	e3a02402 	mov	r2, #33554432	; 0x2000000
40009638:	e5832004 	str	r2, [r3, #4]
4000963c:	ea000004 	b	40009654 <do_irq+0xd0>
40009640:	e1a00000 	nop			; (mov r0, r0)
40009644:	ea000002 	b	40009654 <do_irq+0xd0>
40009648:	e1a00000 	nop			; (mov r0, r0)
4000964c:	ea000000 	b	40009654 <do_irq+0xd0>
40009650:	e1a00000 	nop			; (mov r0, r0)
40009654:	e59f2024 	ldr	r2, [pc, #36]	; 40009680 <do_irq+0xfc>
40009658:	e59f3020 	ldr	r3, [pc, #32]	; 40009680 <do_irq+0xfc>
4000965c:	e5933010 	ldr	r3, [r3, #16]
40009660:	e3c33fff 	bic	r3, r3, #1020	; 0x3fc
40009664:	e3c33003 	bic	r3, r3, #3
40009668:	e51b1004 	ldr	r1, [fp, #-4]
4000966c:	e1833001 	orr	r3, r3, r1
40009670:	e5823010 	str	r3, [r2, #16]
40009674:	e28bd000 	add	sp, fp, #0
40009678:	e8bd0800 	pop	{fp}
4000967c:	e12fff1e 	bx	lr
40009680:	10480000 	subne	r0, r8, r0
40009684:	4000a0d8 	ldrdmi	sl, [r0], -r8
40009688:	11000c40 	tstne	r0, r0, asr #24
4000968c:	11000f44 	tstne	r0, r4, asr #30
40009690:	10490280 	subne	r0, r9, r0, lsl #5

40009694 <main>:
40009694:	e52db004 	push	{fp}		; (str fp, [sp, #-4]!)
40009698:	e28db000 	add	fp, sp, #0
4000969c:	e59f30bc 	ldr	r3, [pc, #188]	; 40009760 <main+0xcc>
400096a0:	e59f20b8 	ldr	r2, [pc, #184]	; 40009760 <main+0xcc>
400096a4:	e5922000 	ldr	r2, [r2]
400096a8:	e38220f0 	orr	r2, r2, #240	; 0xf0
400096ac:	e5832000 	str	r2, [r3]
400096b0:	e59f30ac 	ldr	r3, [pc, #172]	; 40009764 <main+0xd0>
400096b4:	e59f20a8 	ldr	r2, [pc, #168]	; 40009764 <main+0xd0>
400096b8:	e5922000 	ldr	r2, [r2]
400096bc:	e3c22070 	bic	r2, r2, #112	; 0x70
400096c0:	e3822020 	orr	r2, r2, #32
400096c4:	e5832000 	str	r2, [r3]
400096c8:	e59f3098 	ldr	r3, [pc, #152]	; 40009768 <main+0xd4>
400096cc:	e59f2094 	ldr	r2, [pc, #148]	; 40009768 <main+0xd4>
400096d0:	e5922000 	ldr	r2, [r2]
400096d4:	e3c22002 	bic	r2, r2, #2
400096d8:	e5832000 	str	r2, [r3]
400096dc:	e59f3088 	ldr	r3, [pc, #136]	; 4000976c <main+0xd8>
400096e0:	e59f2084 	ldr	r2, [pc, #132]	; 4000976c <main+0xd8>
400096e4:	e5922000 	ldr	r2, [r2]
400096e8:	e3822001 	orr	r2, r2, #1
400096ec:	e5832000 	str	r2, [r3]
400096f0:	e59f3074 	ldr	r3, [pc, #116]	; 4000976c <main+0xd8>
400096f4:	e59f2070 	ldr	r2, [pc, #112]	; 4000976c <main+0xd8>
400096f8:	e5922004 	ldr	r2, [r2, #4]
400096fc:	e38220ff 	orr	r2, r2, #255	; 0xff
40009700:	e5832004 	str	r2, [r3, #4]
40009704:	e59f3064 	ldr	r3, [pc, #100]	; 40009770 <main+0xdc>
40009708:	e59f2060 	ldr	r2, [pc, #96]	; 40009770 <main+0xdc>
4000970c:	e5922000 	ldr	r2, [r2]
40009710:	e3822001 	orr	r2, r2, #1
40009714:	e5832000 	str	r2, [r3]
40009718:	e59f3054 	ldr	r3, [pc, #84]	; 40009774 <main+0xe0>
4000971c:	e59f2050 	ldr	r2, [pc, #80]	; 40009774 <main+0xe0>
40009720:	e5922004 	ldr	r2, [r2, #4]
40009724:	e3822402 	orr	r2, r2, #33554432	; 0x2000000
40009728:	e5832004 	str	r2, [r3, #4]
4000972c:	e59f3044 	ldr	r3, [pc, #68]	; 40009778 <main+0xe4>
40009730:	e59f2040 	ldr	r2, [pc, #64]	; 40009778 <main+0xe4>
40009734:	e5922038 	ldr	r2, [r2, #56]	; 0x38
40009738:	e3c22cff 	bic	r2, r2, #65280	; 0xff00
4000973c:	e3822c01 	orr	r2, r2, #256	; 0x100
40009740:	e5832038 	str	r2, [r3, #56]	; 0x38
40009744:	e59f3030 	ldr	r3, [pc, #48]	; 4000977c <main+0xe8>
40009748:	e59f202c 	ldr	r2, [pc, #44]	; 4000977c <main+0xe8>
4000974c:	e5922000 	ldr	r2, [r2]
40009750:	e3c2220f 	bic	r2, r2, #-268435456	; 0xf0000000
40009754:	e3822201 	orr	r2, r2, #268435456	; 0x10000000
40009758:	e5832000 	str	r2, [r3]
4000975c:	eafffffe 	b	4000975c <main+0xc8>
40009760:	11000c20 	tstne	r0, r0, lsr #24
40009764:	11000e04 	tstne	r0, r4, lsl #28
40009768:	11000f04 	tstne	r0, r4, lsl #30
4000976c:	10480000 	subne	r0, r8, r0
40009770:	10490000 	subne	r0, r9, r0
40009774:	10490100 	subne	r0, r9, r0, lsl #2
40009778:	10490800 	subne	r0, r9, r0, lsl #16
4000977c:	11000c40 	tstne	r0, r0, asr #24

Disassembly of section .rodata:

40009780 <.rodata>:
40009780:	33323130 	teqcc	r2, #12
40009784:	37363534 			; <UNDEFINED> instruction: 0x37363534
40009788:	62613938 	rsbvs	r3, r1, #917504	; 0xe0000
4000978c:	66656463 	strbtvs	r6, [r5], -r3, ror #8
40009790:	6a696867 	bvs	41a63934 <Num+0x1a5985c>
40009794:	6e6d6c6b 	cdpvs	12, 6, cr6, cr13, cr11, {3}
40009798:	7271706f 	rsbsvc	r7, r1, #111	; 0x6f
4000979c:	76757473 			; <UNDEFINED> instruction: 0x76757473
400097a0:	7a797877 	bvc	41e67984 <Num+0x1e5d8ac>
400097a4:	00000000 	andeq	r0, r0, r0
400097a8:	33323130 	teqcc	r2, #12
400097ac:	37363534 			; <UNDEFINED> instruction: 0x37363534
400097b0:	42413938 	submi	r3, r1, #917504	; 0xe0000
400097b4:	46454443 	strbmi	r4, [r5], -r3, asr #8
400097b8:	4a494847 	bmi	4125b8dc <Num+0x1251804>
400097bc:	4e4d4c4b 	cdpmi	12, 4, cr4, cr13, cr11, {2}
400097c0:	5251504f 	subspl	r5, r1, #79	; 0x4f
400097c4:	56555453 			; <UNDEFINED> instruction: 0x56555453
400097c8:	5a595857 	bpl	4165f92c <Num+0x1655854>
400097cc:	00000000 	andeq	r0, r0, r0
400097d0:	4c554e3c 	mrrcmi	14, 3, r4, r5, cr12
400097d4:	00003e4c 	andeq	r3, r0, ip, asr #28

Disassembly of section .data:

400097d8 <stack>:
	...

40009fd8 <_ctype>:
40009fd8:	08080808 	stmdaeq	r8, {r3, fp}
40009fdc:	08080808 	stmdaeq	r8, {r3, fp}
40009fe0:	28282808 	stmdacs	r8!, {r3, fp, sp}
40009fe4:	08082828 	stmdaeq	r8, {r3, r5, fp, sp}
40009fe8:	08080808 	stmdaeq	r8, {r3, fp}
40009fec:	08080808 	stmdaeq	r8, {r3, fp}
40009ff0:	08080808 	stmdaeq	r8, {r3, fp}
40009ff4:	08080808 	stmdaeq	r8, {r3, fp}
40009ff8:	101010a0 	andsne	r1, r0, r0, lsr #1
40009ffc:	10101010 	andsne	r1, r0, r0, lsl r0
4000a000:	10101010 	andsne	r1, r0, r0, lsl r0
4000a004:	10101010 	andsne	r1, r0, r0, lsl r0
4000a008:	04040404 	streq	r0, [r4], #-1028	; 0x404
4000a00c:	04040404 	streq	r0, [r4], #-1028	; 0x404
4000a010:	10100404 	andsne	r0, r0, r4, lsl #8
4000a014:	10101010 	andsne	r1, r0, r0, lsl r0
4000a018:	41414110 	cmpmi	r1, r0, lsl r1
4000a01c:	01414141 	cmpeq	r1, r1, asr #2
4000a020:	01010101 	tsteq	r1, r1, lsl #2
4000a024:	01010101 	tsteq	r1, r1, lsl #2
4000a028:	01010101 	tsteq	r1, r1, lsl #2
4000a02c:	01010101 	tsteq	r1, r1, lsl #2
4000a030:	10010101 	andne	r0, r1, r1, lsl #2
4000a034:	10101010 	andsne	r1, r0, r0, lsl r0
4000a038:	42424210 	submi	r4, r2, #1
4000a03c:	02424242 	subeq	r4, r2, #536870916	; 0x20000004
4000a040:	02020202 	andeq	r0, r2, #536870912	; 0x20000000
4000a044:	02020202 	andeq	r0, r2, #536870912	; 0x20000000
4000a048:	02020202 	andeq	r0, r2, #536870912	; 0x20000000
4000a04c:	02020202 	andeq	r0, r2, #536870912	; 0x20000000
4000a050:	10020202 	andne	r0, r2, r2, lsl #4
4000a054:	08101010 	ldmdaeq	r0, {r4, ip}
	...
4000a078:	101010a0 	andsne	r1, r0, r0, lsr #1
4000a07c:	10101010 	andsne	r1, r0, r0, lsl r0
4000a080:	10101010 	andsne	r1, r0, r0, lsl r0
4000a084:	10101010 	andsne	r1, r0, r0, lsl r0
4000a088:	10101010 	andsne	r1, r0, r0, lsl r0
4000a08c:	10101010 	andsne	r1, r0, r0, lsl r0
4000a090:	10101010 	andsne	r1, r0, r0, lsl r0
4000a094:	10101010 	andsne	r1, r0, r0, lsl r0
4000a098:	01010101 	tsteq	r1, r1, lsl #2
4000a09c:	01010101 	tsteq	r1, r1, lsl #2
4000a0a0:	01010101 	tsteq	r1, r1, lsl #2
4000a0a4:	01010101 	tsteq	r1, r1, lsl #2
4000a0a8:	01010101 	tsteq	r1, r1, lsl #2
4000a0ac:	10010101 	andne	r0, r1, r1, lsl #2
4000a0b0:	01010101 	tsteq	r1, r1, lsl #2
4000a0b4:	02010101 	andeq	r0, r1, #1073741824	; 0x40000000
4000a0b8:	02020202 	andeq	r0, r2, #536870912	; 0x20000000
4000a0bc:	02020202 	andeq	r0, r2, #536870912	; 0x20000000
4000a0c0:	02020202 	andeq	r0, r2, #536870912	; 0x20000000
4000a0c4:	02020202 	andeq	r0, r2, #536870912	; 0x20000000
4000a0c8:	02020202 	andeq	r0, r2, #536870912	; 0x20000000
4000a0cc:	10020202 	andne	r0, r2, r2, lsl #4
4000a0d0:	02020202 	andeq	r0, r2, #536870912	; 0x20000000
4000a0d4:	02020202 	andeq	r0, r2, #536870912	; 0x20000000

Disassembly of section .bss:

4000a0d8 <Num>:
4000a0d8:	00000000 	andeq	r0, r0, r0

Disassembly of section .ARM.attributes:

00000000 <.ARM.attributes>:
   0:	00000f41 	andeq	r0, r0, r1, asr #30
   4:	61656100 	cmnvs	r5, r0, lsl #2
   8:	01006962 	tsteq	r0, r2, ror #18
   c:	00000005 	andeq	r0, r0, r5

Disassembly of section .comment:

00000000 <.comment>:
   0:	3a434347 	bcc	10d0d24 <_start-0x3ef372dc>
   4:	4e472820 	cdpmi	8, 4, cr2, cr7, cr0, {1}
   8:	34202955 	strtcc	r2, [r0], #-2389	; 0x955
   c:	322e362e 	eorcc	r3, lr, #48234496	; 0x2e00000
	...

Disassembly of section .debug_line:

00000000 <.debug_line>:
   0:	00000079 	andeq	r0, r0, r9, ror r0
   4:	00240002 	eoreq	r0, r4, r2
   8:	01020000 	mrseq	r0, (UNDEF: 2)
   c:	000d0efb 	strdeq	r0, [sp], -fp
  10:	01010101 	tsteq	r1, r1, lsl #2
  14:	01000000 	mrseq	r0, (UNDEF: 0)
  18:	73010000 	movwvc	r0, #4096	; 0x1000
  1c:	74726174 	ldrbtvc	r6, [r2], #-372	; 0x174
  20:	74730000 	ldrbtvc	r0, [r3]
  24:	2e747261 	cdpcs	2, 7, cr7, cr4, cr1, {3}
  28:	00010053 	andeq	r0, r1, r3, asr r0
  2c:	05000000 	streq	r0, [r0]
  30:	00800002 	addeq	r0, r0, r2
  34:	2f2f1640 	svccs	0x002f1640
  38:	2f302f2f 	svccs	0x00302f2f
  3c:	f20e032f 	vcgt.s8	d0, d14, d31
  40:	2f2f312f 	svccs	0x002f312f
  44:	342f302f 	strtcc	r3, [pc], #-47	; 4c <_start-0x40007fb4>
  48:	2f322f2f 	svccs	0x00322f2f
  4c:	2f2f2f33 	svccs	0x002f2f33
  50:	322f2f2f 	eorcc	r2, pc, #188	; 0xbc
  54:	2f2f2f2f 	svccs	0x002f2f2f
  58:	2f2f2f30 	svccs	0x002f2f30
  5c:	2f2f2f30 	svccs	0x002f2f30
  60:	31303233 	teqcc	r0, r3, lsr r2
  64:	2f303030 	svccs	0x00303030
  68:	2f2f302f 	svccs	0x002f302f
  6c:	302f2f30 	eorcc	r2, pc, r0, lsr pc	; <UNPREDICTABLE>
  70:	0b03312f 	bleq	cc534 <_start-0x3ff3bacc>
  74:	30323066 	eorscc	r3, r2, r6, rrx
  78:	01000c02 	tsteq	r0, r2, lsl #24
  7c:	00006501 	andeq	r6, r0, r1, lsl #10
  80:	2c000200 	sfmcs	f0, 4, [r0], {0}
  84:	02000000 	andeq	r0, r0, #0
  88:	0d0efb01 	vstreq	d15, [lr, #-4]
  8c:	01010100 	mrseq	r0, (UNDEF: 17)
  90:	00000001 	andeq	r0, r0, r1
  94:	01000001 	tsteq	r0, r1
  98:	6d6d6f63 	stclvs	15, cr6, [sp, #-396]!	; 0xfffffe74
  9c:	732f6e6f 	teqvc	pc, #1776	; 0x6f0
  a0:	00006372 	andeq	r6, r0, r2, ror r3
  a4:	6964755f 	stmdbvs	r4!, {r0, r1, r2, r3, r4, r6, r8, sl, ip, sp, lr}^
  a8:	33697376 	cmncc	r9, #-671088639	; 0xd8000001
  ac:	0100532e 	tsteq	r0, lr, lsr #6
  b0:	00000000 	andeq	r0, r0, r0
  b4:	81400205 	cmphi	r0, r5, lsl #4
  b8:	11034000 	mrsne	r4, (UNDEF: 3)
  bc:	2f2f2f01 	svccs	0x002f2f01
  c0:	2f342f2f 	svccs	0x00342f2f
  c4:	322f2f2f 	eorcc	r2, pc, #188	; 0xbc
  c8:	2f2f2f2f 	svccs	0x002f2f2f
  cc:	2f2f2f34 	svccs	0x002f2f34
  d0:	2f2f2f2f 	svccs	0x002f2f2f
  d4:	2f2f2f2f 	svccs	0x002f2f2f
  d8:	2f2f2f2f 	svccs	0x002f2f2f
  dc:	30302f30 	eorscc	r2, r0, r0, lsr pc
  e0:	0002022f 	andeq	r0, r2, pc, lsr #4
  e4:	006c0101 	rsbeq	r0, ip, r1, lsl #2
  e8:	00020000 	andeq	r0, r2, r0
  ec:	0000002c 	andeq	r0, r0, ip, lsr #32
  f0:	0efb0102 	cdpeq	1, 15, cr0, cr11, cr2, {0}
  f4:	0101000d 	tsteq	r1, sp
  f8:	00000101 	andeq	r0, r0, r1, lsl #2
  fc:	00000100 	andeq	r0, r0, r0, lsl #2
 100:	6d6f6301 	stclvs	3, cr6, [pc, #-4]!	; 104 <_start-0x40007efc>
 104:	2f6e6f6d 	svccs	0x006e6f6d
 108:	00637273 	rsbeq	r7, r3, r3, ror r2
 10c:	6d755f00 	ldclvs	15, cr5, [r5]
 110:	6973646f 	ldmdbvs	r3!, {r0, r1, r2, r3, r5, r6, sl, sp, lr}^
 114:	00532e33 	subseq	r2, r3, r3, lsr lr
 118:	00000001 	andeq	r0, r0, r1
 11c:	d4020500 	strle	r0, [r2], #-1280	; 0x500
 120:	03400081 	movteq	r0, #129	; 0x81
 124:	2f2f0112 	svccs	0x002f0112
 128:	2f342f2f 	svccs	0x00342f2f
 12c:	322f2f2f 	eorcc	r2, pc, #188	; 0xbc
 130:	2f2f2f2f 	svccs	0x002f2f2f
 134:	2f2f2f33 	svccs	0x002f2f33
 138:	2f2f2f2f 	svccs	0x002f2f2f
 13c:	2f2f2f2f 	svccs	0x002f2f2f
 140:	2f2f2f2f 	svccs	0x002f2f2f
 144:	2f2f352f 	svccs	0x002f352f
 148:	2f2f2f2f 	svccs	0x002f2f2f
 14c:	30302f2f 	eorscc	r2, r0, pc, lsr #30
 150:	0002022f 	andeq	r0, r2, pc, lsr #4
 154:	02530101 	subseq	r0, r3, #1073741824	; 0x40000000
 158:	00020000 	andeq	r0, r2, r0
 15c:	00000052 	andeq	r0, r0, r2, asr r0
 160:	0efb0102 	cdpeq	1, 15, cr0, cr11, cr2, {0}
 164:	0101000d 	tsteq	r1, sp
 168:	00000101 	andeq	r0, r0, r1, lsl #2
 16c:	00000100 	andeq	r0, r0, r0, lsl #2
 170:	632f2e01 	teqvs	pc, #16
 174:	6f6d6d6f 	svcvs	0x006d6d6f
 178:	6e692f6e 	cdpvs	15, 6, cr2, cr9, cr14, {3}
 17c:	64756c63 	ldrbtvs	r6, [r5], #-3171	; 0xc63
 180:	6f630065 	svcvs	0x00630065
 184:	6e6f6d6d 	cdpvs	13, 6, cr6, cr15, cr13, {3}
 188:	6372732f 	cmnvs	r2, #-1140850688	; 0xbc000000
 18c:	74630000 	strbtvc	r0, [r3]
 190:	2e657079 	mcrcs	0, 3, r7, cr5, cr9, {3}
 194:	00010068 	andeq	r0, r1, r8, rrx
 198:	69727000 	ldmdbvs	r2!, {ip, sp, lr}^
 19c:	2e66746e 	cdpcs	4, 6, cr7, cr6, cr14, {3}
 1a0:	00020063 	andeq	r0, r2, r3, rrx
 1a4:	64747300 	ldrbtvs	r7, [r4], #-768	; 0x300
 1a8:	2e677261 	cdpcs	2, 6, cr7, cr7, cr1, {3}
 1ac:	00010068 	andeq	r0, r1, r8, rrx
 1b0:	05000000 	streq	r0, [r0]
 1b4:	00828402 	addeq	r8, r2, r2, lsl #8
 1b8:	00c40340 	sbceq	r0, r4, r0, asr #6
 1bc:	67bb9f01 	ldrvs	r9, [fp, r1, lsl #30]!
 1c0:	0302042f 	movweq	r0, #9263	; 0x242f
 1c4:	bb9e7fbf 	bllt	fe7a00c8 <Num+0xbe795ff0>
 1c8:	0067834c 	rsbeq	r8, r7, ip, asr #6
 1cc:	06010402 	streq	r0, [r1], -r2, lsl #8
 1d0:	4bf30682 	blmi	ffcc1be0 <Num+0xbfcb7b08>
 1d4:	674d6768 	strbvs	r6, [sp, -r8, ror #14]
 1d8:	7fbb304c 	svcvc	0x00bb304c
 1dc:	01040200 	mrseq	r0, R12_usr
 1e0:	02002e06 	andeq	r2, r0, #96	; 0x60
 1e4:	00d60204 	sbcseq	r0, r6, r4, lsl #4
 1e8:	d6010402 	strle	r0, [r1], -r2, lsl #8
 1ec:	02040200 	andeq	r0, r4, #0
 1f0:	00d70682 	sbcseq	r0, r7, r2, lsl #13
 1f4:	06030402 	streq	r0, [r3], -r2, lsl #8
 1f8:	040200d6 	streq	r0, [r2], #-214	; 0xd6
 1fc:	a3650605 	cmnge	r5, #5242880	; 0x500000
 200:	a12f6767 	teqge	pc, r7, ror #14
 204:	210883bb 			; <UNDEFINED> instruction: 0x210883bb
 208:	8224039f 	eorhi	r0, r4, #2080374786	; 0x7c000002
 20c:	002f4c83 	eoreq	r4, pc, r3, lsl #25
 210:	08010402 	stmdaeq	r1, {r1, sl}
 214:	040200c7 	streq	r0, [r2], #-199	; 0xc7
 218:	069e0602 	ldreq	r0, [lr], r2, lsl #12
 21c:	20032fa0 	andcs	r2, r3, r0, lsr #31
 220:	834dd882 	movthi	sp, #55426	; 0xd882
 224:	0067834b 	rsbeq	r8, r7, fp, asr #6
 228:	06010402 	streq	r0, [r1], -r2, lsl #8
 22c:	4b670666 	blmi	19c1bcc <_start-0x3e646434>
 230:	01040200 	mrseq	r0, R12_usr
 234:	02009e06 	andeq	r9, r0, #96	; 0x60
 238:	004a0204 	subeq	r0, sl, r4, lsl #4
 23c:	2e030402 	cdpcs	4, 0, cr0, cr3, cr2, {0}
 240:	03040200 	movweq	r0, #16896	; 0x4200
 244:	02002f06 	andeq	r2, r0, #24
 248:	834b0304 	movthi	r0, #45828	; 0xb304
 24c:	83674b67 	cmnhi	r7, #105472	; 0x19c00
 250:	83834b83 	orrhi	r4, r3, #134144	; 0x20c00
 254:	6783694b 	strvs	r6, [r3, fp, asr #18]
 258:	4b686783 	blmi	1a1a06c <_start-0x3e5edf94>
 25c:	835a0867 	cmphi	sl, #6750208	; 0x670000
 260:	01040200 	mrseq	r0, R12_usr
 264:	69103202 	ldmdbvs	r0, {r1, r9, ip, sp}
 268:	2f83834b 	svccs	0x0083834b
 26c:	01040200 	mrseq	r0, R12_usr
 270:	673e08b9 			; <UNDEFINED> instruction: 0x673e08b9
 274:	d76783bb 			; <UNDEFINED> instruction: 0xd76783bb
 278:	83d9bb67 	bicshi	fp, r9, #105472	; 0x19c00
 27c:	0402002f 	streq	r0, [r2], #-47	; 0x2f
 280:	3e08b901 	cdpcc	9, 0, cr11, cr8, cr1, {0}
 284:	0200d52f 	andeq	sp, r0, #197132288	; 0xbc00000
 288:	2e060104 	adfcss	f0, f6, f4
 28c:	2f5a0806 	svccs	0x005a0806
 290:	01040200 	mrseq	r0, R12_usr
 294:	3e085708 	cdpcc	7, 0, cr5, cr8, cr8, {0}
 298:	0402002f 	streq	r0, [r2], #-47	; 0x2f
 29c:	3e08b901 	cdpcc	9, 0, cr11, cr8, cr1, {0}
 2a0:	00a1bf2f 	adceq	fp, r1, pc, lsr #30
 2a4:	06010402 	streq	r0, [r1], -r2, lsl #8
 2a8:	04020066 	streq	r0, [r2], #-102	; 0x66
 2ac:	06900802 	ldreq	r0, [r0], r2, lsl #16
 2b0:	03846784 	orreq	r6, r4, #34603008	; 0x2100000
 2b4:	8367ba12 	cmnhi	r7, #73728	; 0x12000
 2b8:	674c32d7 			; <UNDEFINED> instruction: 0x674c32d7
 2bc:	83132e02 	tsthi	r3, #32
 2c0:	86838383 	strhi	r8, [r3], r3, lsl #7
 2c4:	0402004b 	streq	r0, [r2], #-75	; 0x4b
 2c8:	06820601 	streq	r0, [r2], r1, lsl #12
 2cc:	68839f83 	stmvs	r3, {r0, r1, r7, r8, r9, sl, fp, ip, pc}
 2d0:	6b67679f 	blvs	19da154 <_start-0x3e62deac>
 2d4:	0067834b 	rsbeq	r8, r7, fp, asr #6
 2d8:	06010402 	streq	r0, [r1], -r2, lsl #8
 2dc:	9f830682 	svcls	0x00830682
 2e0:	67a06883 	strvs	r6, [r0, r3, lsl #17]!
 2e4:	02004b4e 	andeq	r4, r0, #79872	; 0x13800
 2e8:	82060104 	andhi	r0, r6, #1
 2ec:	01040200 	mrseq	r0, R12_usr
 2f0:	0200f306 	andeq	pc, r0, #402653184	; 0x18000000
 2f4:	4b490104 	blmi	124070c <_start-0x3edc78f4>
 2f8:	01040200 	mrseq	r0, R12_usr
 2fc:	02008206 	andeq	r8, r0, #1610612736	; 0x60000000
 300:	83060104 	movwhi	r0, #24836	; 0x6104
 304:	01040200 	mrseq	r0, R12_usr
 308:	00674c49 	rsbeq	r4, r7, r9, asr #24
 30c:	06010402 	streq	r0, [r1], -r2, lsl #8
 310:	4b9f0666 	blmi	fe7c1cb0 <Num+0xbe7b7bd8>
 314:	024c6a68 	subeq	r6, ip, #425984	; 0x68000
 318:	831401b4 	tsthi	r4, #45	; 0x2d
 31c:	0402002f 	streq	r0, [r2], #-47	; 0x2f
 320:	08bcb901 	ldmeq	ip!, {r0, r8, fp, ip, sp, pc}
 324:	02002f3d 	andeq	r2, r0, #244	; 0xf4
 328:	bcb90104 	ldflts	f0, [r9], #16
 32c:	4c679f31 	stclmi	15, cr9, [r7], #-196	; 0xffffff3c
 330:	002f83bc 			; <UNDEFINED> instruction: 0x002f83bc
 334:	b9010402 	stmdblt	r1, {r1, sl}
 338:	02005a08 	andeq	r5, r0, #32768	; 0x8000
 33c:	00670204 	rsbeq	r0, r7, r4, lsl #4
 340:	08020402 	stmdaeq	r2, {r1, sl}
 344:	0402003b 	streq	r0, [r2], #-59	; 0x3b
 348:	06660601 	strbteq	r0, [r6], -r1, lsl #12
 34c:	02002f84 	andeq	r2, r0, #528	; 0x210
 350:	08b90104 	ldmeq	r9!, {r2, r8}
 354:	4b67315a 	blmi	19cc8c4 <_start-0x3e63b73c>
 358:	3f088169 	svccc	0x00088169
 35c:	a39f6732 	orrsge	r6, pc, #13107200	; 0xc80000
 360:	31a09f2b 	lsrcc	r9, fp, #30
 364:	314b32bb 	strhcc	r3, [fp, #-43]	; 0xffffffd5
 368:	68324b68 	ldmdavs	r2!, {r3, r5, r6, r8, r9, fp, lr}
 36c:	d983bb31 	stmible	r3, {r0, r4, r5, r8, r9, fp, ip, sp, pc}
 370:	7803672d 	stmdavc	r3, {r0, r2, r3, r5, r8, r9, sl, sp, lr}
 374:	2e0f032e 	cdpcs	3, 0, cr0, cr15, cr14, {1}
 378:	0200bb67 	andeq	fp, r0, #105472	; 0x19c00
 37c:	66060104 	strvs	r0, [r6], -r4, lsl #2
 380:	67bb6706 	ldrvs	r6, [fp, r6, lsl #14]!
 384:	83d767bb 	bicshi	r6, r7, #49020928	; 0x2ec0000
 388:	9fbc83d7 	svcls	0x00bc83d7
 38c:	087ee203 	ldmdaeq	lr!, {r0, r1, r9, sp, lr, pc}^
 390:	04020074 	streq	r0, [r2], #-116	; 0x74
 394:	06660601 	strbteq	r0, [r6], -r1, lsl #12
 398:	8201a003 	andhi	sl, r1, #3
 39c:	a2a16767 	adcge	r6, r1, #27000832	; 0x19c0000
 3a0:	a12fbc67 	teqge	pc, r7, ror #24
 3a4:	67f46b86 	ldrbvs	r6, [r4, r6, lsl #23]!
 3a8:	01000802 	tsteq	r0, r2, lsl #16
 3ac:	00007901 	andeq	r7, r0, r1, lsl #18
 3b0:	4a000200 	bmi	bb8 <_start-0x40007448>
 3b4:	02000000 	andeq	r0, r0, #0
 3b8:	0d0efb01 	vstreq	d15, [lr, #-4]
 3bc:	01010100 	mrseq	r0, (UNDEF: 17)
 3c0:	00000001 	andeq	r0, r0, r1
 3c4:	01000001 	tsteq	r0, r1
 3c8:	6d6d6f63 	stclvs	15, cr6, [sp, #-396]!	; 0xfffffe74
 3cc:	732f6e6f 	teqvc	pc, #1776	; 0x6f0
 3d0:	2e006372 	mcrcs	3, 0, r6, cr0, cr2, {3}
 3d4:	6d6f632f 	stclvs	3, cr6, [pc, #-188]!	; 320 <_start-0x40007ce0>
 3d8:	2f6e6f6d 	svccs	0x006e6f6d
 3dc:	6c636e69 	stclvs	14, cr6, [r3], #-420	; 0xfffffe5c
 3e0:	00656475 	rsbeq	r6, r5, r5, ror r4
 3e4:	72617500 	rsbvc	r7, r1, #0
 3e8:	00632e74 	rsbeq	r2, r3, r4, ror lr
 3ec:	65000001 	strvs	r0, [r0, #-1]
 3f0:	6f6e7978 	svcvs	0x006e7978
 3f4:	34345f73 	ldrtcc	r5, [r4], #-3955	; 0xf73
 3f8:	682e3231 	stmdavs	lr!, {r0, r4, r5, r9, ip, sp}
 3fc:	00000200 	andeq	r0, r0, r0, lsl #4
 400:	02050000 	andeq	r0, r5, #0
 404:	40009478 	andmi	r9, r0, r8, ror r4
 408:	67bc4d15 			; <UNDEFINED> instruction: 0x67bc4d15
 40c:	a1676768 	cmnge	r7, r8, ror #14
 410:	0402009f 	streq	r0, [r2], #-159	; 0x9f
 414:	062e0601 	strteq	r0, [lr], -r1, lsl #12
 418:	4b67679f 	blmi	19da29c <_start-0x3e62dd64>
 41c:	002f8384 	eoreq	r8, pc, r4, lsl #7
 420:	d5010402 	strle	r0, [r1, #-1026]	; 0x402
 424:	00060284 	andeq	r0, r6, r4, lsl #5
 428:	00750101 	rsbseq	r0, r5, r1, lsl #2
 42c:	00020000 	andeq	r0, r2, r0
 430:	00000042 	andeq	r0, r0, r2, asr #32
 434:	0efb0102 	cdpeq	1, 15, cr0, cr11, cr2, {0}
 438:	0101000d 	tsteq	r1, sp
 43c:	00000101 	andeq	r0, r0, r1, lsl #2
 440:	00000100 	andeq	r0, r0, r0, lsl #2
 444:	632f2e01 	teqvs	pc, #16
 448:	6f6d6d6f 	svcvs	0x006d6d6f
 44c:	6e692f6e 	cdpvs	15, 6, cr2, cr9, cr14, {3}
 450:	64756c63 	ldrbtvs	r6, [r5], #-3171	; 0xc63
 454:	6b000065 	blvs	5f0 <_start-0x40007a10>
 458:	695f7965 	ldmdbvs	pc, {r0, r2, r5, r6, r8, fp, ip, sp, lr}^	; <UNPREDICTABLE>
 45c:	632e746e 	teqvs	lr, #1845493760	; 0x6e000000
 460:	00000000 	andeq	r0, r0, r0
 464:	6e797865 	cdpvs	8, 7, cr7, cr9, cr5, {3}
 468:	345f736f 	ldrbcc	r7, [pc], #-879	; 470 <_start-0x40007b90>
 46c:	2e323134 	mrccs	1, 1, r3, cr2, cr4, {1}
 470:	00010068 	andeq	r0, r1, r8, rrx
 474:	05000000 	streq	r0, [r0]
 478:	00958402 	addseq	r8, r5, r2, lsl #8
 47c:	01290340 	teqeq	r9, r0, asr #6
 480:	3f08a16a 	svccc	0x0008a16a
 484:	a1bcbb9f 			; <UNDEFINED> instruction: 0xa1bcbb9f
 488:	46346768 	ldrtmi	r6, [r4], -r8, ror #14
 48c:	f5f3334c 			; <UNDEFINED> instruction: 0xf5f3334c
 490:	a2bca04d 	adcsge	sl, ip, #77	; 0x4d
 494:	a0a0a2a0 	adcge	sl, r0, r0, lsr #5
 498:	040200bd 	streq	r0, [r2], #-189	; 0xbd
 49c:	1202bf01 	andne	fp, r2, #4
 4a0:	Address 0x000004a0 is out of bounds.


Disassembly of section .debug_info:

00000000 <.debug_info>:
   0:	0000004c 	andeq	r0, r0, ip, asr #32
   4:	00000002 	andeq	r0, r0, r2
   8:	01040000 	mrseq	r0, (UNDEF: 4)
   c:	00000000 	andeq	r0, r0, r0
  10:	40008000 	andmi	r8, r0, r0
  14:	40008134 	andmi	r8, r0, r4, lsr r1
  18:	72617473 	rsbvc	r7, r1, #1929379840	; 0x73000000
  1c:	74732f74 	ldrbtvc	r2, [r3], #-3956	; 0xf74
  20:	2e747261 	cdpcs	2, 7, cr7, cr4, cr1, {3}
  24:	3a450053 	bcc	1140178 <_start-0x3eec7e88>
  28:	6c63655c 	cfstr64vs	mvdx6, [r3], #-368	; 0xfffffe90
  2c:	65737069 	ldrbvs	r7, [r3, #-105]!	; 0x69
  30:	6f72705f 	svcvs	0x0072705f
  34:	7463656a 	strbtvc	r6, [r3], #-1386	; 0x56a
  38:	454b5c73 	strbmi	r5, [fp, #-3187]	; 0xc73
  3c:	4e495f59 	mcrmi	15, 2, r5, cr9, cr9, {2}
  40:	4e470054 	mcrmi	0, 2, r0, cr7, cr4, {2}
  44:	53412055 	movtpl	r2, #4181	; 0x1055
  48:	322e3220 	eorcc	r3, lr, #2
  4c:	80010031 	andhi	r0, r1, r1, lsr r0
  50:	00000054 	andeq	r0, r0, r4, asr r0
  54:	00140002 	andseq	r0, r4, r2
  58:	01040000 	mrseq	r0, (UNDEF: 4)
  5c:	0000007d 	andeq	r0, r0, sp, ror r0
  60:	40008140 	andmi	r8, r0, r0, asr #2
  64:	400081d4 	ldrdmi	r8, [r0], -r4
  68:	6d6d6f63 	stclvs	15, cr6, [sp, #-396]!	; 0xfffffe74
  6c:	732f6e6f 	teqvc	pc, #1776	; 0x6f0
  70:	5f2f6372 	svcpl	0x002f6372
  74:	76696475 			; <UNDEFINED> instruction: 0x76696475
  78:	2e336973 	mrccs	9, 1, r6, cr3, cr3, {3}
  7c:	3a450053 	bcc	11401d0 <_start-0x3eec7e30>
  80:	6c63655c 	cfstr64vs	mvdx6, [r3], #-368	; 0xfffffe90
  84:	65737069 	ldrbvs	r7, [r3, #-105]!	; 0x69
  88:	6f72705f 	svcvs	0x0072705f
  8c:	7463656a 	strbtvc	r6, [r3], #-1386	; 0x56a
  90:	454b5c73 	strbmi	r5, [fp, #-3187]	; 0xc73
  94:	4e495f59 	mcrmi	15, 2, r5, cr9, cr9, {2}
  98:	4e470054 	mcrmi	0, 2, r0, cr7, cr4, {2}
  9c:	53412055 	movtpl	r2, #4181	; 0x1055
  a0:	322e3220 	eorcc	r3, lr, #2
  a4:	80010031 	andhi	r0, r1, r1, lsr r0
  a8:	00000054 	andeq	r0, r0, r4, asr r0
  ac:	00280002 	eoreq	r0, r8, r2
  b0:	01040000 	mrseq	r0, (UNDEF: 4)
  b4:	000000e6 	andeq	r0, r0, r6, ror #1
  b8:	400081d4 	ldrdmi	r8, [r0], -r4
  bc:	40008284 	andmi	r8, r0, r4, lsl #5
  c0:	6d6d6f63 	stclvs	15, cr6, [sp, #-396]!	; 0xfffffe74
  c4:	732f6e6f 	teqvc	pc, #1776	; 0x6f0
  c8:	5f2f6372 	svcpl	0x002f6372
  cc:	646f6d75 	strbtvs	r6, [pc], #-3445	; d4 <_start-0x40007f2c>
  d0:	2e336973 	mrccs	9, 1, r6, cr3, cr3, {3}
  d4:	3a450053 	bcc	1140228 <_start-0x3eec7dd8>
  d8:	6c63655c 	cfstr64vs	mvdx6, [r3], #-368	; 0xfffffe90
  dc:	65737069 	ldrbvs	r7, [r3, #-105]!	; 0x69
  e0:	6f72705f 	svcvs	0x0072705f
  e4:	7463656a 	strbtvc	r6, [r3], #-1386	; 0x56a
  e8:	454b5c73 	strbmi	r5, [fp, #-3187]	; 0xc73
  ec:	4e495f59 	mcrmi	15, 2, r5, cr9, cr9, {2}
  f0:	4e470054 	mcrmi	0, 2, r0, cr7, cr4, {2}
  f4:	53412055 	movtpl	r2, #4181	; 0x1055
  f8:	322e3220 	eorcc	r3, lr, #2
  fc:	80010031 	andhi	r0, r1, r1, lsr r0
 100:	000004be 			; <UNDEFINED> instruction: 0x000004be
 104:	003c0002 	eorseq	r0, ip, r2
 108:	01040000 	mrseq	r0, (UNDEF: 4)
 10c:	00000089 	andeq	r0, r0, r9, lsl #1
 110:	0000b501 	andeq	fp, r0, r1, lsl #10
 114:	00003700 	andeq	r3, r0, r0, lsl #14
 118:	00828400 	addeq	r8, r2, r0, lsl #8
 11c:	00947840 	addseq	r7, r4, r0, asr #16
 120:	00015640 	andeq	r5, r1, r0, asr #12
 124:	005d0200 	subseq	r0, sp, r0, lsl #4
 128:	28030000 	stmdacs	r3, {}	; <UNPREDICTABLE>
 12c:	00000030 	andeq	r0, r0, r0, lsr r0
 130:	00000403 	andeq	r0, r0, r3, lsl #8
 134:	64020000 	strvs	r0, [r2]
 138:	03000000 	movweq	r0, #0
 13c:	00002566 	andeq	r2, r0, r6, ror #10
 140:	00530400 	subseq	r0, r3, r0, lsl #8
 144:	44010000 	strmi	r0, [r1]
 148:	00006a01 	andeq	r6, r0, r1, lsl #20
 14c:	00828400 	addeq	r8, r2, r0, lsl #8
 150:	0082d440 	addeq	sp, r2, r0, asr #8
 154:	00000040 	andeq	r0, r0, r0, asr #32
 158:	00006a00 	andeq	r6, r0, r0, lsl #20
 15c:	00630500 	rsbeq	r0, r3, r0, lsl #10
 160:	006a4401 	rsbeq	r4, sl, r1, lsl #8
 164:	91020000 	mrsls	r0, (UNDEF: 2)
 168:	01060078 	tsteq	r6, r8, ror r0
 16c:	00007608 	andeq	r7, r0, r8, lsl #12
 170:	12010700 	andne	r0, r1, #0
 174:	02000000 	andeq	r0, r0, #0
 178:	00d40107 	sbcseq	r0, r4, r7, lsl #2
 17c:	82d40000 	sbcshi	r0, r4, #0
 180:	847c4000 	ldrbthi	r4, [ip]
 184:	002c4000 	eoreq	r4, ip, r0
 188:	00d40000 	sbcseq	r0, r4, r0
 18c:	63050000 	movwvs	r0, #20480	; 0x5000
 190:	07020070 	smlsdxeq	r2, r0, r0, r0
 194:	000000db 	ldrdeq	r0, [r0], -fp
 198:	086c9102 	stmdaeq	ip!, {r1, r8, ip, pc}^
 19c:	000000ef 	andeq	r0, r0, pc, ror #1
 1a0:	00ed0702 	rsceq	r0, sp, r2, lsl #14
 1a4:	91020000 	mrsls	r0, (UNDEF: 2)
 1a8:	00840868 	addeq	r0, r4, r8, ror #16
 1ac:	07020000 	streq	r0, [r2, -r0]
 1b0:	000000f9 	strdeq	r0, [r0], -r9
 1b4:	09649102 	stmdbeq	r4!, {r1, r8, ip, pc}^
 1b8:	000000d9 	ldrdeq	r0, [r0], -r9
 1bc:	00d40902 	sbcseq	r0, r4, r2, lsl #18
 1c0:	91020000 	mrsls	r0, (UNDEF: 2)
 1c4:	00210974 	eoreq	r0, r1, r4, ror r9
 1c8:	09020000 	stmdbeq	r2, {}	; <UNPREDICTABLE>
 1cc:	000000d4 	ldrdeq	r0, [r0], -r4
 1d0:	00709102 	rsbseq	r9, r0, r2, lsl #2
 1d4:	95070406 	strls	r0, [r7, #-1030]	; 0x406
 1d8:	0a000000 	beq	1e0 <_start-0x40007e20>
 1dc:	0000e104 	andeq	lr, r0, r4, lsl #2
 1e0:	00e60b00 	rsceq	r0, r6, r0, lsl #22
 1e4:	01060000 	mrseq	r0, (UNDEF: 6)
 1e8:	00007f08 	andeq	r7, r0, r8, lsl #30
 1ec:	f3040a00 	vpmax.u8	d0, d4, d0
 1f0:	0a000000 	beq	1f8 <_start-0x40007e08>
 1f4:	0000e604 	andeq	lr, r0, r4, lsl #12
 1f8:	07040600 	streq	r0, [r4, -r0, lsl #12]
 1fc:	0000009a 	muleq	r0, sl, r0
 200:	00a70107 	adceq	r0, r7, r7, lsl #2
 204:	22020000 	andcs	r0, r2, #0
 208:	00014701 	andeq	r4, r1, r1, lsl #14
 20c:	00847c00 	addeq	r7, r4, r0, lsl #24
 210:	0084ec40 	addeq	lr, r4, r0, asr #24
 214:	00005840 	andeq	r5, r0, r0, asr #16
 218:	00014700 	andeq	r4, r1, r0, lsl #14
 21c:	70630500 	rsbvc	r0, r3, r0, lsl #10
 220:	db220200 	blle	880a28 <_start-0x3f7875d8>
 224:	02000000 	andeq	r0, r0, #0
 228:	ef087491 	svc	0x00087491
 22c:	02000000 	andeq	r0, r0, #0
 230:	0000ed22 	andeq	lr, r0, r2, lsr #26
 234:	70910200 	addsvc	r0, r1, r0, lsl #4
 238:	00008408 	andeq	r8, r0, r8, lsl #8
 23c:	f9220200 			; <UNDEFINED> instruction: 0xf9220200
 240:	02000000 	andeq	r0, r0, #0
 244:	06006c91 			; <UNDEFINED> instruction: 0x06006c91
 248:	01260504 	teqeq	r6, r4, lsl #10
 24c:	2d040000 	stccs	0, cr0, [r4]
 250:	02000000 	andeq	r0, r0, #0
 254:	0183014a 	orreq	r0, r3, sl, asr #2
 258:	84ec0000 	strbthi	r0, [ip]
 25c:	85804000 	strhi	r4, [r0]
 260:	00844000 	addeq	r4, r4, r0
 264:	01830000 	orreq	r0, r3, r0
 268:	73050000 	movwvc	r0, #20480	; 0x5000
 26c:	8a4a0200 	bhi	1280a74 <_start-0x3ed8758c>
 270:	02000001 	andeq	r0, r0, #1
 274:	690c7491 	stmdbvs	ip, {r0, r4, r7, sl, ip, sp, lr}
 278:	834c0200 	movthi	r0, #49664	; 0xc200
 27c:	02000001 	andeq	r0, r0, #1
 280:	0d007891 	stceq	8, cr7, [r0, #-580]	; 0xfffffdbc
 284:	6e690504 	cdpvs	5, 6, cr0, cr9, cr4, {0}
 288:	040a0074 	streq	r0, [sl], #-116	; 0x74
 28c:	000000db 	ldrdeq	r0, [r0], -fp
 290:	00011f04 	andeq	r1, r1, r4, lsl #30
 294:	016f0200 	cmneq	pc, r0, lsl #4
 298:	000000f3 	strdeq	r0, [r0], -r3
 29c:	40008580 	andmi	r8, r0, r0, lsl #11
 2a0:	40008a18 	andmi	r8, r0, r8, lsl sl
 2a4:	000000b0 	strheq	r0, [r0], -r0	; <UNPREDICTABLE>
 2a8:	00000260 	andeq	r0, r0, r0, ror #4
 2ac:	72747305 	rsbsvc	r7, r4, #335544320	; 0x14000000
 2b0:	f36f0200 	vhsub.u32	d16, d15, d0
 2b4:	03000000 	movweq	r0, #0
 2b8:	057f9c91 	ldrbeq	r9, [pc, #-3217]!	; fffff62f <Num+0xbfff5557>
 2bc:	006d756e 	rsbeq	r7, sp, lr, ror #10
 2c0:	01476f02 	cmpeq	r7, r2, lsl #30
 2c4:	91030000 	mrsls	r0, (UNDEF: 3)
 2c8:	84087f98 	strhi	r7, [r8], #-3992	; 0xf98
 2cc:	02000000 	andeq	r0, r0, #0
 2d0:	0000f96f 	andeq	pc, r0, pc, ror #18
 2d4:	94910300 	ldrls	r0, [r1], #768	; 0x300
 2d8:	013a087f 	teqeq	sl, pc, ror r8
 2dc:	6f020000 	svcvs	0x00020000
 2e0:	00000183 	andeq	r0, r0, r3, lsl #3
 2e4:	7f909103 	svcvc	0x00909103
 2e8:	00006c08 	andeq	r6, r0, r8, lsl #24
 2ec:	836f0200 	cmnhi	pc, #0
 2f0:	02000001 	andeq	r0, r0, #1
 2f4:	f6080091 			; <UNDEFINED> instruction: 0xf6080091
 2f8:	02000000 	andeq	r0, r0, #0
 2fc:	0001836f 	andeq	r8, r1, pc, ror #6
 300:	04910200 	ldreq	r0, [r1], #512	; 0x200
 304:	0200630c 	andeq	r6, r0, #805306368	; 0x30000000
 308:	0000e672 	andeq	lr, r0, r2, ror r6
 30c:	6b910200 	blvs	fe440b14 <Num+0xbe436a3c>
 310:	00012f09 	andeq	r2, r1, r9, lsl #30
 314:	e6720200 	ldrbt	r0, [r2], -r0, lsl #4
 318:	02000000 	andeq	r0, r0, #0
 31c:	740c7791 	strvc	r7, [ip], #-1937	; 0x791
 320:	0200706d 	andeq	r7, r0, #109	; 0x6d
 324:	00026072 	andeq	r6, r2, r2, ror r0
 328:	a0910300 	addsge	r0, r1, r0, lsl #6
 32c:	00fb097f 	rscseq	r0, fp, pc, ror r9
 330:	73020000 	movwvc	r0, #8192	; 0x2000
 334:	000000db 	ldrdeq	r0, [r0], -fp
 338:	0c709102 	ldfeqp	f1, [r0], #-8
 33c:	74020069 	strvc	r0, [r2], #-105	; 0x69
 340:	00000183 	andeq	r0, r0, r3, lsl #3
 344:	0e6c9102 	lgneqe	f1, f2
 348:	40008744 	andmi	r8, r0, r4, asr #14
 34c:	40008778 	andmi	r8, r0, r8, ror r7
 350:	00013409 	andeq	r3, r1, r9, lsl #8
 354:	83960200 	orrshi	r0, r6, #0
 358:	02000001 	andeq	r0, r0, #1
 35c:	00006491 	muleq	r0, r1, r4
 360:	0000e60f 	andeq	lr, r0, pc, lsl #12
 364:	00027000 	andeq	r7, r2, r0
 368:	00d41000 	sbcseq	r1, r4, r0
 36c:	00410000 	subeq	r0, r1, r0
 370:	00e70107 	rsceq	r0, r7, r7, lsl #2
 374:	b4020000 	strlt	r0, [r2]
 378:	0000f901 	andeq	pc, r0, r1, lsl #18
 37c:	008a1800 	addeq	r1, sl, r0, lsl #16
 380:	008a9840 	addeq	r9, sl, r0, asr #16
 384:	0000dc40 	andeq	sp, r0, r0, asr #24
 388:	0002b500 	andeq	fp, r2, r0, lsl #10
 38c:	00730500 	rsbseq	r0, r3, r0, lsl #10
 390:	00dbb402 	sbcseq	fp, fp, r2, lsl #8
 394:	91020000 	mrsls	r0, (UNDEF: 2)
 398:	00270874 	eoreq	r0, r7, r4, ror r8
 39c:	b4020000 	strlt	r0, [r2]
 3a0:	000000f9 	strdeq	r0, [r0], -r9
 3a4:	0c709102 	ldfeqp	f1, [r0], #-8
 3a8:	02006373 	andeq	r6, r0, #-872415231	; 0xcc000001
 3ac:	0000dbb6 			; <UNDEFINED> instruction: 0x0000dbb6
 3b0:	78910200 	ldmvc	r1, {r9}
 3b4:	3f010700 	svccc	0x00010700
 3b8:	02000001 	andeq	r0, r0, #1
 3bc:	018301bc 			; <UNDEFINED> instruction: 0x018301bc
 3c0:	8a980000 	bhi	fe6003c8 <Num+0xbe5f62f0>
 3c4:	93d04000 	bicsls	r4, r0, #0
 3c8:	01084000 	mrseq	r4, (UNDEF: 8)
 3cc:	03c50000 	biceq	r0, r5, #0
 3d0:	62050000 	andvs	r0, r5, #0
 3d4:	02006675 	andeq	r6, r0, #122683392	; 0x7500000
 3d8:	0000f3bc 			; <UNDEFINED> instruction: 0x0000f3bc
 3dc:	44910200 	ldrmi	r0, [r1], #512	; 0x200
 3e0:	746d6605 	strbtvc	r6, [sp], #-1541	; 0x605
 3e4:	dbbc0200 	blle	fef00bec <Num+0xbeef6b14>
 3e8:	02000000 	andeq	r0, r0, #0
 3ec:	1a084091 	bne	210638 <_start-0x3fdf79c8>
 3f0:	02000001 	andeq	r0, r0, #1
 3f4:	000036bc 			; <UNDEFINED> instruction: 0x000036bc
 3f8:	bc910300 	ldclt	3, cr0, [r1], {0}
 3fc:	656c0c7f 	strbvs	r0, [ip, #-3199]!	; 0xc7f
 400:	be02006e 	cdplt	0, 0, cr0, cr2, cr14, {3}
 404:	00000183 	andeq	r0, r0, r3, lsl #3
 408:	0c509102 	ldfeqp	f1, [r0], {2}
 40c:	006d756e 	rsbeq	r7, sp, lr, ror #10
 410:	00d4c202 	sbcseq	ip, r4, r2, lsl #4
 414:	91020000 	mrsls	r0, (UNDEF: 2)
 418:	00690c74 	rsbeq	r0, r9, r4, ror ip
 41c:	0183c402 	orreq	ip, r3, r2, lsl #8
 420:	91020000 	mrsls	r0, (UNDEF: 2)
 424:	00840970 	addeq	r0, r4, r0, ror r9
 428:	c4020000 	strgt	r0, [r2]
 42c:	00000183 	andeq	r0, r0, r3, lsl #3
 430:	0c6c9102 	stfeqp	f1, [ip], #-8
 434:	00727473 	rsbseq	r7, r2, r3, ror r4
 438:	00f3c502 	rscseq	ip, r3, r2, lsl #10
 43c:	91020000 	mrsls	r0, (UNDEF: 2)
 440:	00730c68 	rsbseq	r0, r3, r8, ror #24
 444:	00dbc602 	sbcseq	ip, fp, r2, lsl #12
 448:	91020000 	mrsls	r0, (UNDEF: 2)
 44c:	00c90964 	sbceq	r0, r9, r4, ror #18
 450:	c8020000 	stmdagt	r2, {}	; <UNPREDICTABLE>
 454:	00000183 	andeq	r0, r0, r3, lsl #3
 458:	09609102 	stmdbeq	r0!, {r1, r8, ip, pc}^
 45c:	0000010e 	andeq	r0, r0, lr, lsl #2
 460:	0183ca02 	orreq	ip, r3, r2, lsl #20
 464:	91020000 	mrsls	r0, (UNDEF: 2)
 468:	006c095c 	rsbeq	r0, ip, ip, asr r9
 46c:	cb020000 	blgt	80474 <_start-0x3ff87b8c>
 470:	00000183 	andeq	r0, r0, r3, lsl #3
 474:	09589102 	ldmdbeq	r8, {r1, r8, ip, pc}^
 478:	000000cf 	andeq	r0, r0, pc, asr #1
 47c:	0183cd02 	orreq	ip, r3, r2, lsl #26
 480:	91020000 	mrsls	r0, (UNDEF: 2)
 484:	00e01154 	rsceq	r1, r0, r4, asr r1
 488:	d7020000 	strle	r0, [r2, -r0]
 48c:	40008af4 	strdmi	r8, [r0], -r4
 490:	00914c12 	addseq	r4, r1, r2, lsl ip
 494:	00917440 	addseq	r7, r1, r0, asr #8
 498:	0003ac40 	andeq	sl, r3, r0, asr #24
 49c:	70691300 	rsbvc	r1, r9, r0, lsl #6
 4a0:	01350200 	teqeq	r5, r0, lsl #4
 4a4:	000003c5 	andeq	r0, r0, r5, asr #7
 4a8:	004c9102 	subeq	r9, ip, r2, lsl #2
 4ac:	0091780e 	addseq	r7, r1, lr, lsl #16
 4b0:	0091a040 	addseq	sl, r1, r0, asr #32
 4b4:	70691340 	rsbvc	r1, r9, r0, asr #6
 4b8:	01380200 	teqeq	r8, r0, lsl #4
 4bc:	000003cb 	andeq	r0, r0, fp, asr #7
 4c0:	00489102 	subeq	r9, r8, r2, lsl #2
 4c4:	47040a00 	strmi	r0, [r4, -r0, lsl #20]
 4c8:	0a000001 	beq	4d4 <_start-0x40007b2c>
 4cc:	00018304 	andeq	r8, r1, r4, lsl #6
 4d0:	40011400 	andmi	r1, r1, r0, lsl #8
 4d4:	02000001 	andeq	r0, r0, #1
 4d8:	83010173 	movwhi	r0, #4467	; 0x1173
 4dc:	d0000001 	andle	r0, r0, r1
 4e0:	20400093 	umaalcs	r0, r0, r3, r0
 4e4:	34400094 	strbcc	r0, [r0], #-148	; 0x94
 4e8:	2b000001 	blcs	4f4 <_start-0x40007b0c>
 4ec:	15000004 	strne	r0, [r0, #-4]
 4f0:	00667562 	rsbeq	r7, r6, r2, ror #10
 4f4:	f3017302 	vcgt.u8	d7, d1, d2
 4f8:	02000000 	andeq	r0, r0, #0
 4fc:	66156091 			; <UNDEFINED> instruction: 0x66156091
 500:	0200746d 	andeq	r7, r0, #1828716544	; 0x6d000000
 504:	00db0173 	sbcseq	r0, fp, r3, ror r1
 508:	91020000 	mrsls	r0, (UNDEF: 2)
 50c:	1a171674 	bne	5c5ee4 <_start-0x3fa4211c>
 510:	02000001 	andeq	r0, r0, #1
 514:	00360175 	eorseq	r0, r6, r5, ror r1
 518:	91020000 	mrsls	r0, (UNDEF: 2)
 51c:	00691364 	rsbeq	r1, r9, r4, ror #6
 520:	83017602 	movwhi	r7, #5634	; 0x1602
 524:	02000001 	andeq	r0, r0, #1
 528:	18006891 	stmdane	r0, {r0, r4, r7, fp, sp, lr}
 52c:	00014101 	andeq	r4, r1, r1, lsl #2
 530:	017e0200 	cmneq	lr, r0, lsl #4
 534:	00942001 	addseq	r2, r4, r1
 538:	00947840 	addseq	r7, r4, r0, asr #16
 53c:	00016c40 	andeq	r6, r1, r0, asr #24
 540:	00048200 	andeq	r8, r4, r0, lsl #4
 544:	6d661500 	cfstr64vs	mvdx1, [r6]
 548:	7e020074 	mcrvc	0, 0, r0, cr2, cr4, {3}
 54c:	0000db01 	andeq	sp, r0, r1, lsl #22
 550:	70910200 	addsvc	r0, r1, r0, lsl #4
 554:	011a1716 	tsteq	sl, r6, lsl r7
 558:	80020000 	andhi	r0, r2, r0
 55c:	00003601 	andeq	r3, r0, r1, lsl #12
 560:	60910200 	addsvs	r0, r1, r0, lsl #4
 564:	02006913 	andeq	r6, r0, #311296	; 0x4c000
 568:	00f90181 	rscseq	r0, r9, r1, lsl #3
 56c:	91020000 	mrsls	r0, (UNDEF: 2)
 570:	01021764 	tsteq	r2, r4, ror #14
 574:	82020000 	andhi	r0, r2, #0
 578:	00048201 	andeq	r8, r4, r1, lsl #4
 57c:	fc910300 	ldc2	3, cr0, [r1], {0}
 580:	e60f007e 			; <UNDEFINED> instruction: 0xe60f007e
 584:	92000000 	andls	r0, r0, #0
 588:	10000004 	andne	r0, r0, r4
 58c:	000000d4 	ldrdeq	r0, [r0], -r4
 590:	6a0f0063 	bvs	3c0724 <_start-0x3fc478dc>
 594:	a2000000 	andge	r0, r0, #0
 598:	10000004 	andne	r0, r0, r4
 59c:	000000d4 	ldrdeq	r0, [r0], -r4
 5a0:	f41900ff 			; <UNDEFINED> instruction: 0xf41900ff
 5a4:	01000000 	mrseq	r0, (UNDEF: 0)
 5a8:	00049211 	andeq	r9, r4, r1, lsl r2
 5ac:	1a010100 	bne	409b4 <_start-0x3ffc764c>
 5b0:	000000f4 	strdeq	r0, [r0], -r4
 5b4:	04921101 	ldreq	r1, [r2], #257	; 0x101
 5b8:	05010000 	streq	r0, [r1]
 5bc:	009fd803 	addseq	sp, pc, r3, lsl #16
 5c0:	020d0040 	andeq	r0, sp, #64	; 0x40
 5c4:	00020000 	andeq	r0, r2, r0
 5c8:	000001af 	andeq	r0, r0, pc, lsr #3
 5cc:	00890104 	addeq	r0, r9, r4, lsl #2
 5d0:	d4010000 	strle	r0, [r1]
 5d4:	37000001 	strcc	r0, [r0, -r1]
 5d8:	78000000 	stmdavc	r0, {}	; <UNPREDICTABLE>
 5dc:	84400094 	strbhi	r0, [r0], #-148	; 0x94
 5e0:	ad400095 	stclge	0, cr0, [r0, #-596]	; 0xfffffdac
 5e4:	02000003 	andeq	r0, r0, #3
 5e8:	009a0704 	addseq	r0, sl, r4, lsl #14
 5ec:	18030000 	stmdane	r3, {}	; <UNPREDICTABLE>
 5f0:	90018902 	andls	r8, r1, r2, lsl #18
 5f4:	04000000 	streq	r0, [r0]
 5f8:	004e4f43 	subeq	r4, lr, r3, asr #30
 5fc:	25018a02 	strcs	r8, [r1, #-2562]	; 0xa02
 600:	02000000 	andeq	r0, r0, #0
 604:	44040023 	strmi	r0, [r4], #-35	; 0x23
 608:	02005441 	andeq	r5, r0, #1090519040	; 0x41000000
 60c:	0025018b 	eoreq	r0, r5, fp, lsl #3
 610:	23020000 	movwcs	r0, #8192	; 0x2000
 614:	55500404 	ldrbpl	r0, [r0, #-1028]	; 0x404
 618:	8c020044 	stchi	0, cr0, [r2], {68}	; 0x44
 61c:	00002501 	andeq	r2, r0, r1, lsl #10
 620:	08230200 	stmdaeq	r3!, {r9}
 624:	56524404 	ldrbpl	r4, [r2], -r4, lsl #8
 628:	018d0200 	orreq	r0, sp, r0, lsl #4
 62c:	00000025 	andeq	r0, r0, r5, lsr #32
 630:	050c2302 	streq	r2, [ip, #-770]	; 0x302
 634:	00000197 	muleq	r0, r7, r1
 638:	25018e02 	strcs	r8, [r1, #-3586]	; 0xe02
 63c:	02000000 	andeq	r0, r0, #0
 640:	cd051023 	stcgt	0, cr1, [r5, #-140]	; 0xffffff74
 644:	02000001 	andeq	r0, r0, #1
 648:	0025018f 	eoreq	r0, r5, pc, lsl #3
 64c:	23020000 	movwcs	r0, #8192	; 0x2000
 650:	ba060014 	blt	1806a8 <_start-0x3fe87958>
 654:	02000001 	andeq	r0, r0, #1
 658:	002c0190 	mlaeq	ip, r0, r1, r0
 65c:	3c030000 	stccc	0, cr0, [r3], {0}
 660:	8703c902 	strhi	ip, [r3, -r2, lsl #18]
 664:	05000001 	streq	r0, [r0, #-1]
 668:	000001b3 			; <UNDEFINED> instruction: 0x000001b3
 66c:	2503ca02 	strcs	ip, [r3, #-2562]	; 0xa02
 670:	02000000 	andeq	r0, r0, #0
 674:	9e050023 	cdpls	0, 0, cr0, cr5, cr3, {1}
 678:	02000001 	andeq	r0, r0, #1
 67c:	002503cb 	eoreq	r0, r5, fp, asr #7
 680:	23020000 	movwcs	r0, #8192	; 0x2000
 684:	018a0504 	orreq	r0, sl, r4, lsl #10
 688:	cc020000 	stcgt	0, cr0, [r2], {0}
 68c:	00002503 	andeq	r2, r0, r3, lsl #10
 690:	08230200 	stmdaeq	r3!, {r9}
 694:	0001eb05 	andeq	lr, r1, r5, lsl #22
 698:	03cd0200 	biceq	r0, sp, #0
 69c:	00000025 	andeq	r0, r0, r5, lsr #32
 6a0:	050c2302 	streq	r2, [ip, #-770]	; 0x302
 6a4:	00000172 	andeq	r0, r0, r2, ror r1
 6a8:	2503ce02 	strcs	ip, [r3, #-3586]	; 0xe02
 6ac:	02000000 	andeq	r0, r0, #0
 6b0:	c4051023 	strgt	r1, [r5], #-35	; 0x23
 6b4:	02000001 	andeq	r0, r0, #1
 6b8:	002503cf 	eoreq	r0, r5, pc, asr #7
 6bc:	23020000 	movwcs	r0, #8192	; 0x2000
 6c0:	016a0514 	cmneq	sl, r4, lsl r5
 6c4:	d0020000 	andle	r0, r2, r0
 6c8:	00002503 	andeq	r2, r0, r3, lsl #10
 6cc:	18230200 	stmdane	r3!, {r9}
 6d0:	0001a405 	andeq	sl, r1, r5, lsl #8
 6d4:	03d10200 	bicseq	r0, r1, #0
 6d8:	00000025 	andeq	r0, r0, r5, lsr #32
 6dc:	051c2302 	ldreq	r2, [ip, #-770]	; 0x302
 6e0:	00000191 	muleq	r0, r1, r1
 6e4:	2503d202 	strcs	sp, [r3, #-514]	; 0x202
 6e8:	02000000 	andeq	r0, r0, #0
 6ec:	f2052023 	vhadd.s8	d2, d5, d19
 6f0:	02000001 	andeq	r0, r0, #1
 6f4:	002503d3 	ldrdeq	r0, [r5], -r3	; <UNPREDICTABLE>
 6f8:	23020000 	movwcs	r0, #8192	; 0x2000
 6fc:	015d0524 	cmpeq	sp, r4, lsr #10
 700:	d4020000 	strle	r0, [r2]
 704:	00002503 	andeq	r2, r0, r3, lsl #10
 708:	28230200 	stmdacs	r3!, {r9}
 70c:	0001f805 	andeq	pc, r1, r5, lsl #16
 710:	03d50200 	bicseq	r0, r5, #0
 714:	00000025 	andeq	r0, r0, r5, lsr #32
 718:	052c2302 	streq	r2, [ip, #-770]!	; 0x302
 71c:	0000014e 	andeq	r0, r0, lr, asr #2
 720:	2503d602 	strcs	sp, [r3, #-1538]	; 0x602
 724:	02000000 	andeq	r0, r0, #0
 728:	55053023 	strpl	r3, [r5, #-35]	; 0x23
 72c:	02000001 	andeq	r0, r0, #1
 730:	002503d7 	ldrdeq	r0, [r5], -r7	; <UNPREDICTABLE>
 734:	23020000 	movwcs	r0, #8192	; 0x2000
 738:	01ac0534 			; <UNDEFINED> instruction: 0x01ac0534
 73c:	d8020000 	stmdale	r2, {}	; <UNPREDICTABLE>
 740:	00002503 	andeq	r2, r0, r3, lsl #10
 744:	38230200 	stmdacc	r3!, {r9}
 748:	01480600 	cmpeq	r8, r0, lsl #12
 74c:	d9020000 	stmdble	r2, {}	; <UNPREDICTABLE>
 750:	00009c03 	andeq	r9, r0, r3, lsl #24
 754:	07040200 	streq	r0, [r4, -r0, lsl #4]
 758:	00000095 	muleq	r0, r5, r0
 75c:	017b0107 	cmneq	fp, r7, lsl #2
 760:	03010000 	movweq	r0, #4096	; 0x1000
 764:	40009478 	andmi	r9, r0, r8, ror r4
 768:	400094dc 	ldrdmi	r9, [r0], -ip
 76c:	000001a4 	andeq	r0, r0, r4, lsr #3
 770:	01bf0108 			; <UNDEFINED> instruction: 0x01bf0108
 774:	10010000 	andne	r0, r1, r0
 778:	0094dc01 	addseq	sp, r4, r1, lsl #24
 77c:	00953840 	addseq	r3, r5, r0, asr #16
 780:	0001d040 	andeq	sp, r1, r0, asr #32
 784:	0001d600 	andeq	sp, r1, r0, lsl #12
 788:	01850900 	orreq	r0, r5, r0, lsl #18
 78c:	10010000 	andne	r0, r1, r0
 790:	000001d6 	ldrdeq	r0, [r0], -r6
 794:	00749102 	rsbseq	r9, r4, r2, lsl #2
 798:	0001db0a 	andeq	sp, r1, sl, lsl #22
 79c:	08010200 	stmdaeq	r1, {r9}
 7a0:	0000007f 	andeq	r0, r0, pc, ror r0
 7a4:	01e60108 	mvneq	r0, r8, lsl #2
 7a8:	17010000 	strne	r0, [r1, -r0]
 7ac:	00953801 	addseq	r3, r5, r1, lsl #16
 7b0:	00958440 	addseq	r8, r5, r0, asr #8
 7b4:	0001fc40 	andeq	pc, r1, r0, asr #24
 7b8:	00020a00 	andeq	r0, r2, r0, lsl #20
 7bc:	01650900 	cmneq	r5, r0, lsl #18
 7c0:	17010000 	strne	r0, [r1, -r0]
 7c4:	0000020a 	andeq	r0, r0, sl, lsl #4
 7c8:	00749102 	rsbseq	r9, r4, r2, lsl #2
 7cc:	01d6040b 	bicseq	r0, r6, fp, lsl #8
 7d0:	14000000 	strne	r0, [r0]
 7d4:	02000005 	andeq	r0, r0, #5
 7d8:	00024f00 	andeq	r4, r2, r0, lsl #30
 7dc:	89010400 	stmdbhi	r1, {sl}
 7e0:	01000000 	mrseq	r0, (UNDEF: 0)
 7e4:	000003af 	andeq	r0, r0, pc, lsr #7
 7e8:	00000037 	andeq	r0, r0, r7, lsr r0
 7ec:	40009584 	andmi	r9, r0, r4, lsl #11
 7f0:	40009780 	andmi	r9, r0, r0, lsl #15
 7f4:	0000042a 	andeq	r0, r0, sl, lsr #8
 7f8:	9a070402 	bls	1c1808 <_start-0x3fe467f8>
 7fc:	03000000 	movweq	r0, #0
 800:	02000210 	andeq	r0, r0, #1
 804:	00000072 	andeq	r0, r0, r2, ror r0
 808:	4e4f4304 	cdpmi	3, 4, cr4, cr15, cr4, {0}
 80c:	02010200 	andeq	r0, r1, #0
 810:	00000025 	andeq	r0, r0, r5, lsr #32
 814:	04002302 	streq	r2, [r0], #-770	; 0x302
 818:	00544144 	subseq	r4, r4, r4, asr #2
 81c:	25020202 	strcs	r0, [r2, #-514]	; 0x202
 820:	02000000 	andeq	r0, r0, #0
 824:	50040423 	andpl	r0, r4, r3, lsr #8
 828:	02004455 	andeq	r4, r0, #1426063360	; 0x55000000
 82c:	00250203 	eoreq	r0, r5, r3, lsl #4
 830:	23020000 	movwcs	r0, #8192	; 0x2000
 834:	52440408 	subpl	r0, r4, #134217728	; 0x8000000
 838:	04020056 	streq	r0, [r2], #-86	; 0x56
 83c:	00002502 	andeq	r2, r0, r2, lsl #10
 840:	0c230200 	sfmeq	f0, 4, [r3]
 844:	03840500 	orreq	r0, r4, #0
 848:	05020000 	streq	r0, [r2]
 84c:	00002c02 	andeq	r2, r0, r2, lsl #24
 850:	02100300 	andseq	r0, r0, #0
 854:	00c40209 	sbceq	r0, r4, r9, lsl #4
 858:	43040000 	movwmi	r0, #16384	; 0x4000
 85c:	02004e4f 	andeq	r4, r0, #1264	; 0x4f0
 860:	0025020a 	eoreq	r0, r5, sl, lsl #4
 864:	23020000 	movwcs	r0, #8192	; 0x2000
 868:	41440400 	cmpmi	r4, r0, lsl #8
 86c:	0b020054 	bleq	809c4 <_start-0x3ff8763c>
 870:	00002502 	andeq	r2, r0, r2, lsl #10
 874:	04230200 	strteq	r0, [r3], #-512	; 0x200
 878:	44555004 	ldrbmi	r5, [r5], #-4
 87c:	020c0200 	andeq	r0, ip, #0
 880:	00000025 	andeq	r0, r0, r5, lsr #32
 884:	04082302 	streq	r2, [r8], #-770	; 0x302
 888:	00565244 	subseq	r5, r6, r4, asr #4
 88c:	25020d02 	strcs	r0, [r2, #-3330]	; 0xd02
 890:	02000000 	andeq	r0, r0, #0
 894:	05000c23 	streq	r0, [r0, #-3107]	; 0xc23
 898:	00000389 	andeq	r0, r0, r9, lsl #7
 89c:	7e020e02 	cdpvc	14, 0, cr0, cr2, cr2, {0}
 8a0:	03000000 	movweq	r0, #0
 8a4:	024b0228 	subeq	r0, fp, #-2147483646	; 0x80000002
 8a8:	00000170 	andeq	r0, r0, r0, ror r1
 8ac:	00048c06 	andeq	r8, r4, r6, lsl #24
 8b0:	024c0200 	subeq	r0, ip, #0
 8b4:	00000025 	andeq	r0, r0, r5, lsr #32
 8b8:	06002302 	streq	r2, [r0], -r2, lsl #6
 8bc:	000003dd 	ldrdeq	r0, [r0], -sp
 8c0:	25024d02 	strcs	r4, [r2, #-3330]	; 0xd02
 8c4:	02000000 	andeq	r0, r0, #0
 8c8:	33060423 	movwcc	r0, #25635	; 0x6423
 8cc:	02000002 	andeq	r0, r0, #2
 8d0:	0025024e 	eoreq	r0, r5, lr, asr #4
 8d4:	23020000 	movwcs	r0, #8192	; 0x2000
 8d8:	02df0608 	sbcseq	r0, pc, #8388608	; 0x800000
 8dc:	4f020000 	svcmi	0x00020000
 8e0:	00002502 	andeq	r2, r0, r2, lsl #10
 8e4:	0c230200 	sfmeq	f0, 4, [r3]
 8e8:	00022306 	andeq	r2, r2, r6, lsl #6
 8ec:	02500200 	subseq	r0, r0, #0
 8f0:	00000025 	andeq	r0, r0, r5, lsr #32
 8f4:	06102302 	ldreq	r2, [r0], -r2, lsl #6
 8f8:	000003c7 	andeq	r0, r0, r7, asr #7
 8fc:	25025102 	strcs	r5, [r2, #-258]	; 0x102
 900:	02000000 	andeq	r0, r0, #0
 904:	61061423 	tstvs	r6, r3, lsr #8
 908:	02000004 	andeq	r0, r0, #4
 90c:	00250252 	eoreq	r0, r5, r2, asr r2
 910:	23020000 	movwcs	r0, #8192	; 0x2000
 914:	03280618 	teqeq	r8, #25165824	; 0x1800000
 918:	53020000 	movwpl	r0, #8192	; 0x2000
 91c:	00002502 	andeq	r2, r0, r2, lsl #10
 920:	1c230200 	sfmne	f0, 4, [r3]
 924:	0002b606 	andeq	fp, r2, r6, lsl #12
 928:	02540200 	subseq	r0, r4, #0
 92c:	00000025 	andeq	r0, r0, r5, lsr #32
 930:	06202302 	strteq	r2, [r0], -r2, lsl #6
 934:	00000210 	andeq	r0, r0, r0, lsl r2
 938:	25025502 	strcs	r5, [r2, #-1282]	; 0x502
 93c:	02000000 	andeq	r0, r0, #0
 940:	05002423 	streq	r2, [r0, #-1059]	; 0x423
 944:	000003ce 	andeq	r0, r0, lr, asr #7
 948:	d0025602 	andle	r5, r2, r2, lsl #12
 94c:	03000000 	movweq	r0, #0
 950:	02970214 	addseq	r0, r7, #1073741825	; 0x40000001
 954:	000001d1 	ldrdeq	r0, [r0], -r1
 958:	00042006 	andeq	r2, r4, r6
 95c:	02980200 	addseq	r0, r8, #0
 960:	00000025 	andeq	r0, r0, r5, lsr #32
 964:	06002302 	streq	r2, [r0], -r2, lsl #6
 968:	00000446 	andeq	r0, r0, r6, asr #8
 96c:	25029902 	strcs	r9, [r2, #-2306]	; 0x902
 970:	02000000 	andeq	r0, r0, #0
 974:	4f060423 	svcmi	0x00060423
 978:	02000004 	andeq	r0, r0, #4
 97c:	0025029a 	mlaeq	r5, sl, r2, r0
 980:	23020000 	movwcs	r0, #8192	; 0x2000
 984:	04580608 	ldrbeq	r0, [r8], #-1544	; 0x608
 988:	9b020000 	blls	80990 <_start-0x3ff87670>
 98c:	00002502 	andeq	r2, r0, r2, lsl #10
 990:	0c230200 	sfmeq	f0, 4, [r3]
 994:	0003a606 	andeq	sl, r3, r6, lsl #12
 998:	029c0200 	addseq	r0, ip, #0
 99c:	00000025 	andeq	r0, r0, r5, lsr #32
 9a0:	00102302 	andseq	r2, r0, r2, lsl #6
 9a4:	00049305 	andeq	r9, r4, r5, lsl #6
 9a8:	029d0200 	addseq	r0, sp, #0
 9ac:	0000017c 	andeq	r0, r0, ip, ror r1
 9b0:	b5021403 	strlt	r1, [r2, #-1027]	; 0x403
 9b4:	00023202 	andeq	r3, r2, r2, lsl #4
 9b8:	02020600 	andeq	r0, r2, #0
 9bc:	b6020000 	strlt	r0, [r2], -r0
 9c0:	00002502 	andeq	r2, r0, r2, lsl #10
 9c4:	00230200 	eoreq	r0, r3, r0, lsl #4
 9c8:	0002e606 	andeq	lr, r2, r6, lsl #12
 9cc:	02b70200 	adcseq	r0, r7, #0
 9d0:	00000025 	andeq	r0, r0, r5, lsr #32
 9d4:	06042302 	streq	r2, [r4], -r2, lsl #6
 9d8:	000002ef 	andeq	r0, r0, pc, ror #5
 9dc:	2502b802 	strcs	fp, [r2, #-2050]	; 0x802
 9e0:	02000000 	andeq	r0, r0, #0
 9e4:	f8060823 			; <UNDEFINED> instruction: 0xf8060823
 9e8:	02000002 	andeq	r0, r0, #2
 9ec:	002502b9 			; <UNDEFINED> instruction: 0x002502b9
 9f0:	23020000 	movwcs	r0, #8192	; 0x2000
 9f4:	0301060c 	movweq	r0, #5644	; 0x160c
 9f8:	ba020000 	blt	80a00 <_start-0x3ff87600>
 9fc:	00002502 	andeq	r2, r0, r2, lsl #10
 a00:	10230200 	eorne	r0, r3, r0, lsl #4
 a04:	039c0500 	orrseq	r0, ip, #0
 a08:	bb020000 	bllt	80a10 <_start-0x3ff875f0>
 a0c:	0001dd02 	andeq	sp, r1, r2, lsl #26
 a10:	02a00300 	adceq	r0, r0, #0
 a14:	04a802f6 	strteq	r0, [r8], #758	; 0x2f6
 a18:	69060000 	stmdbvs	r6, {}	; <UNPREDICTABLE>
 a1c:	02000004 	andeq	r0, r0, #4
 a20:	002502f7 	strdeq	r0, [r5], -r7	; <UNPREDICTABLE>
 a24:	23020000 	movwcs	r0, #8192	; 0x2000
 a28:	04770600 	ldrbteq	r0, [r7], #-1536	; 0x600
 a2c:	f8020000 			; <UNDEFINED> instruction: 0xf8020000
 a30:	00002502 	andeq	r2, r0, r2, lsl #10
 a34:	04230200 	strteq	r0, [r3], #-512	; 0x200
 a38:	00037606 	andeq	r7, r3, r6, lsl #12
 a3c:	02f90200 	rscseq	r0, r9, #0
 a40:	00000025 	andeq	r0, r0, r5, lsr #32
 a44:	06082302 	streq	r2, [r8], -r2, lsl #6
 a48:	0000038e 	andeq	r0, r0, lr, lsl #7
 a4c:	2502fa02 	strcs	pc, [r2, #-2562]	; 0xa02
 a50:	02000000 	andeq	r0, r0, #0
 a54:	b9060c23 	stmdblt	r6, {r0, r1, r5, sl, fp}
 a58:	02000003 	andeq	r0, r0, #3
 a5c:	002502fb 	strdeq	r0, [r5], -fp	; <UNPREDICTABLE>
 a60:	23020000 	movwcs	r0, #8192	; 0x2000
 a64:	02bf0610 	adcseq	r0, pc, #16777216	; 0x1000000
 a68:	fc020000 	stc2	0, cr0, [r2], {0}
 a6c:	00002502 	andeq	r2, r0, r2, lsl #10
 a70:	14230200 	strtne	r0, [r3], #-512	; 0x200
 a74:	00043806 	andeq	r3, r4, r6, lsl #16
 a78:	02fd0200 	rscseq	r0, sp, #0
 a7c:	00000025 	andeq	r0, r0, r5, lsr #32
 a80:	06182302 	ldreq	r2, [r8], -r2, lsl #6
 a84:	000002a8 	andeq	r0, r0, r8, lsr #5
 a88:	2502fe02 	strcs	pc, [r2, #-3586]	; 0xe02
 a8c:	02000000 	andeq	r0, r0, #0
 a90:	cd061c23 	stcgt	12, cr1, [r6, #-140]	; 0xffffff74
 a94:	02000002 	andeq	r0, r0, #2
 a98:	002502ff 	strdeq	r0, [r5], -pc	; <UNPREDICTABLE>
 a9c:	23020000 	movwcs	r0, #8192	; 0x2000
 aa0:	02d60620 	sbcseq	r0, r6, #33554432	; 0x2000000
 aa4:	00020000 	andeq	r0, r2, r0
 aa8:	00002503 	andeq	r2, r0, r3, lsl #10
 aac:	24230200 	strtcs	r0, [r3], #-512	; 0x200
 ab0:	00024406 	andeq	r4, r2, r6, lsl #8
 ab4:	03010200 	movweq	r0, #4608	; 0x1200
 ab8:	00000025 	andeq	r0, r0, r5, lsr #32
 abc:	06282302 	strteq	r2, [r8], -r2, lsl #6
 ac0:	0000024e 	andeq	r0, r0, lr, asr #4
 ac4:	25030202 	strcs	r0, [r3, #-514]	; 0x202
 ac8:	02000000 	andeq	r0, r0, #0
 acc:	58062c23 	stmdapl	r6, {r0, r1, r5, sl, fp, sp}
 ad0:	02000002 	andeq	r0, r0, #2
 ad4:	00250303 	eoreq	r0, r5, r3, lsl #6
 ad8:	23020000 	movwcs	r0, #8192	; 0x2000
 adc:	02620630 	rsbeq	r0, r2, #50331648	; 0x3000000
 ae0:	04020000 	streq	r0, [r2]
 ae4:	00002503 	andeq	r2, r0, r3, lsl #10
 ae8:	34230200 	strtcc	r0, [r3], #-512	; 0x200
 aec:	00026c06 	andeq	r6, r2, r6, lsl #24
 af0:	03050200 	movweq	r0, #20992	; 0x5200
 af4:	00000025 	andeq	r0, r0, r5, lsr #32
 af8:	06382302 	ldrteq	r2, [r8], -r2, lsl #6
 afc:	00000276 	andeq	r0, r0, r6, ror r2
 b00:	25030602 	strcs	r0, [r3, #-1538]	; 0x602
 b04:	02000000 	andeq	r0, r0, #0
 b08:	80063c23 	andhi	r3, r6, r3, lsr #24
 b0c:	02000002 	andeq	r0, r0, #2
 b10:	00250307 	eoreq	r0, r5, r7, lsl #6
 b14:	23020000 	movwcs	r0, #8192	; 0x2000
 b18:	028a0640 	addeq	r0, sl, #67108864	; 0x4000000
 b1c:	08020000 	stmdaeq	r2, {}	; <UNPREDICTABLE>
 b20:	00002503 	andeq	r2, r0, r3, lsl #10
 b24:	44230200 	strtmi	r0, [r3], #-512	; 0x200
 b28:	00029406 	andeq	r9, r2, r6, lsl #8
 b2c:	03090200 	movweq	r0, #37376	; 0x9200
 b30:	00000025 	andeq	r0, r0, r5, lsr #32
 b34:	06482302 	strbeq	r2, [r8], -r2, lsl #6
 b38:	0000029e 	muleq	r0, lr, r2
 b3c:	25030a02 	strcs	r0, [r3, #-2562]	; 0xa02
 b40:	02000000 	andeq	r0, r0, #0
 b44:	14064c23 	strne	r4, [r6], #-3107	; 0xc23
 b48:	02000003 	andeq	r0, r0, #3
 b4c:	0025030b 	eoreq	r0, r5, fp, lsl #6
 b50:	23020000 	movwcs	r0, #8192	; 0x2000
 b54:	031e0650 	tsteq	lr, #83886080	; 0x5000000
 b58:	0c020000 	stceq	0, cr0, [r2], {0}
 b5c:	00002503 	andeq	r2, r0, r3, lsl #10
 b60:	54230200 	strtpl	r0, [r3], #-512	; 0x200
 b64:	00030a06 	andeq	r0, r3, r6, lsl #20
 b68:	030d0200 	movweq	r0, #53760	; 0xd200
 b6c:	00000025 	andeq	r0, r0, r5, lsr #32
 b70:	06582302 	ldrbeq	r2, [r8], -r2, lsl #6
 b74:	00000330 	andeq	r0, r0, r0, lsr r3
 b78:	25030e02 	strcs	r0, [r3, #-3586]	; 0xe02
 b7c:	02000000 	andeq	r0, r0, #0
 b80:	3a065c23 	bcc	197c14 <_start-0x3fe703ec>
 b84:	02000003 	andeq	r0, r0, #3
 b88:	0025030f 	eoreq	r0, r5, pc, lsl #6
 b8c:	23020000 	movwcs	r0, #8192	; 0x2000
 b90:	03440660 	movteq	r0, #18016	; 0x4660
 b94:	10020000 	andne	r0, r2, r0
 b98:	00002503 	andeq	r2, r0, r3, lsl #10
 b9c:	64230200 	strtvs	r0, [r3], #-512	; 0x200
 ba0:	00034e06 	andeq	r4, r3, r6, lsl #28
 ba4:	03110200 	tsteq	r1, #0
 ba8:	00000025 	andeq	r0, r0, r5, lsr #32
 bac:	06682302 	strbteq	r2, [r8], -r2, lsl #6
 bb0:	00000358 	andeq	r0, r0, r8, asr r3
 bb4:	25031202 	strcs	r1, [r3, #-514]	; 0x202
 bb8:	02000000 	andeq	r0, r0, #0
 bbc:	62066c23 	andvs	r6, r6, #8960	; 0x2300
 bc0:	02000003 	andeq	r0, r0, #3
 bc4:	00250313 	eoreq	r0, r5, r3, lsl r3
 bc8:	23020000 	movwcs	r0, #8192	; 0x2000
 bcc:	036c0670 	cmneq	ip, #117440512	; 0x7000000
 bd0:	14020000 	strne	r0, [r2]
 bd4:	00002503 	andeq	r2, r0, r3, lsl #10
 bd8:	74230200 	strtvc	r0, [r3], #-512	; 0x200
 bdc:	0003d306 	andeq	sp, r3, r6, lsl #6
 be0:	03150200 	tsteq	r5, #0
 be4:	00000025 	andeq	r0, r0, r5, lsr #32
 be8:	06782302 	ldrbteq	r2, [r8], -r2, lsl #6
 bec:	00000498 	muleq	r0, r8, r4
 bf0:	25031602 	strcs	r1, [r3, #-1538]	; 0x602
 bf4:	02000000 	andeq	r0, r0, #0
 bf8:	e4067c23 	str	r7, [r6], #-3107	; 0xc23
 bfc:	02000003 	andeq	r0, r0, #3
 c00:	00250317 	eoreq	r0, r5, r7, lsl r3
 c04:	23030000 	movwcs	r0, #12288	; 0x3000
 c08:	ee060180 	adfd	f0, f6, f0
 c0c:	02000003 	andeq	r0, r0, #3
 c10:	00250318 	eoreq	r0, r5, r8, lsl r3
 c14:	23030000 	movwcs	r0, #12288	; 0x3000
 c18:	f8060184 			; <UNDEFINED> instruction: 0xf8060184
 c1c:	02000003 	andeq	r0, r0, #3
 c20:	00250319 	eoreq	r0, r5, r9, lsl r3
 c24:	23030000 	movwcs	r0, #12288	; 0x3000
 c28:	02060188 	andeq	r0, r6, #34	; 0x22
 c2c:	02000004 	andeq	r0, r0, #4
 c30:	0025031a 	eoreq	r0, r5, sl, lsl r3
 c34:	23030000 	movwcs	r0, #12288	; 0x3000
 c38:	0c06018c 	stfeqs	f0, [r6], {140}	; 0x8c
 c3c:	02000004 	andeq	r0, r0, #4
 c40:	0025031b 	eoreq	r0, r5, fp, lsl r3
 c44:	23030000 	movwcs	r0, #12288	; 0x3000
 c48:	16060190 			; <UNDEFINED> instruction: 0x16060190
 c4c:	02000004 	andeq	r0, r0, #4
 c50:	0025031c 	eoreq	r0, r5, ip, lsl r3
 c54:	23030000 	movwcs	r0, #12288	; 0x3000
 c58:	3a060194 	bcc	1812b0 <_start-0x3fe86d50>
 c5c:	02000002 	andeq	r0, r0, #2
 c60:	0025031d 	eoreq	r0, r5, sp, lsl r3
 c64:	23030000 	movwcs	r0, #12288	; 0x3000
 c68:	2e060198 	mcrcs	1, 0, r0, cr6, cr8, {4}
 c6c:	02000004 	andeq	r0, r0, #4
 c70:	0025031e 	eoreq	r0, r5, lr, lsl r3
 c74:	23030000 	movwcs	r0, #12288	; 0x3000
 c78:	0500019c 	streq	r0, [r0, #-412]	; 0x19c
 c7c:	000003a1 	andeq	r0, r0, r1, lsr #7
 c80:	3e031f02 	cdpcc	15, 0, cr1, cr3, cr2, {0}
 c84:	02000002 	andeq	r0, r0, #2
 c88:	00950704 	addseq	r0, r5, r4, lsl #14
 c8c:	01070000 	mrseq	r0, (UNDEF: 7)
 c90:	00000485 	andeq	r0, r0, r5, lsl #9
 c94:	84012901 	strhi	r2, [r1], #-2305	; 0x901
 c98:	94400095 	strbls	r0, [r0], #-149	; 0x95
 c9c:	28400096 	stmdacs	r0, {r1, r2, r4, r7}^
 ca0:	e3000002 	movw	r0, #2
 ca4:	08000004 	stmdaeq	r0, {r2}
 ca8:	0000022b 	andeq	r0, r0, fp, lsr #4
 cac:	00252b01 	eoreq	r2, r5, r1, lsl #22
 cb0:	91020000 	mrsls	r0, (UNDEF: 2)
 cb4:	01090078 	tsteq	r9, r8, ror r0
 cb8:	0000021e 	andeq	r0, r0, lr, lsl r2
 cbc:	94014a01 	strls	r4, [r1], #-2561	; 0xa01
 cc0:	80400096 	umaalhi	r0, r0, r6, r0
 cc4:	54400097 	strbpl	r0, [r0], #-151	; 0x97
 cc8:	0a000002 	beq	cd8 <_start-0x40007328>
 ccc:	006d754e 	rsbeq	r7, sp, lr, asr #10
 cd0:	00252701 	eoreq	r2, r5, r1, lsl #14
 cd4:	01010000 	mrseq	r0, (UNDEF: 1)
 cd8:	6d754e0b 	ldclvs	14, cr4, [r5, #-44]!	; 0xffffffd4
 cdc:	25270100 	strcs	r0, [r7, #-256]!	; 0x100
 ce0:	01000000 	mrseq	r0, (UNDEF: 0)
 ce4:	a0d80305 	sbcsge	r0, r8, r5, lsl #6
 ce8:	Address 0x00000ce8 is out of bounds.


Disassembly of section .debug_abbrev:

00000000 <.debug_abbrev>:
   0:	10001101 	andne	r1, r0, r1, lsl #2
   4:	12011106 	andne	r1, r1, #-2147483647	; 0x80000001
   8:	1b080301 	blne	200c14 <_start-0x3fe073ec>
   c:	13082508 	movwne	r2, #34056	; 0x8508
  10:	00000005 	andeq	r0, r0, r5
  14:	10001101 	andne	r1, r0, r1, lsl #2
  18:	12011106 	andne	r1, r1, #-2147483647	; 0x80000001
  1c:	1b080301 	blne	200c28 <_start-0x3fe073d8>
  20:	13082508 	movwne	r2, #34056	; 0x8508
  24:	00000005 	andeq	r0, r0, r5
  28:	10001101 	andne	r1, r0, r1, lsl #2
  2c:	12011106 	andne	r1, r1, #-2147483647	; 0x80000001
  30:	1b080301 	blne	200c3c <_start-0x3fe073c4>
  34:	13082508 	movwne	r2, #34056	; 0x8508
  38:	00000005 	andeq	r0, r0, r5
  3c:	25011101 	strcs	r1, [r1, #-257]	; 0x101
  40:	030b130e 	movweq	r1, #45838	; 0xb30e
  44:	110e1b0e 	tstne	lr, lr, lsl #22
  48:	10011201 	andne	r1, r1, r1, lsl #4
  4c:	02000006 	andeq	r0, r0, #6
  50:	0e030016 	mcreq	0, 0, r0, cr3, cr6, {0}
  54:	0b3b0b3a 	bleq	ec2d44 <_start-0x3f1452bc>
  58:	00001349 	andeq	r1, r0, r9, asr #6
  5c:	0b000f03 	bleq	3c70 <_start-0x40004390>
  60:	000e030b 	andeq	r0, lr, fp, lsl #6
  64:	012e0400 	teqeq	lr, r0, lsl #8
  68:	0b3a0e03 	bleq	e8387c <_start-0x3f184784>
  6c:	0c270b3b 	stceq	11, cr0, [r7], #-236	; 0xffffff14
  70:	01111349 	tsteq	r1, r9, asr #6
  74:	06400112 			; <UNDEFINED> instruction: 0x06400112
  78:	00001301 	andeq	r1, r0, r1, lsl #6
  7c:	03000505 	movweq	r0, #1285	; 0x505
  80:	3b0b3a08 	blcc	2ce8a8 <_start-0x3fd39758>
  84:	0213490b 	andseq	r4, r3, #180224	; 0x2c000
  88:	0600000a 	streq	r0, [r0], -sl
  8c:	0b0b0024 	bleq	2c0124 <_start-0x3fd47edc>
  90:	0e030b3e 	vmoveq.16	d3[0], r0
  94:	2e070000 	cdpcs	0, 0, cr0, cr7, cr0, {0}
  98:	030c3f01 	movweq	r3, #52993	; 0xcf01
  9c:	3b0b3a0e 	blcc	2ce8dc <_start-0x3fd39724>
  a0:	490c270b 	stmdbmi	ip, {r0, r1, r3, r8, r9, sl, sp}
  a4:	12011113 	andne	r1, r1, #-1073741820	; 0xc0000004
  a8:	01064001 	tsteq	r6, r1
  ac:	08000013 	stmdaeq	r0, {r0, r1, r4}
  b0:	0e030005 	cdpeq	0, 0, cr0, cr3, cr5, {0}
  b4:	0b3b0b3a 	bleq	ec2da4 <_start-0x3f14525c>
  b8:	0a021349 	beq	84de4 <_start-0x3ff8321c>
  bc:	34090000 	strcc	r0, [r9]
  c0:	3a0e0300 	bcc	380cc8 <_start-0x3fc87338>
  c4:	490b3b0b 	stmdbmi	fp, {r0, r1, r3, r8, r9, fp, ip, sp}
  c8:	000a0213 	andeq	r0, sl, r3, lsl r2
  cc:	000f0a00 	andeq	r0, pc, r0, lsl #20
  d0:	13490b0b 	movtne	r0, #39691	; 0x9b0b
  d4:	260b0000 	strcs	r0, [fp], -r0
  d8:	00134900 	andseq	r4, r3, r0, lsl #18
  dc:	00340c00 	eorseq	r0, r4, r0, lsl #24
  e0:	0b3a0803 	bleq	e820f4 <_start-0x3f185f0c>
  e4:	13490b3b 	movtne	r0, #39739	; 0x9b3b
  e8:	00000a02 	andeq	r0, r0, r2, lsl #20
  ec:	0b00240d 	bleq	9128 <_start-0x3fffeed8>
  f0:	030b3e0b 	movweq	r3, #48651	; 0xbe0b
  f4:	0e000008 	cdpeq	0, 0, cr0, cr0, cr8, {0}
  f8:	0111010b 	tsteq	r1, fp, lsl #2
  fc:	00000112 	andeq	r0, r0, r2, lsl r1
 100:	4901010f 	stmdbmi	r1, {r0, r1, r2, r3, r8}
 104:	00130113 	andseq	r0, r3, r3, lsl r1
 108:	00211000 	eoreq	r1, r1, r0
 10c:	0b2f1349 	bleq	bc4e38 <_start-0x3f4431c8>
 110:	0a110000 	beq	440118 <_start-0x3fbc7ee8>
 114:	3a0e0300 	bcc	380d1c <_start-0x3fc872e4>
 118:	110b3b0b 	tstne	fp, fp, lsl #22
 11c:	12000001 	andne	r0, r0, #1
 120:	0111010b 	tsteq	r1, fp, lsl #2
 124:	13010112 	movwne	r0, #4370	; 0x1112
 128:	34130000 	ldrcc	r0, [r3]
 12c:	3a080300 	bcc	200d34 <_start-0x3fe072cc>
 130:	49053b0b 	stmdbmi	r5, {r0, r1, r3, r8, r9, fp, ip, sp}
 134:	000a0213 	andeq	r0, sl, r3, lsl r2
 138:	012e1400 	teqeq	lr, r0, lsl #8
 13c:	0e030c3f 	mcreq	12, 0, r0, cr3, cr15, {1}
 140:	053b0b3a 	ldreq	r0, [fp, #-2874]!	; 0xb3a
 144:	13490c27 	movtne	r0, #39975	; 0x9c27
 148:	01120111 	tsteq	r2, r1, lsl r1
 14c:	13010640 	movwne	r0, #5696	; 0x1640
 150:	05150000 	ldreq	r0, [r5]
 154:	3a080300 	bcc	200d5c <_start-0x3fe072a4>
 158:	49053b0b 	stmdbmi	r5, {r0, r1, r3, r8, r9, fp, ip, sp}
 15c:	000a0213 	andeq	r0, sl, r3, lsl r2
 160:	00181600 	andseq	r1, r8, r0, lsl #12
 164:	34170000 	ldrcc	r0, [r7]
 168:	3a0e0300 	bcc	380d70 <_start-0x3fc87290>
 16c:	49053b0b 	stmdbmi	r5, {r0, r1, r3, r8, r9, fp, ip, sp}
 170:	000a0213 	andeq	r0, sl, r3, lsl r2
 174:	012e1800 	teqeq	lr, r0, lsl #16
 178:	0e030c3f 	mcreq	12, 0, r0, cr3, cr15, {1}
 17c:	053b0b3a 	ldreq	r0, [fp, #-2874]!	; 0xb3a
 180:	01110c27 	tsteq	r1, r7, lsr #24
 184:	06400112 			; <UNDEFINED> instruction: 0x06400112
 188:	00001301 	andeq	r1, r0, r1, lsl #6
 18c:	03003419 	movweq	r3, #1049	; 0x419
 190:	3b0b3a0e 	blcc	2ce9d0 <_start-0x3fd39630>
 194:	3f13490b 	svccc	0x0013490b
 198:	000c3c0c 	andeq	r3, ip, ip, lsl #24
 19c:	00341a00 	eorseq	r1, r4, r0, lsl #20
 1a0:	0b3a0e03 	bleq	e839b4 <_start-0x3f18464c>
 1a4:	13490b3b 	movtne	r0, #39739	; 0x9b3b
 1a8:	0a020c3f 	beq	832ac <_start-0x3ff84d54>
 1ac:	01000000 	mrseq	r0, (UNDEF: 0)
 1b0:	0e250111 	mcreq	1, 1, r0, cr5, cr1, {0}
 1b4:	0e030b13 	vmoveq.32	d3[0], r0
 1b8:	01110e1b 	tsteq	r1, fp, lsl lr
 1bc:	06100112 			; <UNDEFINED> instruction: 0x06100112
 1c0:	24020000 	strcs	r0, [r2]
 1c4:	3e0b0b00 	vmlacc.f64	d0, d11, d0
 1c8:	000e030b 	andeq	r0, lr, fp, lsl #6
 1cc:	01130300 	tsteq	r3, r0, lsl #6
 1d0:	0b3a0b0b 	bleq	e82e04 <_start-0x3f1851fc>
 1d4:	1301053b 	movwne	r0, #5435	; 0x153b
 1d8:	0d040000 	stceq	0, cr0, [r4]
 1dc:	3a080300 	bcc	200de4 <_start-0x3fe0721c>
 1e0:	49053b0b 	stmdbmi	r5, {r0, r1, r3, r8, r9, fp, ip, sp}
 1e4:	000a3813 	andeq	r3, sl, r3, lsl r8
 1e8:	000d0500 	andeq	r0, sp, r0, lsl #10
 1ec:	0b3a0e03 	bleq	e83a00 <_start-0x3f184600>
 1f0:	1349053b 	movtne	r0, #38203	; 0x953b
 1f4:	00000a38 	andeq	r0, r0, r8, lsr sl
 1f8:	03001606 	movweq	r1, #1542	; 0x606
 1fc:	3b0b3a0e 	blcc	2cea3c <_start-0x3fd395c4>
 200:	00134905 	andseq	r4, r3, r5, lsl #18
 204:	002e0700 	eoreq	r0, lr, r0, lsl #14
 208:	0e030c3f 	mcreq	12, 0, r0, cr3, cr15, {1}
 20c:	0b3b0b3a 	bleq	ec2efc <_start-0x3f145104>
 210:	01120111 	tsteq	r2, r1, lsl r1
 214:	00000640 	andeq	r0, r0, r0, asr #12
 218:	3f012e08 	svccc	0x00012e08
 21c:	3a0e030c 	bcc	380e54 <_start-0x3fc871ac>
 220:	270b3b0b 	strcs	r3, [fp, -fp, lsl #22]
 224:	1201110c 	andne	r1, r1, #3
 228:	01064001 	tsteq	r6, r1
 22c:	09000013 	stmdbeq	r0, {r0, r1, r4}
 230:	0e030005 	cdpeq	0, 0, cr0, cr3, cr5, {0}
 234:	0b3b0b3a 	bleq	ec2f24 <_start-0x3f1450dc>
 238:	0a021349 	beq	84f64 <_start-0x3ff8309c>
 23c:	260a0000 	strcs	r0, [sl], -r0
 240:	00134900 	andseq	r4, r3, r0, lsl #18
 244:	000f0b00 	andeq	r0, pc, r0, lsl #22
 248:	13490b0b 	movtne	r0, #39691	; 0x9b0b
 24c:	01000000 	mrseq	r0, (UNDEF: 0)
 250:	0e250111 	mcreq	1, 1, r0, cr5, cr1, {0}
 254:	0e030b13 	vmoveq.32	d3[0], r0
 258:	01110e1b 	tsteq	r1, fp, lsl lr
 25c:	06100112 			; <UNDEFINED> instruction: 0x06100112
 260:	24020000 	strcs	r0, [r2]
 264:	3e0b0b00 	vmlacc.f64	d0, d11, d0
 268:	000e030b 	andeq	r0, lr, fp, lsl #6
 26c:	01130300 	tsteq	r3, r0, lsl #6
 270:	0b3a0b0b 	bleq	e82ea4 <_start-0x3f18515c>
 274:	1301053b 	movwne	r0, #5435	; 0x153b
 278:	0d040000 	stceq	0, cr0, [r4]
 27c:	3a080300 	bcc	200e84 <_start-0x3fe0717c>
 280:	49053b0b 	stmdbmi	r5, {r0, r1, r3, r8, r9, fp, ip, sp}
 284:	000a3813 	andeq	r3, sl, r3, lsl r8
 288:	00160500 	andseq	r0, r6, r0, lsl #10
 28c:	0b3a0e03 	bleq	e83aa0 <_start-0x3f184560>
 290:	1349053b 	movtne	r0, #38203	; 0x953b
 294:	0d060000 	stceq	0, cr0, [r6]
 298:	3a0e0300 	bcc	380ea0 <_start-0x3fc87160>
 29c:	49053b0b 	stmdbmi	r5, {r0, r1, r3, r8, r9, fp, ip, sp}
 2a0:	000a3813 	andeq	r3, sl, r3, lsl r8
 2a4:	012e0700 	teqeq	lr, r0, lsl #14
 2a8:	0e030c3f 	mcreq	12, 0, r0, cr3, cr15, {1}
 2ac:	0b3b0b3a 	bleq	ec2f9c <_start-0x3f145064>
 2b0:	01110c27 	tsteq	r1, r7, lsr #24
 2b4:	06400112 			; <UNDEFINED> instruction: 0x06400112
 2b8:	00001301 	andeq	r1, r0, r1, lsl #6
 2bc:	03003408 	movweq	r3, #1032	; 0x408
 2c0:	3b0b3a0e 	blcc	2ceb00 <_start-0x3fd39500>
 2c4:	0213490b 	andseq	r4, r3, #180224	; 0x2c000
 2c8:	0900000a 	stmdbeq	r0, {r1, r3}
 2cc:	0c3f002e 	ldceq	0, cr0, [pc], #-184	; 21c <_start-0x40007de4>
 2d0:	0b3a0e03 	bleq	e83ae4 <_start-0x3f18451c>
 2d4:	0c270b3b 	stceq	11, cr0, [r7], #-236	; 0xffffff14
 2d8:	01120111 	tsteq	r2, r1, lsl r1
 2dc:	00000640 	andeq	r0, r0, r0, asr #12
 2e0:	0300340a 	movweq	r3, #1034	; 0x40a
 2e4:	3b0b3a08 	blcc	2ceb0c <_start-0x3fd394f4>
 2e8:	3f13490b 	svccc	0x0013490b
 2ec:	000c3c0c 	andeq	r3, ip, ip, lsl #24
 2f0:	00340b00 	eorseq	r0, r4, r0, lsl #22
 2f4:	0b3a0803 	bleq	e82308 <_start-0x3f185cf8>
 2f8:	13490b3b 	movtne	r0, #39739	; 0x9b3b
 2fc:	0a020c3f 	beq	83400 <_start-0x3ff84c00>
 300:	Address 0x00000300 is out of bounds.


Disassembly of section .debug_aranges:

00000000 <.debug_aranges>:
   0:	0000001c 	andeq	r0, r0, ip, lsl r0
   4:	00000002 	andeq	r0, r0, r2
   8:	00040000 	andeq	r0, r4, r0
   c:	00000000 	andeq	r0, r0, r0
  10:	40008000 	andmi	r8, r0, r0
  14:	00000134 	andeq	r0, r0, r4, lsr r1
	...
  20:	0000001c 	andeq	r0, r0, ip, lsl r0
  24:	00500002 	subseq	r0, r0, r2
  28:	00040000 	andeq	r0, r4, r0
  2c:	00000000 	andeq	r0, r0, r0
  30:	40008140 	andmi	r8, r0, r0, asr #2
  34:	00000094 	muleq	r0, r4, r0
	...
  40:	0000001c 	andeq	r0, r0, ip, lsl r0
  44:	00a80002 	adceq	r0, r8, r2
  48:	00040000 	andeq	r0, r4, r0
  4c:	00000000 	andeq	r0, r0, r0
  50:	400081d4 	ldrdmi	r8, [r0], -r4
  54:	000000b0 	strheq	r0, [r0], -r0	; <UNPREDICTABLE>
	...
  60:	0000001c 	andeq	r0, r0, ip, lsl r0
  64:	01000002 	tsteq	r0, r2
  68:	00040000 	andeq	r0, r4, r0
  6c:	00000000 	andeq	r0, r0, r0
  70:	40008284 	andmi	r8, r0, r4, lsl #5
  74:	000011f4 	strdeq	r1, [r0], -r4
	...
  80:	0000001c 	andeq	r0, r0, ip, lsl r0
  84:	05c20002 	strbeq	r0, [r2, #2]
  88:	00040000 	andeq	r0, r4, r0
  8c:	00000000 	andeq	r0, r0, r0
  90:	40009478 	andmi	r9, r0, r8, ror r4
  94:	0000010c 	andeq	r0, r0, ip, lsl #2
	...
  a0:	0000001c 	andeq	r0, r0, ip, lsl r0
  a4:	07d30002 	ldrbeq	r0, [r3, r2]
  a8:	00040000 	andeq	r0, r4, r0
  ac:	00000000 	andeq	r0, r0, r0
  b0:	40009584 	andmi	r9, r0, r4, lsl #11
  b4:	000001fc 	strdeq	r0, [r0], -ip
	...

Disassembly of section .debug_loc:

00000000 <.debug_loc>:
   0:	00000000 	andeq	r0, r0, r0
   4:	00000004 	andeq	r0, r0, r4
   8:	007d0002 	rsbseq	r0, sp, r2
   c:	00000004 	andeq	r0, r0, r4
  10:	00000008 	andeq	r0, r0, r8
  14:	047d0002 	ldrbteq	r0, [sp], #-2
  18:	00000008 	andeq	r0, r0, r8
  1c:	00000050 	andeq	r0, r0, r0, asr r0
  20:	047b0002 	ldrbteq	r0, [fp], #-2
	...
  2c:	00000050 	andeq	r0, r0, r0, asr r0
  30:	00000054 	andeq	r0, r0, r4, asr r0
  34:	007d0002 	rsbseq	r0, sp, r2
  38:	00000054 	andeq	r0, r0, r4, asr r0
  3c:	00000058 	andeq	r0, r0, r8, asr r0
  40:	087d0002 	ldmdaeq	sp!, {r1}^
  44:	00000058 	andeq	r0, r0, r8, asr r0
  48:	000001f8 	strdeq	r0, [r0], -r8
  4c:	047b0002 	ldrbteq	r0, [fp], #-2
	...
  58:	000001f8 	strdeq	r0, [r0], -r8
  5c:	000001fc 	strdeq	r0, [r0], -ip
  60:	007d0002 	rsbseq	r0, sp, r2
  64:	000001fc 	strdeq	r0, [r0], -ip
  68:	00000200 	andeq	r0, r0, r0, lsl #4
  6c:	087d0002 	ldmdaeq	sp!, {r1}^
  70:	00000200 	andeq	r0, r0, r0, lsl #4
  74:	00000268 	andeq	r0, r0, r8, ror #4
  78:	047b0002 	ldrbteq	r0, [fp], #-2
	...
  84:	00000268 	andeq	r0, r0, r8, ror #4
  88:	0000026c 	andeq	r0, r0, ip, ror #4
  8c:	007d0002 	rsbseq	r0, sp, r2
  90:	0000026c 	andeq	r0, r0, ip, ror #4
  94:	00000270 	andeq	r0, r0, r0, ror r2
  98:	047d0002 	ldrbteq	r0, [sp], #-2
  9c:	00000270 	andeq	r0, r0, r0, ror r2
  a0:	000002fc 	strdeq	r0, [r0], -ip
  a4:	047b0002 	ldrbteq	r0, [fp], #-2
	...
  b0:	000002fc 	strdeq	r0, [r0], -ip
  b4:	00000300 	andeq	r0, r0, r0, lsl #6
  b8:	007d0002 	rsbseq	r0, sp, r2
  bc:	00000300 	andeq	r0, r0, r0, lsl #6
  c0:	00000304 	andeq	r0, r0, r4, lsl #6
  c4:	087d0002 	ldmdaeq	sp!, {r1}^
  c8:	00000304 	andeq	r0, r0, r4, lsl #6
  cc:	00000794 	muleq	r0, r4, r7
  d0:	047b0002 	ldrbteq	r0, [fp], #-2
	...
  dc:	00000794 	muleq	r0, r4, r7
  e0:	00000798 	muleq	r0, r8, r7
  e4:	007d0002 	rsbseq	r0, sp, r2
  e8:	00000798 	muleq	r0, r8, r7
  ec:	0000079c 	muleq	r0, ip, r7
  f0:	047d0002 	ldrbteq	r0, [sp], #-2
  f4:	0000079c 	muleq	r0, ip, r7
  f8:	00000814 	andeq	r0, r0, r4, lsl r8
  fc:	047b0002 	ldrbteq	r0, [fp], #-2
	...
 108:	00000814 	andeq	r0, r0, r4, lsl r8
 10c:	00000818 	andeq	r0, r0, r8, lsl r8
 110:	007d0002 	rsbseq	r0, sp, r2
 114:	00000818 	andeq	r0, r0, r8, lsl r8
 118:	0000081c 	andeq	r0, r0, ip, lsl r8
 11c:	087d0002 	ldmdaeq	sp!, {r1}^
 120:	0000081c 	andeq	r0, r0, ip, lsl r8
 124:	0000114c 	andeq	r1, r0, ip, asr #2
 128:	047b0002 	ldrbteq	r0, [fp], #-2
	...
 134:	0000114c 	andeq	r1, r0, ip, asr #2
 138:	00001150 	andeq	r1, r0, r0, asr r1
 13c:	007d0002 	rsbseq	r0, sp, r2
 140:	00001150 	andeq	r1, r0, r0, asr r1
 144:	00001154 	andeq	r1, r0, r4, asr r1
 148:	0c7d0002 	ldcleq	0, cr0, [sp], #-8
 14c:	00001154 	andeq	r1, r0, r4, asr r1
 150:	00001158 	andeq	r1, r0, r8, asr r1
 154:	147d0002 	ldrbtne	r0, [sp], #-2
 158:	00001158 	andeq	r1, r0, r8, asr r1
 15c:	0000119c 	muleq	r0, ip, r1
 160:	107b0002 	rsbsne	r0, fp, r2
	...
 16c:	0000119c 	muleq	r0, ip, r1
 170:	000011a0 	andeq	r1, r0, r0, lsr #3
 174:	007d0002 	rsbseq	r0, sp, r2
 178:	000011a0 	andeq	r1, r0, r0, lsr #3
 17c:	000011a4 	andeq	r1, r0, r4, lsr #3
 180:	107d0002 	rsbsne	r0, sp, r2
 184:	000011a4 	andeq	r1, r0, r4, lsr #3
 188:	000011a8 	andeq	r1, r0, r8, lsr #3
 18c:	187d0002 	ldmdane	sp!, {r1}^
 190:	000011a8 	andeq	r1, r0, r8, lsr #3
 194:	000011f4 	strdeq	r1, [r0], -r4
 198:	147b0002 	ldrbtne	r0, [fp], #-2
	...
 1a8:	00000004 	andeq	r0, r0, r4
 1ac:	007d0002 	rsbseq	r0, sp, r2
 1b0:	00000004 	andeq	r0, r0, r4
 1b4:	00000008 	andeq	r0, r0, r8
 1b8:	047d0002 	ldrbteq	r0, [sp], #-2
 1bc:	00000008 	andeq	r0, r0, r8
 1c0:	00000064 	andeq	r0, r0, r4, rrx
 1c4:	047b0002 	ldrbteq	r0, [fp], #-2
	...
 1d0:	00000064 	andeq	r0, r0, r4, rrx
 1d4:	00000068 	andeq	r0, r0, r8, rrx
 1d8:	007d0002 	rsbseq	r0, sp, r2
 1dc:	00000068 	andeq	r0, r0, r8, rrx
 1e0:	0000006c 	andeq	r0, r0, ip, rrx
 1e4:	087d0002 	ldmdaeq	sp!, {r1}^
 1e8:	0000006c 	andeq	r0, r0, ip, rrx
 1ec:	000000c0 	andeq	r0, r0, r0, asr #1
 1f0:	047b0002 	ldrbteq	r0, [fp], #-2
	...
 1fc:	000000c0 	andeq	r0, r0, r0, asr #1
 200:	000000c4 	andeq	r0, r0, r4, asr #1
 204:	007d0002 	rsbseq	r0, sp, r2
 208:	000000c4 	andeq	r0, r0, r4, asr #1
 20c:	000000c8 	andeq	r0, r0, r8, asr #1
 210:	087d0002 	ldmdaeq	sp!, {r1}^
 214:	000000c8 	andeq	r0, r0, r8, asr #1
 218:	0000010c 	andeq	r0, r0, ip, lsl #2
 21c:	047b0002 	ldrbteq	r0, [fp], #-2
	...
 22c:	00000004 	andeq	r0, r0, r4
 230:	007d0002 	rsbseq	r0, sp, r2
 234:	00000004 	andeq	r0, r0, r4
 238:	00000008 	andeq	r0, r0, r8
 23c:	047d0002 	ldrbteq	r0, [sp], #-2
 240:	00000008 	andeq	r0, r0, r8
 244:	00000110 	andeq	r0, r0, r0, lsl r1
 248:	047b0002 	ldrbteq	r0, [fp], #-2
	...
 254:	00000110 	andeq	r0, r0, r0, lsl r1
 258:	00000114 	andeq	r0, r0, r4, lsl r1
 25c:	007d0002 	rsbseq	r0, sp, r2
 260:	00000114 	andeq	r0, r0, r4, lsl r1
 264:	00000118 	andeq	r0, r0, r8, lsl r1
 268:	047d0002 	ldrbteq	r0, [sp], #-2
 26c:	00000118 	andeq	r0, r0, r8, lsl r1
 270:	000001fc 	strdeq	r0, [r0], -ip
 274:	047b0002 	ldrbteq	r0, [fp], #-2
	...

Disassembly of section .debug_str:

00000000 <.debug_str>:
   0:	75625f5f 	strbvc	r5, [r2, #-3935]!	; 0xf5f
   4:	69746c69 	ldmdbvs	r4!, {r0, r3, r5, r6, sl, fp, sp, lr}^
   8:	61765f6e 	cmnvs	r6, lr, ror #30
   c:	73696c5f 	cmnvc	r9, #24320	; 0x5f00
  10:	69730074 	ldmdbvs	r3!, {r2, r4, r5, r6}^
  14:	656c706d 	strbvs	r7, [ip, #-109]!	; 0x6d
  18:	7274735f 	rsbsvc	r7, r4, #2080374785	; 0x7c000001
  1c:	6c756f74 	ldclvs	15, cr6, [r5], #-464	; 0xfffffe30
  20:	6c617600 	stclvs	6, cr7, [r1]
  24:	63006575 	movwvs	r6, #1397	; 0x575
  28:	746e756f 	strbtvc	r7, [lr], #-1391	; 0x56f
  2c:	696b7300 	stmdbvs	fp!, {r8, r9, ip, sp, lr}^
  30:	74615f70 	strbtvc	r5, [r1], #-3952	; 0xf70
  34:	4500696f 	strmi	r6, [r0, #-2415]	; 0x96f
  38:	63655c3a 	cmnvs	r5, #14848	; 0x3a00
  3c:	7370696c 	cmnvc	r0, #1769472	; 0x1b0000
  40:	72705f65 	rsbsvc	r5, r0, #404	; 0x194
  44:	63656a6f 	cmnvs	r5, #454656	; 0x6f000
  48:	4b5c7374 	blmi	171ce20 <_start-0x3e8eb1e0>
  4c:	495f5945 	ldmdbmi	pc, {r0, r2, r6, r8, fp, ip, lr}^	; <UNPREDICTABLE>
  50:	5f00544e 	svcpl	0x0000544e
  54:	756f745f 	strbvc	r7, [pc, #-1119]!	; fffffbfd <Num+0xbfff5b25>
  58:	72657070 	rsbvc	r7, r5, #112	; 0x70
  5c:	675f5f00 	ldrbvs	r5, [pc, -r0, lsl #30]
  60:	5f63756e 	svcpl	0x0063756e
  64:	6c5f6176 	ldfvse	f6, [pc], {118}	; 0x76
  68:	00747369 	rsbseq	r7, r4, r9, ror #6
  6c:	63657270 	cmnvs	r5, #7
  70:	6f697369 	svcvs	0x00697369
  74:	6e75006e 	cdpvs	0, 7, cr0, cr5, cr14, {3}
  78:	6e676973 	mcrvs	9, 3, r6, cr7, cr3, {3}
  7c:	63206465 	teqvs	r0, #1694498816	; 0x65000000
  80:	00726168 	rsbseq	r6, r2, r8, ror #2
  84:	65736162 	ldrbvs	r6, [r3, #-354]!	; 0x162
  88:	554e4700 	strbpl	r4, [lr, #-1792]	; 0x700
  8c:	34204320 	strtcc	r4, [r0], #-800	; 0x320
  90:	322e362e 	eorcc	r3, lr, #48234496	; 0x2e00000
  94:	6e6f6c00 	cdpvs	12, 6, cr6, cr15, cr0, {0}
  98:	6e752067 	cdpvs	0, 7, cr2, cr5, cr7, {3}
  9c:	6e676973 	mcrvs	9, 3, r6, cr7, cr3, {3}
  a0:	69206465 	stmdbvs	r0!, {r0, r2, r5, r6, sl, sp, lr}
  a4:	7300746e 	movwvc	r7, #1134	; 0x46e
  a8:	6c706d69 	ldclvs	13, cr6, [r0], #-420	; 0xfffffe5c
  ac:	74735f65 	ldrbtvc	r5, [r3], #-3941	; 0xf65
  b0:	6c6f7472 	cfstrdvs	mvd7, [pc], #-456	; fffffef0 <Num+0xbfff5e18>
  b4:	6d6f6300 	stclvs	3, cr6, [pc]	; bc <_start-0x40007f44>
  b8:	2f6e6f6d 	svccs	0x006e6f6d
  bc:	2f637273 	svccs	0x00637273
  c0:	6e697270 	mcrvs	2, 3, r7, cr9, cr0, {3}
  c4:	632e6674 	teqvs	lr, #121634816	; 0x7400000
  c8:	616c6600 	cmnvs	ip, r0, lsl #12
  cc:	71007367 	tstvc	r0, r7, ror #6
  d0:	696c6175 	stmdbvs	ip!, {r0, r2, r4, r5, r6, r8, sp, lr}^
  d4:	72656966 	rsbvc	r6, r5, #1671168	; 0x198000
  d8:	73657200 	cmnvc	r5, #0
  dc:	00746c75 	rsbseq	r6, r4, r5, ror ip
  e0:	65706572 	ldrbvs	r6, [r0, #-1394]!	; 0x572
  e4:	73007461 	movwvc	r7, #1121	; 0x461
  e8:	6c6e7274 	sfmvs	f7, 2, [lr], #-464	; 0xfffffe30
  ec:	65006e65 	strvs	r6, [r0, #-3685]	; 0xe65
  f0:	0070646e 	rsbseq	r6, r0, lr, ror #8
  f4:	7974635f 	ldmdbvc	r4!, {r0, r1, r2, r3, r4, r6, r8, r9, sp, lr}^
  f8:	64006570 	strvs	r6, [r0], #-1392	; 0x570
  fc:	74696769 	strbtvc	r6, [r9], #-1897	; 0x769
 100:	72700073 	rsbsvc	r0, r0, #115	; 0x73
 104:	62746e69 	rsbsvs	r6, r4, #1680	; 0x690
 108:	65666675 	strbvs	r6, [r6, #-1653]!	; 0x675
 10c:	69660072 	stmdbvs	r6!, {r1, r4, r5, r6}^
 110:	5f646c65 	svcpl	0x00646c65
 114:	74646977 	strbtvc	r6, [r4], #-2423	; 0x977
 118:	72610068 	rsbvc	r0, r1, #104	; 0x68
 11c:	6e007367 	cdpvs	3, 0, cr7, cr0, cr7, {3}
 120:	65626d75 	strbvs	r6, [r2, #-3445]!	; 0xd75
 124:	6f6c0072 	svcvs	0x006c0072
 128:	6920676e 	stmdbvs	r0!, {r1, r2, r3, r5, r6, r8, r9, sl, sp, lr}
 12c:	7300746e 	movwvc	r7, #1134	; 0x46e
 130:	006e6769 	rsbeq	r6, lr, r9, ror #14
 134:	65725f5f 	ldrbvs	r5, [r2, #-3935]!	; 0xf5f
 138:	69730073 	ldmdbvs	r3!, {r0, r1, r4, r5, r6}^
 13c:	7600657a 			; <UNDEFINED> instruction: 0x7600657a
 140:	69727073 	ldmdbvs	r2!, {r0, r1, r4, r5, r6, ip, sp, lr}^
 144:	0066746e 	rsbeq	r7, r6, lr, ror #8
 148:	74726175 	ldrbtvc	r6, [r2], #-373	; 0x175
 14c:	49550032 	ldmdbmi	r5, {r1, r4, r5}^
 150:	3250544e 	subscc	r5, r0, #1308622848	; 0x4e000000
 154:	4e495500 	cdpmi	5, 4, cr5, cr9, cr0, {0}
 158:	32505354 	subscc	r5, r0, #1342177281	; 0x50000001
 15c:	52425500 	subpl	r5, r2, #0
 160:	32564944 	subscc	r4, r6, #1114112	; 0x110000
 164:	74737000 	ldrbtvc	r7, [r3]
 168:	46550072 			; <UNDEFINED> instruction: 0x46550072
 16c:	54415453 	strbpl	r5, [r1], #-1107	; 0x453
 170:	54550032 	ldrbpl	r0, [r5], #-50	; 0x32
 174:	41545352 	cmpmi	r4, r2, asr r3
 178:	75003254 	strvc	r3, [r0, #-596]	; 0x254
 17c:	5f747261 	svcpl	0x00747261
 180:	74696e69 	strbtvc	r6, [r9], #-3689	; 0xe69
 184:	74616400 	strbtvc	r6, [r1], #-1024	; 0x400
 188:	46550061 	ldrbmi	r0, [r5], -r1, rrx
 18c:	324e4f43 	subcc	r4, lr, #268	; 0x10c
 190:	58545500 	ldmdapl	r4, {r8, sl, ip, lr}^
 194:	43003248 	movwmi	r3, #584	; 0x248
 198:	44504e4f 	ldrbmi	r4, [r0], #-3663	; 0xe4f
 19c:	4355004e 	cmpmi	r5, #78	; 0x4e
 1a0:	00324e4f 	eorseq	r4, r2, pc, asr #28
 1a4:	54534d55 	ldrbpl	r4, [r3], #-3413	; 0xd55
 1a8:	00325441 	eorseq	r5, r2, r1, asr #8
 1ac:	544e4955 	strbpl	r4, [lr], #-2389	; 0x955
 1b0:	5500324d 	strpl	r3, [r0, #-589]	; 0x24d
 1b4:	4e4f434c 	cdpmi	3, 4, cr4, cr15, cr12, {2}
 1b8:	70670032 	rsbvc	r0, r7, r2, lsr r0
 1bc:	70003161 	andvc	r3, r0, r1, ror #2
 1c0:	00637475 	rsbeq	r7, r3, r5, ror r4
 1c4:	53524555 	cmppl	r2, #356515840	; 0x15400000
 1c8:	32544154 	subscc	r4, r4, #21
 1cc:	44555000 	ldrbmi	r5, [r5]
 1d0:	004e4450 	subeq	r4, lr, r0, asr r4
 1d4:	6d6d6f63 	stclvs	15, cr6, [sp, #-396]!	; 0xfffffe74
 1d8:	732f6e6f 	teqvc	pc, #1776	; 0x6f0
 1dc:	752f6372 	strvc	r6, [pc, #-882]!	; fffffe72 <Num+0xbfff5d9a>
 1e0:	2e747261 	cdpcs	2, 7, cr7, cr4, cr1, {3}
 1e4:	75700063 	ldrbvc	r0, [r0, #-99]!	; 0x63
 1e8:	55007374 	strpl	r7, [r0, #-884]	; 0x374
 1ec:	4e4f434d 	cdpmi	3, 4, cr4, cr15, cr13, {2}
 1f0:	52550032 	subspl	r0, r5, #50	; 0x32
 1f4:	00324858 	eorseq	r4, r2, r8, asr r8
 1f8:	41524655 	cmpmi	r2, r5, asr r6
 1fc:	4c415643 	mcrrmi	6, 4, r5, r1, cr3
 200:	43490032 	movtmi	r0, #36914	; 0x9032
 204:	50434944 	subpl	r4, r3, r4, asr #18
 208:	435f3052 	cmpmi	pc, #82	; 0x52
 20c:	00305550 	eorseq	r5, r0, r0, asr r5
 210:	45544e49 	ldrbmi	r4, [r4, #-3657]	; 0xe49
 214:	50555252 	subspl	r5, r5, r2, asr r2
 218:	554f5f54 	strbpl	r5, [pc, #-3924]	; fffff2cc <Num+0xbfff51f4>
 21c:	616d0054 	qdsubvs	r0, r4, sp
 220:	49006e69 	stmdbmi	r0, {r0, r3, r5, r6, r9, sl, fp, sp, lr}
 224:	4f454343 	svcmi	0x00454343
 228:	69005249 	stmdbvs	r0, {r0, r3, r6, r9, ip, lr}
 22c:	6e5f7172 	mrcvs	1, 2, r7, cr15, cr2, {3}
 230:	49006d75 	stmdbmi	r0, {r0, r2, r4, r5, r6, r8, sl, fp, sp, lr}
 234:	50424343 	subpl	r4, r2, r3, asr #6
 238:	43490052 	movtmi	r0, #36946	; 0x9052
 23c:	54504944 	ldrbpl	r4, [r0], #-2372	; 0x944
 240:	00383352 	eorseq	r3, r8, r2, asr r3
 244:	49444349 	stmdbmi	r4, {r0, r3, r6, r8, r9, lr}^
 248:	31525450 	cmpcc	r2, r0, asr r4
 24c:	43490030 	movtmi	r0, #36912	; 0x9030
 250:	54504944 	ldrbpl	r4, [r0], #-2372	; 0x944
 254:	00313152 	eorseq	r3, r1, r2, asr r1
 258:	49444349 	stmdbmi	r4, {r0, r3, r6, r8, r9, lr}^
 25c:	31525450 	cmpcc	r2, r0, asr r4
 260:	43490032 	movtmi	r0, #36914	; 0x9032
 264:	54504944 	ldrbpl	r4, [r0], #-2372	; 0x944
 268:	00333152 	eorseq	r3, r3, r2, asr r1
 26c:	49444349 	stmdbmi	r4, {r0, r3, r6, r8, r9, lr}^
 270:	31525450 	cmpcc	r2, r0, asr r4
 274:	43490034 	movtmi	r0, #36916	; 0x9034
 278:	54504944 	ldrbpl	r4, [r0], #-2372	; 0x944
 27c:	00353152 	eorseq	r3, r5, r2, asr r1
 280:	49444349 	stmdbmi	r4, {r0, r3, r6, r8, r9, lr}^
 284:	31525450 	cmpcc	r2, r0, asr r4
 288:	43490036 	movtmi	r0, #36918	; 0x9036
 28c:	54504944 	ldrbpl	r4, [r0], #-2372	; 0x944
 290:	00373152 	eorseq	r3, r7, r2, asr r1
 294:	49444349 	stmdbmi	r4, {r0, r3, r6, r8, r9, lr}^
 298:	31525450 	cmpcc	r2, r0, asr r4
 29c:	43490038 	movtmi	r0, #36920	; 0x9038
 2a0:	54504944 	ldrbpl	r4, [r0], #-2372	; 0x944
 2a4:	00393152 	eorseq	r3, r9, r2, asr r1
 2a8:	49444349 	stmdbmi	r4, {r0, r3, r6, r8, r9, lr}^
 2ac:	37525450 			; <UNDEFINED> instruction: 0x37525450
 2b0:	5550435f 	ldrbpl	r4, [r0, #-863]	; 0x35f
 2b4:	4e490030 	mcrmi	0, 2, r0, cr9, cr0, {1}
 2b8:	5f474554 	svcpl	0x00474554
 2bc:	49004e45 	stmdbmi	r0, {r0, r2, r6, r9, sl, fp, lr}
 2c0:	50494443 	subpl	r4, r9, r3, asr #8
 2c4:	5f355254 	svcpl	0x00355254
 2c8:	30555043 	subscc	r5, r5, r3, asr #32
 2cc:	44434900 	strbmi	r4, [r3], #-2304	; 0x900
 2d0:	52545049 	subspl	r5, r4, #73	; 0x49
 2d4:	43490038 	movtmi	r0, #36920	; 0x9038
 2d8:	54504944 	ldrbpl	r4, [r0], #-2372	; 0x944
 2dc:	49003952 	stmdbmi	r0, {r1, r4, r6, r8, fp, ip, sp}
 2e0:	41494343 	cmpmi	r9, r3, asr #6
 2e4:	43490052 	movtmi	r0, #36946	; 0x9052
 2e8:	50434944 	subpl	r4, r3, r4, asr #18
 2ec:	49003152 	stmdbmi	r0, {r1, r4, r6, r8, ip, sp}
 2f0:	43494443 	movtmi	r4, #37955	; 0x9443
 2f4:	00325250 	eorseq	r5, r2, r0, asr r2
 2f8:	49444349 	stmdbmi	r4, {r0, r3, r6, r8, r9, lr}^
 2fc:	33525043 	cmpcc	r2, #67	; 0x43
 300:	44434900 	strbmi	r4, [r3], #-2304	; 0x900
 304:	52504349 	subspl	r4, r0, #603979777	; 0x24000001
 308:	43490034 	movtmi	r0, #36916	; 0x9034
 30c:	54504944 	ldrbpl	r4, [r0], #-2372	; 0x944
 310:	00323252 	eorseq	r3, r2, r2, asr r2
 314:	49444349 	stmdbmi	r4, {r0, r3, r6, r8, r9, lr}^
 318:	32525450 	subscc	r5, r2, #1342177280	; 0x50000000
 31c:	43490030 	movtmi	r0, #36912	; 0x9030
 320:	54504944 	ldrbpl	r4, [r0], #-2372	; 0x944
 324:	00313252 	eorseq	r3, r1, r2, asr r2
 328:	41434349 	cmpmi	r3, r9, asr #6
 32c:	00525042 	subseq	r5, r2, r2, asr #32
 330:	49444349 	stmdbmi	r4, {r0, r3, r6, r8, r9, lr}^
 334:	32525450 	subscc	r5, r2, #1342177280	; 0x50000000
 338:	43490033 	movtmi	r0, #36915	; 0x9033
 33c:	54504944 	ldrbpl	r4, [r0], #-2372	; 0x944
 340:	00343252 	eorseq	r3, r4, r2, asr r2
 344:	49444349 	stmdbmi	r4, {r0, r3, r6, r8, r9, lr}^
 348:	32525450 	subscc	r5, r2, #1342177280	; 0x50000000
 34c:	43490035 	movtmi	r0, #36917	; 0x9035
 350:	54504944 	ldrbpl	r4, [r0], #-2372	; 0x944
 354:	00363252 	eorseq	r3, r6, r2, asr r2
 358:	49444349 	stmdbmi	r4, {r0, r3, r6, r8, r9, lr}^
 35c:	32525450 	subscc	r5, r2, #1342177280	; 0x50000000
 360:	43490037 	movtmi	r0, #36919	; 0x9037
 364:	54504944 	ldrbpl	r4, [r0], #-2372	; 0x944
 368:	00383252 	eorseq	r3, r8, r2, asr r2
 36c:	49444349 	stmdbmi	r4, {r0, r3, r6, r8, r9, lr}^
 370:	32525450 	subscc	r5, r2, #1342177280	; 0x50000000
 374:	43490039 	movtmi	r0, #36921	; 0x9039
 378:	54504944 	ldrbpl	r4, [r0], #-2372	; 0x944
 37c:	435f3252 	cmpmi	pc, #536870917	; 0x20000005
 380:	00305550 	eorseq	r5, r0, r0, asr r5
 384:	31787067 	cmncc	r8, r7, rrx
 388:	78706700 	ldmdavc	r0!, {r8, r9, sl, sp, lr}^
 38c:	43490032 	movtmi	r0, #36914	; 0x9032
 390:	54504944 	ldrbpl	r4, [r0], #-2372	; 0x944
 394:	435f3352 	cmpmi	pc, #1207959553	; 0x48000001
 398:	00305550 	eorseq	r5, r0, r0, asr r5
 39c:	72706369 	rsbsvc	r6, r0, #-1543503871	; 0xa4000001
 3a0:	74706900 	ldrbtvc	r6, [r0], #-2304	; 0x900
 3a4:	43490072 	movtmi	r0, #36978	; 0x9072
 3a8:	45534944 	ldrbmi	r4, [r3, #-2372]	; 0x944
 3ac:	6b003452 	blvs	d4fc <_start-0x3fffab04>
 3b0:	695f7965 	ldmdbvs	pc, {r0, r2, r5, r6, r8, fp, ip, sp, lr}^	; <UNPREDICTABLE>
 3b4:	632e746e 	teqvs	lr, #1845493760	; 0x6e000000
 3b8:	44434900 	strbmi	r4, [r3], #-2304	; 0x900
 3bc:	52545049 	subspl	r5, r4, #73	; 0x49
 3c0:	50435f34 	subpl	r5, r3, r4, lsr pc
 3c4:	49003055 	stmdbmi	r0, {r0, r2, r4, r6, ip, sp}
 3c8:	50524343 	subspl	r4, r2, r3, asr #6
 3cc:	70630052 	rsbvc	r0, r3, r2, asr r0
 3d0:	49003075 	stmdbmi	r0, {r0, r2, r4, r5, r6, ip, sp}
 3d4:	50494443 	subpl	r4, r9, r3, asr #8
 3d8:	30335254 	eorscc	r5, r3, r4, asr r2
 3dc:	43434900 	movtmi	r4, #14592	; 0x3900
 3e0:	00524d50 	subseq	r4, r2, r0, asr sp
 3e4:	49444349 	stmdbmi	r4, {r0, r3, r6, r8, r9, lr}^
 3e8:	33525450 	cmpcc	r2, #1342177280	; 0x50000000
 3ec:	43490032 	movtmi	r0, #36914	; 0x9032
 3f0:	54504944 	ldrbpl	r4, [r0], #-2372	; 0x944
 3f4:	00333352 	eorseq	r3, r3, r2, asr r3
 3f8:	49444349 	stmdbmi	r4, {r0, r3, r6, r8, r9, lr}^
 3fc:	33525450 	cmpcc	r2, #1342177280	; 0x50000000
 400:	43490034 	movtmi	r0, #36916	; 0x9034
 404:	54504944 	ldrbpl	r4, [r0], #-2372	; 0x944
 408:	00353352 	eorseq	r3, r5, r2, asr r3
 40c:	49444349 	stmdbmi	r4, {r0, r3, r6, r8, r9, lr}^
 410:	33525450 	cmpcc	r2, #1342177280	; 0x50000000
 414:	43490036 	movtmi	r0, #36918	; 0x9036
 418:	54504944 	ldrbpl	r4, [r0], #-2372	; 0x944
 41c:	00373352 	eorseq	r3, r7, r2, asr r3
 420:	49444349 	stmdbmi	r4, {r0, r3, r6, r8, r9, lr}^
 424:	30524553 	subscc	r4, r2, r3, asr r5
 428:	5550435f 	ldrbpl	r4, [r0, #-863]	; 0x35f
 42c:	43490030 	movtmi	r0, #36912	; 0x9030
 430:	54504944 	ldrbpl	r4, [r0], #-2372	; 0x944
 434:	00393352 	eorseq	r3, r9, r2, asr r3
 438:	49444349 	stmdbmi	r4, {r0, r3, r6, r8, r9, lr}^
 43c:	36525450 			; <UNDEFINED> instruction: 0x36525450
 440:	5550435f 	ldrbpl	r4, [r0, #-863]	; 0x35f
 444:	43490030 	movtmi	r0, #36912	; 0x9030
 448:	45534944 	ldrbmi	r4, [r3, #-2372]	; 0x944
 44c:	49003152 	stmdbmi	r0, {r1, r4, r6, r8, ip, sp}
 450:	53494443 	movtpl	r4, #37955	; 0x9443
 454:	00325245 	eorseq	r5, r2, r5, asr #4
 458:	49444349 	stmdbmi	r4, {r0, r3, r6, r8, r9, lr}^
 45c:	33524553 	cmpcc	r2, #348127232	; 0x14c00000
 460:	43434900 	movtmi	r4, #14592	; 0x3900
 464:	52495048 	subpl	r5, r9, #72	; 0x48
 468:	44434900 	strbmi	r4, [r3], #-2304	; 0x900
 46c:	52545049 	subspl	r5, r4, #73	; 0x49
 470:	50435f30 	subpl	r5, r3, r0, lsr pc
 474:	49003055 	stmdbmi	r0, {r0, r2, r4, r6, ip, sp}
 478:	50494443 	subpl	r4, r9, r3, asr #8
 47c:	5f315254 	svcpl	0x00315254
 480:	30555043 	subscc	r5, r5, r3, asr #32
 484:	5f6f6400 	svcpl	0x006f6400
 488:	00717269 	rsbseq	r7, r1, r9, ror #4
 48c:	49434349 	stmdbmi	r3, {r0, r3, r6, r8, r9, lr}^
 490:	69005243 	stmdbvs	r0, {r0, r1, r6, r9, ip, lr}
 494:	00726573 	rsbseq	r6, r2, r3, ror r5
 498:	49444349 	stmdbmi	r4, {r0, r3, r6, r8, r9, lr}^
 49c:	33525450 	cmpcc	r2, #1342177280	; 0x50000000
 4a0:	Address 0x000004a0 is out of bounds.


Disassembly of section .debug_frame:

00000000 <.debug_frame>:
   0:	0000000c 	andeq	r0, r0, ip
   4:	ffffffff 			; <UNDEFINED> instruction: 0xffffffff
   8:	7c020001 	stcvc	0, cr0, [r2], {1}
   c:	000d0c0e 	andeq	r0, sp, lr, lsl #24
  10:	00000014 	andeq	r0, r0, r4, lsl r0
  14:	00000000 	andeq	r0, r0, r0
  18:	40008284 	andmi	r8, r0, r4, lsl #5
  1c:	00000050 	andeq	r0, r0, r0, asr r0
  20:	8b040e42 	blhi	103930 <_start-0x3ff046d0>
  24:	0b0d4201 	bleq	350830 <_start-0x3fcb77d0>
  28:	00000018 	andeq	r0, r0, r8, lsl r0
  2c:	00000000 	andeq	r0, r0, r0
  30:	400082d4 	ldrdmi	r8, [r0], -r4
  34:	000001a8 	andeq	r0, r0, r8, lsr #3
  38:	8e080e42 	cdphi	14, 0, cr0, cr8, cr2, {2}
  3c:	42028b01 	andmi	r8, r2, #1024	; 0x400
  40:	00040b0c 	andeq	r0, r4, ip, lsl #22
  44:	00000018 	andeq	r0, r0, r8, lsl r0
  48:	00000000 	andeq	r0, r0, r0
  4c:	4000847c 	andmi	r8, r0, ip, ror r4
  50:	00000070 	andeq	r0, r0, r0, ror r0
  54:	8e080e42 	cdphi	14, 0, cr0, cr8, cr2, {2}
  58:	42028b01 	andmi	r8, r2, #1024	; 0x400
  5c:	00040b0c 	andeq	r0, r4, ip, lsl #22
  60:	00000014 	andeq	r0, r0, r4, lsl r0
  64:	00000000 	andeq	r0, r0, r0
  68:	400084ec 	andmi	r8, r0, ip, ror #9
  6c:	00000094 	muleq	r0, r4, r0
  70:	8b040e42 	blhi	103980 <_start-0x3ff04680>
  74:	0b0d4201 	bleq	350880 <_start-0x3fcb7780>
  78:	00000018 	andeq	r0, r0, r8, lsl r0
  7c:	00000000 	andeq	r0, r0, r0
  80:	40008580 	andmi	r8, r0, r0, lsl #11
  84:	00000498 	muleq	r0, r8, r4
  88:	8e080e42 	cdphi	14, 0, cr0, cr8, cr2, {2}
  8c:	42028b01 	andmi	r8, r2, #1024	; 0x400
  90:	00040b0c 	andeq	r0, r4, ip, lsl #22
  94:	00000014 	andeq	r0, r0, r4, lsl r0
  98:	00000000 	andeq	r0, r0, r0
  9c:	40008a18 	andmi	r8, r0, r8, lsl sl
  a0:	00000080 	andeq	r0, r0, r0, lsl #1
  a4:	8b040e42 	blhi	1039b4 <_start-0x3ff0464c>
  a8:	0b0d4201 	bleq	3508b4 <_start-0x3fcb774c>
  ac:	00000018 	andeq	r0, r0, r8, lsl r0
  b0:	00000000 	andeq	r0, r0, r0
  b4:	40008a98 	mulmi	r0, r8, sl
  b8:	00000938 	andeq	r0, r0, r8, lsr r9
  bc:	8e080e42 	cdphi	14, 0, cr0, cr8, cr2, {2}
  c0:	42028b01 	andmi	r8, r2, #1024	; 0x400
  c4:	00040b0c 	andeq	r0, r4, ip, lsl #22
  c8:	00000020 	andeq	r0, r0, r0, lsr #32
  cc:	00000000 	andeq	r0, r0, r0
  d0:	400093d0 	ldrdmi	r9, [r0], -r0
  d4:	00000050 	andeq	r0, r0, r0, asr r0
  d8:	830c0e42 	movwhi	r0, #52802	; 0xce42
  dc:	81028201 	tsthi	r2, r1, lsl #4
  e0:	140e4203 	strne	r4, [lr], #-515	; 0x203
  e4:	058b048e 	streq	r0, [fp, #1166]	; 0x48e
  e8:	100b0c42 	andne	r0, fp, r2, asr #24
  ec:	00000024 	andeq	r0, r0, r4, lsr #32
  f0:	00000000 	andeq	r0, r0, r0
  f4:	40009420 	andmi	r9, r0, r0, lsr #8
  f8:	00000058 	andeq	r0, r0, r8, asr r0
  fc:	83100e42 	tsthi	r0, #1056	; 0x420
 100:	81028201 	tsthi	r2, r1, lsl #4
 104:	42048003 	andmi	r8, r4, #3
 108:	058e180e 	streq	r1, [lr, #2062]	; 0x80e
 10c:	0c42068b 	mcrreq	6, 8, r0, r2, cr11
 110:	0000140b 	andeq	r1, r0, fp, lsl #8
 114:	0000000c 	andeq	r0, r0, ip
 118:	ffffffff 			; <UNDEFINED> instruction: 0xffffffff
 11c:	7c020001 	stcvc	0, cr0, [r2], {1}
 120:	000d0c0e 	andeq	r0, sp, lr, lsl #24
 124:	00000014 	andeq	r0, r0, r4, lsl r0
 128:	00000114 	andeq	r0, r0, r4, lsl r1
 12c:	40009478 	andmi	r9, r0, r8, ror r4
 130:	00000064 	andeq	r0, r0, r4, rrx
 134:	8b040e42 	blhi	103a44 <_start-0x3ff045bc>
 138:	0b0d4201 	bleq	350944 <_start-0x3fcb76bc>
 13c:	00000018 	andeq	r0, r0, r8, lsl r0
 140:	00000114 	andeq	r0, r0, r4, lsl r1
 144:	400094dc 	ldrdmi	r9, [r0], -ip
 148:	0000005c 	andeq	r0, r0, ip, asr r0
 14c:	8e080e42 	cdphi	14, 0, cr0, cr8, cr2, {2}
 150:	42028b01 	andmi	r8, r2, #1024	; 0x400
 154:	00040b0c 	andeq	r0, r4, ip, lsl #22
 158:	00000018 	andeq	r0, r0, r8, lsl r0
 15c:	00000114 	andeq	r0, r0, r4, lsl r1
 160:	40009538 	andmi	r9, r0, r8, lsr r5
 164:	0000004c 	andeq	r0, r0, ip, asr #32
 168:	8e080e42 	cdphi	14, 0, cr0, cr8, cr2, {2}
 16c:	42028b01 	andmi	r8, r2, #1024	; 0x400
 170:	00040b0c 	andeq	r0, r4, ip, lsl #22
 174:	0000000c 	andeq	r0, r0, ip
 178:	ffffffff 			; <UNDEFINED> instruction: 0xffffffff
 17c:	7c020001 	stcvc	0, cr0, [r2], {1}
 180:	000d0c0e 	andeq	r0, sp, lr, lsl #24
 184:	00000014 	andeq	r0, r0, r4, lsl r0
 188:	00000174 	andeq	r0, r0, r4, ror r1
 18c:	40009584 	andmi	r9, r0, r4, lsl #11
 190:	00000110 	andeq	r0, r0, r0, lsl r1
 194:	8b040e42 	blhi	103aa4 <_start-0x3ff0455c>
 198:	0b0d4201 	bleq	3509a4 <_start-0x3fcb765c>
 19c:	00000014 	andeq	r0, r0, r4, lsl r0
 1a0:	00000174 	andeq	r0, r0, r4, ror r1
 1a4:	40009694 	mulmi	r0, r4, r6
 1a8:	000000ec 	andeq	r0, r0, ip, ror #1
 1ac:	8b040e42 	blhi	103abc <_start-0x3ff04544>
 1b0:	0b0d4201 	bleq	3509bc <_start-0x3fcb7644>
