
ad.elf:     file format elf32-littlearm


Disassembly of section .text:

40008000 <_start>:
40008000:	ea00000d 	b	4000803c <reset>
40008004:	e59ff014 	ldr	pc, [pc, #20]	; 40008020 <_undefined_instruction>
40008008:	e59ff014 	ldr	pc, [pc, #20]	; 40008024 <_software_interrupt>
4000800c:	e59ff014 	ldr	pc, [pc, #20]	; 40008028 <_prefetch_abort>
40008010:	e59ff014 	ldr	pc, [pc, #20]	; 4000802c <_data_abort>
40008014:	e59ff014 	ldr	pc, [pc, #20]	; 40008030 <_not_used>
40008018:	e59ff014 	ldr	pc, [pc, #20]	; 40008034 <_irq>
4000801c:	e59ff014 	ldr	pc, [pc, #20]	; 40008038 <_fiq>

40008020 <_undefined_instruction>:
40008020:	40008020 	andmi	r8, r0, r0, lsr #32

40008024 <_software_interrupt>:
40008024:	40008024 	andmi	r8, r0, r4, lsr #32

40008028 <_prefetch_abort>:
40008028:	40008028 	andmi	r8, r0, r8, lsr #32

4000802c <_data_abort>:
4000802c:	4000802c 	andmi	r8, r0, ip, lsr #32

40008030 <_not_used>:
40008030:	40008030 	andmi	r8, r0, r0, lsr r0

40008034 <_irq>:
40008034:	40008110 	andmi	r8, r0, r0, lsl r1

40008038 <_fiq>:
40008038:	40008038 	andmi	r8, r0, r8, lsr r0

4000803c <reset>:
4000803c:	e59f00e0 	ldr	r0, [pc, #224]	; 40008124 <stacktop+0x4>
40008040:	ee0c0f10 	mcr	15, 0, r0, cr12, cr0, {0}
40008044:	e10f0000 	mrs	r0, CPSR
40008048:	e3c0001f 	bic	r0, r0, #31
4000804c:	e38000d3 	orr	r0, r0, #211	; 0xd3
40008050:	e129f000 	msr	CPSR_fc, r0
40008054:	e3e0020f 	mvn	r0, #-268435456	; 0xf0000000
40008058:	ee010f50 	mcr	15, 0, r0, cr1, cr0, {2}
4000805c:	e3a00000 	mov	r0, #0
40008060:	ee080f17 	mcr	15, 0, r0, cr8, cr7, {0}
40008064:	ee070f15 	mcr	15, 0, r0, cr7, cr5, {0}
40008068:	e3a03101 	mov	r3, #1073741824	; 0x40000000
4000806c:	eee83a10 	vmsr	fpexc, r3
40008070:	ee110f10 	mrc	15, 0, r0, cr1, cr0, {0}
40008074:	e3c00a02 	bic	r0, r0, #8192	; 0x2000
40008078:	e3c00007 	bic	r0, r0, #7
4000807c:	e3800a01 	orr	r0, r0, #4096	; 0x1000
40008080:	e3800002 	orr	r0, r0, #2
40008084:	e3800b02 	orr	r0, r0, #2048	; 0x800
40008088:	ee010f10 	mcr	15, 0, r0, cr1, cr0, {0}
4000808c:	e59f0094 	ldr	r0, [pc, #148]	; 40008128 <stacktop+0x8>
40008090:	e5901000 	ldr	r1, [r0]
40008094:	e3c1180f 	bic	r1, r1, #983040	; 0xf0000
40008098:	e3811801 	orr	r1, r1, #65536	; 0x10000
4000809c:	e5801000 	str	r1, [r0]
400080a0:	e59f0084 	ldr	r0, [pc, #132]	; 4000812c <stacktop+0xc>
400080a4:	e5901000 	ldr	r1, [r0]
400080a8:	e3c11c03 	bic	r1, r1, #768	; 0x300
400080ac:	e5801000 	str	r1, [r0]
400080b0:	e59f0078 	ldr	r0, [pc, #120]	; 40008130 <stacktop+0x10>
400080b4:	e5901000 	ldr	r1, [r0]
400080b8:	e3811010 	orr	r1, r1, #16
400080bc:	e5801000 	str	r1, [r0]

400080c0 <init_stack>:
400080c0:	e59f0058 	ldr	r0, [pc, #88]	; 40008120 <stacktop>
400080c4:	e1a0d000 	mov	sp, r0
400080c8:	e2400c02 	sub	r0, r0, #512	; 0x200
400080cc:	e329f0d2 	msr	CPSR_fc, #210	; 0xd2
400080d0:	e1a0d000 	mov	sp, r0
400080d4:	e2400c02 	sub	r0, r0, #512	; 0x200
400080d8:	e329f0d1 	msr	CPSR_fc, #209	; 0xd1
400080dc:	e1a0d000 	mov	sp, r0
400080e0:	e2400000 	sub	r0, r0, #0
400080e4:	e329f0d7 	msr	CPSR_fc, #215	; 0xd7
400080e8:	e1a0d000 	mov	sp, r0
400080ec:	e2400000 	sub	r0, r0, #0
400080f0:	e329f0db 	msr	CPSR_fc, #219	; 0xdb
400080f4:	e1a0d000 	mov	sp, r0
400080f8:	e2400000 	sub	r0, r0, #0
400080fc:	e329f010 	msr	CPSR_fc, #16
40008100:	e1a0d000 	mov	sp, r0
40008104:	ea000630 	b	400099cc <main>
40008108:	e1a00000 	nop			; (mov r0, r0)
4000810c:	e1a00000 	nop			; (mov r0, r0)

40008110 <irq_handler>:
40008110:	e24ee004 	sub	lr, lr, #4
40008114:	e92d5fff 	push	{r0, r1, r2, r3, r4, r5, r6, r7, r8, r9, sl, fp, ip, lr}
40008118:	e1a00000 	nop			; (mov r0, r0)
4000811c:	e8fd9fff 	ldm	sp!, {r0, r1, r2, r3, r4, r5, r6, r7, r8, r9, sl, fp, ip, pc}^

40008120 <stacktop>:
40008120:	4000a270 	andmi	sl, r0, r0, ror r2
40008124:	40008000 	andmi	r8, r0, r0
40008128:	114001e0 	smlalttne	r0, r0, r0, r1	; <UNPREDICTABLE>
4000812c:	114001e8 	smlalttne	r0, r0, r8, r1	; <UNPREDICTABLE>
40008130:	114001e4 	smlalttne	r0, r0, r4, r1	; <UNPREDICTABLE>
40008134:	e1a00000 	nop			; (mov r0, r0)
40008138:	e1a00000 	nop			; (mov r0, r0)
4000813c:	e1a00000 	nop			; (mov r0, r0)

40008140 <__udivsi3>:
40008140:	e3510000 	cmp	r1, #0
40008144:	0a00001f 	beq	400081c8 <Ldiv0>
40008148:	e3a03001 	mov	r3, #1
4000814c:	e3a02000 	mov	r2, #0
40008150:	e1500001 	cmp	r0, r1
40008154:	3a000019 	bcc	400081c0 <Lgot_result>

40008158 <Loop1>:
40008158:	e3510201 	cmp	r1, #268435456	; 0x10000000
4000815c:	31510000 	cmpcc	r1, r0
40008160:	31a01201 	lslcc	r1, r1, #4
40008164:	31a03203 	lslcc	r3, r3, #4
40008168:	3afffffa 	bcc	40008158 <Loop1>

4000816c <Lbignum>:
4000816c:	e3510102 	cmp	r1, #-2147483648	; 0x80000000
40008170:	31510000 	cmpcc	r1, r0
40008174:	31a01081 	lslcc	r1, r1, #1
40008178:	31a03083 	lslcc	r3, r3, #1
4000817c:	3afffffa 	bcc	4000816c <Lbignum>

40008180 <Loop3>:
40008180:	e1500001 	cmp	r0, r1
40008184:	20400001 	subcs	r0, r0, r1
40008188:	21822003 	orrcs	r2, r2, r3
4000818c:	e15000a1 	cmp	r0, r1, lsr #1
40008190:	204000a1 	subcs	r0, r0, r1, lsr #1
40008194:	218220a3 	orrcs	r2, r2, r3, lsr #1
40008198:	e1500121 	cmp	r0, r1, lsr #2
4000819c:	20400121 	subcs	r0, r0, r1, lsr #2
400081a0:	21822123 	orrcs	r2, r2, r3, lsr #2
400081a4:	e15001a1 	cmp	r0, r1, lsr #3
400081a8:	204001a1 	subcs	r0, r0, r1, lsr #3
400081ac:	218221a3 	orrcs	r2, r2, r3, lsr #3
400081b0:	e3500000 	cmp	r0, #0
400081b4:	11b03223 	lsrsne	r3, r3, #4
400081b8:	11a01221 	lsrne	r1, r1, #4
400081bc:	1affffef 	bne	40008180 <Loop3>

400081c0 <Lgot_result>:
400081c0:	e1a00002 	mov	r0, r2
400081c4:	e1a0f00e 	mov	pc, lr

400081c8 <Ldiv0>:
400081c8:	e52de004 	push	{lr}		; (str lr, [sp, #-4]!)
400081cc:	e3a00000 	mov	r0, #0
400081d0:	e8bd8000 	pop	{pc}

400081d4 <__umodsi3>:
400081d4:	e3510000 	cmp	r1, #0
400081d8:	0a000026 	beq	40008278 <Ldiv0>
400081dc:	e3a03001 	mov	r3, #1
400081e0:	e1500001 	cmp	r0, r1
400081e4:	31a0f00e 	movcc	pc, lr

400081e8 <Loop1>:
400081e8:	e3510201 	cmp	r1, #268435456	; 0x10000000
400081ec:	31510000 	cmpcc	r1, r0
400081f0:	31a01201 	lslcc	r1, r1, #4
400081f4:	31a03203 	lslcc	r3, r3, #4
400081f8:	3afffffa 	bcc	400081e8 <Loop1>

400081fc <Lbignum>:
400081fc:	e3510102 	cmp	r1, #-2147483648	; 0x80000000
40008200:	31510000 	cmpcc	r1, r0
40008204:	31a01081 	lslcc	r1, r1, #1
40008208:	31a03083 	lslcc	r3, r3, #1
4000820c:	3afffffa 	bcc	400081fc <Lbignum>

40008210 <Loop3>:
40008210:	e3a02000 	mov	r2, #0
40008214:	e1500001 	cmp	r0, r1
40008218:	20400001 	subcs	r0, r0, r1
4000821c:	e15000a1 	cmp	r0, r1, lsr #1
40008220:	204000a1 	subcs	r0, r0, r1, lsr #1
40008224:	218220e3 	orrcs	r2, r2, r3, ror #1
40008228:	e1500121 	cmp	r0, r1, lsr #2
4000822c:	20400121 	subcs	r0, r0, r1, lsr #2
40008230:	21822163 	orrcs	r2, r2, r3, ror #2
40008234:	e15001a1 	cmp	r0, r1, lsr #3
40008238:	204001a1 	subcs	r0, r0, r1, lsr #3
4000823c:	218221e3 	orrcs	r2, r2, r3, ror #3
40008240:	e1a0c003 	mov	ip, r3
40008244:	e3500000 	cmp	r0, #0
40008248:	11b03223 	lsrsne	r3, r3, #4
4000824c:	11a01221 	lsrne	r1, r1, #4
40008250:	1affffee 	bne	40008210 <Loop3>
40008254:	e212220e 	ands	r2, r2, #-536870912	; 0xe0000000
40008258:	01a0f00e 	moveq	pc, lr
4000825c:	e11201ec 	tst	r2, ip, ror #3
40008260:	108001a1 	addne	r0, r0, r1, lsr #3
40008264:	e112016c 	tst	r2, ip, ror #2
40008268:	10800121 	addne	r0, r0, r1, lsr #2
4000826c:	e11200ec 	tst	r2, ip, ror #1
40008270:	108000a1 	addne	r0, r0, r1, lsr #1
40008274:	e1a0f00e 	mov	pc, lr

40008278 <Ldiv0>:
40008278:	e52de004 	push	{lr}		; (str lr, [sp, #-4]!)
4000827c:	e3a00000 	mov	r0, #0
40008280:	e8bd8000 	pop	{pc}

40008284 <__toupper>:
40008284:	e52db004 	push	{fp}		; (str fp, [sp, #-4]!)
40008288:	e28db000 	add	fp, sp, #0
4000828c:	e24dd004 	sub	sp, sp, #4
40008290:	e1a03000 	mov	r3, r0
40008294:	e54b3004 	strb	r3, [fp, #-4]
40008298:	e55b3004 	ldrb	r3, [fp, #-4]
4000829c:	e59f202c 	ldr	r2, [pc, #44]	; 400082d0 <__toupper+0x4c>
400082a0:	e7d23003 	ldrb	r3, [r2, r3]
400082a4:	e2033002 	and	r3, r3, #2
400082a8:	e3530000 	cmp	r3, #0
400082ac:	0a000002 	beq	400082bc <__toupper+0x38>
400082b0:	e55b3004 	ldrb	r3, [fp, #-4]
400082b4:	e2433020 	sub	r3, r3, #32
400082b8:	e54b3004 	strb	r3, [fp, #-4]
400082bc:	e55b3004 	ldrb	r3, [fp, #-4]
400082c0:	e1a00003 	mov	r0, r3
400082c4:	e28bd000 	add	sp, fp, #0
400082c8:	e8bd0800 	pop	{fp}
400082cc:	e12fff1e 	bx	lr
400082d0:	4000a270 	andmi	sl, r0, r0, ror r2

400082d4 <simple_strtoul>:
400082d4:	e92d4800 	push	{fp, lr}
400082d8:	e28db004 	add	fp, sp, #4
400082dc:	e24dd014 	sub	sp, sp, #20
400082e0:	e50b0010 	str	r0, [fp, #-16]
400082e4:	e50b1014 	str	r1, [fp, #-20]
400082e8:	e50b2018 	str	r2, [fp, #-24]
400082ec:	e3a03000 	mov	r3, #0
400082f0:	e50b3008 	str	r3, [fp, #-8]
400082f4:	e51b3010 	ldr	r3, [fp, #-16]
400082f8:	e5d33000 	ldrb	r3, [r3]
400082fc:	e3530030 	cmp	r3, #48	; 0x30
40008300:	1a000018 	bne	40008368 <simple_strtoul+0x94>
40008304:	e51b3010 	ldr	r3, [fp, #-16]
40008308:	e2833001 	add	r3, r3, #1
4000830c:	e50b3010 	str	r3, [fp, #-16]
40008310:	e51b3010 	ldr	r3, [fp, #-16]
40008314:	e5d33000 	ldrb	r3, [r3]
40008318:	e3530078 	cmp	r3, #120	; 0x78
4000831c:	1a00000c 	bne	40008354 <simple_strtoul+0x80>
40008320:	e51b3010 	ldr	r3, [fp, #-16]
40008324:	e2833001 	add	r3, r3, #1
40008328:	e5d33000 	ldrb	r3, [r3]
4000832c:	e59f2144 	ldr	r2, [pc, #324]	; 40008478 <simple_strtoul+0x1a4>
40008330:	e7d23003 	ldrb	r3, [r2, r3]
40008334:	e2033044 	and	r3, r3, #68	; 0x44
40008338:	e3530000 	cmp	r3, #0
4000833c:	0a000004 	beq	40008354 <simple_strtoul+0x80>
40008340:	e3a03010 	mov	r3, #16
40008344:	e50b3018 	str	r3, [fp, #-24]
40008348:	e51b3010 	ldr	r3, [fp, #-16]
4000834c:	e2833001 	add	r3, r3, #1
40008350:	e50b3010 	str	r3, [fp, #-16]
40008354:	e51b3018 	ldr	r3, [fp, #-24]
40008358:	e3530000 	cmp	r3, #0
4000835c:	1a000001 	bne	40008368 <simple_strtoul+0x94>
40008360:	e3a03008 	mov	r3, #8
40008364:	e50b3018 	str	r3, [fp, #-24]
40008368:	e51b3018 	ldr	r3, [fp, #-24]
4000836c:	e3530000 	cmp	r3, #0
40008370:	1a00000c 	bne	400083a8 <simple_strtoul+0xd4>
40008374:	e3a0300a 	mov	r3, #10
40008378:	e50b3018 	str	r3, [fp, #-24]
4000837c:	ea000009 	b	400083a8 <simple_strtoul+0xd4>
40008380:	e51b3008 	ldr	r3, [fp, #-8]
40008384:	e51b2018 	ldr	r2, [fp, #-24]
40008388:	e0020293 	mul	r2, r3, r2
4000838c:	e51b300c 	ldr	r3, [fp, #-12]
40008390:	e0823003 	add	r3, r2, r3
40008394:	e50b3008 	str	r3, [fp, #-8]
40008398:	e51b3010 	ldr	r3, [fp, #-16]
4000839c:	e2833001 	add	r3, r3, #1
400083a0:	e50b3010 	str	r3, [fp, #-16]
400083a4:	ea000000 	b	400083ac <simple_strtoul+0xd8>
400083a8:	e1a00000 	nop			; (mov r0, r0)
400083ac:	e51b3010 	ldr	r3, [fp, #-16]
400083b0:	e5d33000 	ldrb	r3, [r3]
400083b4:	e59f20bc 	ldr	r2, [pc, #188]	; 40008478 <simple_strtoul+0x1a4>
400083b8:	e7d23003 	ldrb	r3, [r2, r3]
400083bc:	e2033044 	and	r3, r3, #68	; 0x44
400083c0:	e3530000 	cmp	r3, #0
400083c4:	0a000020 	beq	4000844c <simple_strtoul+0x178>
400083c8:	e51b3010 	ldr	r3, [fp, #-16]
400083cc:	e5d33000 	ldrb	r3, [r3]
400083d0:	e59f20a0 	ldr	r2, [pc, #160]	; 40008478 <simple_strtoul+0x1a4>
400083d4:	e7d23003 	ldrb	r3, [r2, r3]
400083d8:	e2033004 	and	r3, r3, #4
400083dc:	e3530000 	cmp	r3, #0
400083e0:	0a000003 	beq	400083f4 <simple_strtoul+0x120>
400083e4:	e51b3010 	ldr	r3, [fp, #-16]
400083e8:	e5d33000 	ldrb	r3, [r3]
400083ec:	e2433030 	sub	r3, r3, #48	; 0x30
400083f0:	ea000010 	b	40008438 <simple_strtoul+0x164>
400083f4:	e51b3010 	ldr	r3, [fp, #-16]
400083f8:	e5d33000 	ldrb	r3, [r3]
400083fc:	e59f2074 	ldr	r2, [pc, #116]	; 40008478 <simple_strtoul+0x1a4>
40008400:	e7d23003 	ldrb	r3, [r2, r3]
40008404:	e2033002 	and	r3, r3, #2
40008408:	e3530000 	cmp	r3, #0
4000840c:	0a000006 	beq	4000842c <simple_strtoul+0x158>
40008410:	e51b3010 	ldr	r3, [fp, #-16]
40008414:	e5d33000 	ldrb	r3, [r3]
40008418:	e1a00003 	mov	r0, r3
4000841c:	ebffff98 	bl	40008284 <__toupper>
40008420:	e1a03000 	mov	r3, r0
40008424:	e2433037 	sub	r3, r3, #55	; 0x37
40008428:	ea000002 	b	40008438 <simple_strtoul+0x164>
4000842c:	e51b3010 	ldr	r3, [fp, #-16]
40008430:	e5d33000 	ldrb	r3, [r3]
40008434:	e2433037 	sub	r3, r3, #55	; 0x37
40008438:	e50b300c 	str	r3, [fp, #-12]
4000843c:	e51b200c 	ldr	r2, [fp, #-12]
40008440:	e51b3018 	ldr	r3, [fp, #-24]
40008444:	e1520003 	cmp	r2, r3
40008448:	3affffcc 	bcc	40008380 <simple_strtoul+0xac>
4000844c:	e51b3014 	ldr	r3, [fp, #-20]
40008450:	e3530000 	cmp	r3, #0
40008454:	0a000002 	beq	40008464 <simple_strtoul+0x190>
40008458:	e51b3014 	ldr	r3, [fp, #-20]
4000845c:	e51b2010 	ldr	r2, [fp, #-16]
40008460:	e5832000 	str	r2, [r3]
40008464:	e51b3008 	ldr	r3, [fp, #-8]
40008468:	e1a00003 	mov	r0, r3
4000846c:	e24bd004 	sub	sp, fp, #4
40008470:	e8bd4800 	pop	{fp, lr}
40008474:	e12fff1e 	bx	lr
40008478:	4000a270 	andmi	sl, r0, r0, ror r2

4000847c <simple_strtol>:
4000847c:	e92d4800 	push	{fp, lr}
40008480:	e28db004 	add	fp, sp, #4
40008484:	e24dd00c 	sub	sp, sp, #12
40008488:	e50b0008 	str	r0, [fp, #-8]
4000848c:	e50b100c 	str	r1, [fp, #-12]
40008490:	e50b2010 	str	r2, [fp, #-16]
40008494:	e51b3008 	ldr	r3, [fp, #-8]
40008498:	e5d33000 	ldrb	r3, [r3]
4000849c:	e353002d 	cmp	r3, #45	; 0x2d
400084a0:	1a000008 	bne	400084c8 <simple_strtol+0x4c>
400084a4:	e51b3008 	ldr	r3, [fp, #-8]
400084a8:	e2833001 	add	r3, r3, #1
400084ac:	e1a00003 	mov	r0, r3
400084b0:	e51b100c 	ldr	r1, [fp, #-12]
400084b4:	e51b2010 	ldr	r2, [fp, #-16]
400084b8:	ebffff85 	bl	400082d4 <simple_strtoul>
400084bc:	e1a03000 	mov	r3, r0
400084c0:	e2633000 	rsb	r3, r3, #0
400084c4:	ea000004 	b	400084dc <simple_strtol+0x60>
400084c8:	e51b0008 	ldr	r0, [fp, #-8]
400084cc:	e51b100c 	ldr	r1, [fp, #-12]
400084d0:	e51b2010 	ldr	r2, [fp, #-16]
400084d4:	ebffff7e 	bl	400082d4 <simple_strtoul>
400084d8:	e1a03000 	mov	r3, r0
400084dc:	e1a00003 	mov	r0, r3
400084e0:	e24bd004 	sub	sp, fp, #4
400084e4:	e8bd4800 	pop	{fp, lr}
400084e8:	e12fff1e 	bx	lr

400084ec <skip_atoi>:
400084ec:	e52db004 	push	{fp}		; (str fp, [sp, #-4]!)
400084f0:	e28db000 	add	fp, sp, #0
400084f4:	e24dd008 	sub	sp, sp, #8
400084f8:	e50b0008 	str	r0, [fp, #-8]
400084fc:	e3a03000 	mov	r3, #0
40008500:	e50b3004 	str	r3, [fp, #-4]
40008504:	ea00000e 	b	40008544 <skip_atoi+0x58>
40008508:	e51b2004 	ldr	r2, [fp, #-4]
4000850c:	e1a03002 	mov	r3, r2
40008510:	e1a03103 	lsl	r3, r3, #2
40008514:	e0833002 	add	r3, r3, r2
40008518:	e1a03083 	lsl	r3, r3, #1
4000851c:	e1a01003 	mov	r1, r3
40008520:	e51b3008 	ldr	r3, [fp, #-8]
40008524:	e5933000 	ldr	r3, [r3]
40008528:	e5d32000 	ldrb	r2, [r3]
4000852c:	e0812002 	add	r2, r1, r2
40008530:	e2422030 	sub	r2, r2, #48	; 0x30
40008534:	e50b2004 	str	r2, [fp, #-4]
40008538:	e2832001 	add	r2, r3, #1
4000853c:	e51b3008 	ldr	r3, [fp, #-8]
40008540:	e5832000 	str	r2, [r3]
40008544:	e51b3008 	ldr	r3, [fp, #-8]
40008548:	e5933000 	ldr	r3, [r3]
4000854c:	e5d33000 	ldrb	r3, [r3]
40008550:	e353002f 	cmp	r3, #47	; 0x2f
40008554:	9a000004 	bls	4000856c <skip_atoi+0x80>
40008558:	e51b3008 	ldr	r3, [fp, #-8]
4000855c:	e5933000 	ldr	r3, [r3]
40008560:	e5d33000 	ldrb	r3, [r3]
40008564:	e3530039 	cmp	r3, #57	; 0x39
40008568:	9affffe6 	bls	40008508 <skip_atoi+0x1c>
4000856c:	e51b3004 	ldr	r3, [fp, #-4]
40008570:	e1a00003 	mov	r0, r3
40008574:	e28bd000 	add	sp, fp, #0
40008578:	e8bd0800 	pop	{fp}
4000857c:	e12fff1e 	bx	lr

40008580 <number>:
40008580:	e92d4800 	push	{fp, lr}
40008584:	e28db004 	add	fp, sp, #4
40008588:	e24dd068 	sub	sp, sp, #104	; 0x68
4000858c:	e50b0060 	str	r0, [fp, #-96]	; 0x60
40008590:	e50b1064 	str	r1, [fp, #-100]	; 0x64
40008594:	e50b2068 	str	r2, [fp, #-104]	; 0x68
40008598:	e50b306c 	str	r3, [fp, #-108]	; 0x6c
4000859c:	e59f346c 	ldr	r3, [pc, #1132]	; 40008a10 <number+0x490>
400085a0:	e50b300c 	str	r3, [fp, #-12]
400085a4:	e59b3008 	ldr	r3, [fp, #8]
400085a8:	e2033040 	and	r3, r3, #64	; 0x40
400085ac:	e3530000 	cmp	r3, #0
400085b0:	0a000001 	beq	400085bc <number+0x3c>
400085b4:	e59f3458 	ldr	r3, [pc, #1112]	; 40008a14 <number+0x494>
400085b8:	e50b300c 	str	r3, [fp, #-12]
400085bc:	e59b3008 	ldr	r3, [fp, #8]
400085c0:	e2033010 	and	r3, r3, #16
400085c4:	e3530000 	cmp	r3, #0
400085c8:	0a000002 	beq	400085d8 <number+0x58>
400085cc:	e59b3008 	ldr	r3, [fp, #8]
400085d0:	e3c33001 	bic	r3, r3, #1
400085d4:	e58b3008 	str	r3, [fp, #8]
400085d8:	e51b3068 	ldr	r3, [fp, #-104]	; 0x68
400085dc:	e3530001 	cmp	r3, #1
400085e0:	9a000002 	bls	400085f0 <number+0x70>
400085e4:	e51b3068 	ldr	r3, [fp, #-104]	; 0x68
400085e8:	e3530024 	cmp	r3, #36	; 0x24
400085ec:	9a000001 	bls	400085f8 <number+0x78>
400085f0:	e3a03000 	mov	r3, #0
400085f4:	ea000101 	b	40008a00 <number+0x480>
400085f8:	e59b3008 	ldr	r3, [fp, #8]
400085fc:	e2033001 	and	r3, r3, #1
40008600:	e20330ff 	and	r3, r3, #255	; 0xff
40008604:	e3530000 	cmp	r3, #0
40008608:	0a000001 	beq	40008614 <number+0x94>
4000860c:	e3a03030 	mov	r3, #48	; 0x30
40008610:	ea000000 	b	40008618 <number+0x98>
40008614:	e3a03020 	mov	r3, #32
40008618:	e54b3011 	strb	r3, [fp, #-17]
4000861c:	e3a03000 	mov	r3, #0
40008620:	e54b3005 	strb	r3, [fp, #-5]
40008624:	e59b3008 	ldr	r3, [fp, #8]
40008628:	e2033002 	and	r3, r3, #2
4000862c:	e3530000 	cmp	r3, #0
40008630:	0a00001e 	beq	400086b0 <number+0x130>
40008634:	e51b3064 	ldr	r3, [fp, #-100]	; 0x64
40008638:	e3530000 	cmp	r3, #0
4000863c:	aa000008 	bge	40008664 <number+0xe4>
40008640:	e3a0302d 	mov	r3, #45	; 0x2d
40008644:	e54b3005 	strb	r3, [fp, #-5]
40008648:	e51b3064 	ldr	r3, [fp, #-100]	; 0x64
4000864c:	e2633000 	rsb	r3, r3, #0
40008650:	e50b3064 	str	r3, [fp, #-100]	; 0x64
40008654:	e51b306c 	ldr	r3, [fp, #-108]	; 0x6c
40008658:	e2433001 	sub	r3, r3, #1
4000865c:	e50b306c 	str	r3, [fp, #-108]	; 0x6c
40008660:	ea000012 	b	400086b0 <number+0x130>
40008664:	e59b3008 	ldr	r3, [fp, #8]
40008668:	e2033004 	and	r3, r3, #4
4000866c:	e3530000 	cmp	r3, #0
40008670:	0a000005 	beq	4000868c <number+0x10c>
40008674:	e3a0302b 	mov	r3, #43	; 0x2b
40008678:	e54b3005 	strb	r3, [fp, #-5]
4000867c:	e51b306c 	ldr	r3, [fp, #-108]	; 0x6c
40008680:	e2433001 	sub	r3, r3, #1
40008684:	e50b306c 	str	r3, [fp, #-108]	; 0x6c
40008688:	ea000008 	b	400086b0 <number+0x130>
4000868c:	e59b3008 	ldr	r3, [fp, #8]
40008690:	e2033008 	and	r3, r3, #8
40008694:	e3530000 	cmp	r3, #0
40008698:	0a000004 	beq	400086b0 <number+0x130>
4000869c:	e3a03020 	mov	r3, #32
400086a0:	e54b3005 	strb	r3, [fp, #-5]
400086a4:	e51b306c 	ldr	r3, [fp, #-108]	; 0x6c
400086a8:	e2433001 	sub	r3, r3, #1
400086ac:	e50b306c 	str	r3, [fp, #-108]	; 0x6c
400086b0:	e59b3008 	ldr	r3, [fp, #8]
400086b4:	e2033020 	and	r3, r3, #32
400086b8:	e3530000 	cmp	r3, #0
400086bc:	0a00000c 	beq	400086f4 <number+0x174>
400086c0:	e51b3068 	ldr	r3, [fp, #-104]	; 0x68
400086c4:	e3530010 	cmp	r3, #16
400086c8:	1a000003 	bne	400086dc <number+0x15c>
400086cc:	e51b306c 	ldr	r3, [fp, #-108]	; 0x6c
400086d0:	e2433002 	sub	r3, r3, #2
400086d4:	e50b306c 	str	r3, [fp, #-108]	; 0x6c
400086d8:	ea000005 	b	400086f4 <number+0x174>
400086dc:	e51b3068 	ldr	r3, [fp, #-104]	; 0x68
400086e0:	e3530008 	cmp	r3, #8
400086e4:	1a000002 	bne	400086f4 <number+0x174>
400086e8:	e51b306c 	ldr	r3, [fp, #-108]	; 0x6c
400086ec:	e2433001 	sub	r3, r3, #1
400086f0:	e50b306c 	str	r3, [fp, #-108]	; 0x6c
400086f4:	e3a03000 	mov	r3, #0
400086f8:	e50b3010 	str	r3, [fp, #-16]
400086fc:	e51b3064 	ldr	r3, [fp, #-100]	; 0x64
40008700:	e3530000 	cmp	r3, #0
40008704:	1a000027 	bne	400087a8 <number+0x228>
40008708:	e3e03057 	mvn	r3, #87	; 0x57
4000870c:	e51b2010 	ldr	r2, [fp, #-16]
40008710:	e24b0004 	sub	r0, fp, #4
40008714:	e0802002 	add	r2, r0, r2
40008718:	e0823003 	add	r3, r2, r3
4000871c:	e3a02030 	mov	r2, #48	; 0x30
40008720:	e5c32000 	strb	r2, [r3]
40008724:	e51b3010 	ldr	r3, [fp, #-16]
40008728:	e2833001 	add	r3, r3, #1
4000872c:	e50b3010 	str	r3, [fp, #-16]
40008730:	ea00001f 	b	400087b4 <number+0x234>
40008734:	e51b2010 	ldr	r2, [fp, #-16]
40008738:	e59b3004 	ldr	r3, [fp, #4]
4000873c:	e1520003 	cmp	r2, r3
40008740:	da000018 	ble	400087a8 <number+0x228>
40008744:	e51b3064 	ldr	r3, [fp, #-100]	; 0x64
40008748:	e1a00003 	mov	r0, r3
4000874c:	e51b1068 	ldr	r1, [fp, #-104]	; 0x68
40008750:	ebfffe9f 	bl	400081d4 <__umodsi3>
40008754:	e1a03000 	mov	r3, r0
40008758:	e50b3018 	str	r3, [fp, #-24]
4000875c:	e51b3064 	ldr	r3, [fp, #-100]	; 0x64
40008760:	e1a00003 	mov	r0, r3
40008764:	e51b1068 	ldr	r1, [fp, #-104]	; 0x68
40008768:	ebfffe74 	bl	40008140 <__udivsi3>
4000876c:	e1a03000 	mov	r3, r0
40008770:	e50b3064 	str	r3, [fp, #-100]	; 0x64
40008774:	e51b3018 	ldr	r3, [fp, #-24]
40008778:	e51b200c 	ldr	r2, [fp, #-12]
4000877c:	e0823003 	add	r3, r2, r3
40008780:	e5d32000 	ldrb	r2, [r3]
40008784:	e3e03057 	mvn	r3, #87	; 0x57
40008788:	e51b1010 	ldr	r1, [fp, #-16]
4000878c:	e24b0004 	sub	r0, fp, #4
40008790:	e0801001 	add	r1, r0, r1
40008794:	e0813003 	add	r3, r1, r3
40008798:	e5c32000 	strb	r2, [r3]
4000879c:	e51b3010 	ldr	r3, [fp, #-16]
400087a0:	e2833001 	add	r3, r3, #1
400087a4:	e50b3010 	str	r3, [fp, #-16]
400087a8:	e51b3064 	ldr	r3, [fp, #-100]	; 0x64
400087ac:	e3530000 	cmp	r3, #0
400087b0:	1affffdf 	bne	40008734 <number+0x1b4>
400087b4:	e51b3010 	ldr	r3, [fp, #-16]
400087b8:	e58b3004 	str	r3, [fp, #4]
400087bc:	e51b206c 	ldr	r2, [fp, #-108]	; 0x6c
400087c0:	e59b3004 	ldr	r3, [fp, #4]
400087c4:	e0633002 	rsb	r3, r3, r2
400087c8:	e50b306c 	str	r3, [fp, #-108]	; 0x6c
400087cc:	e59b3008 	ldr	r3, [fp, #8]
400087d0:	e2033011 	and	r3, r3, #17
400087d4:	e3530000 	cmp	r3, #0
400087d8:	1a000010 	bne	40008820 <number+0x2a0>
400087dc:	ea000005 	b	400087f8 <number+0x278>
400087e0:	e51b3060 	ldr	r3, [fp, #-96]	; 0x60
400087e4:	e3a02020 	mov	r2, #32
400087e8:	e5c32000 	strb	r2, [r3]
400087ec:	e51b3060 	ldr	r3, [fp, #-96]	; 0x60
400087f0:	e2833001 	add	r3, r3, #1
400087f4:	e50b3060 	str	r3, [fp, #-96]	; 0x60
400087f8:	e51b306c 	ldr	r3, [fp, #-108]	; 0x6c
400087fc:	e3530000 	cmp	r3, #0
40008800:	d3a03000 	movle	r3, #0
40008804:	c3a03001 	movgt	r3, #1
40008808:	e20330ff 	and	r3, r3, #255	; 0xff
4000880c:	e51b206c 	ldr	r2, [fp, #-108]	; 0x6c
40008810:	e2422001 	sub	r2, r2, #1
40008814:	e50b206c 	str	r2, [fp, #-108]	; 0x6c
40008818:	e3530000 	cmp	r3, #0
4000881c:	1affffef 	bne	400087e0 <number+0x260>
40008820:	e55b3005 	ldrb	r3, [fp, #-5]
40008824:	e3530000 	cmp	r3, #0
40008828:	0a000005 	beq	40008844 <number+0x2c4>
4000882c:	e51b3060 	ldr	r3, [fp, #-96]	; 0x60
40008830:	e55b2005 	ldrb	r2, [fp, #-5]
40008834:	e5c32000 	strb	r2, [r3]
40008838:	e51b3060 	ldr	r3, [fp, #-96]	; 0x60
4000883c:	e2833001 	add	r3, r3, #1
40008840:	e50b3060 	str	r3, [fp, #-96]	; 0x60
40008844:	e59b3008 	ldr	r3, [fp, #8]
40008848:	e2033020 	and	r3, r3, #32
4000884c:	e3530000 	cmp	r3, #0
40008850:	0a000019 	beq	400088bc <number+0x33c>
40008854:	e51b3068 	ldr	r3, [fp, #-104]	; 0x68
40008858:	e3530008 	cmp	r3, #8
4000885c:	1a000006 	bne	4000887c <number+0x2fc>
40008860:	e51b3060 	ldr	r3, [fp, #-96]	; 0x60
40008864:	e3a02030 	mov	r2, #48	; 0x30
40008868:	e5c32000 	strb	r2, [r3]
4000886c:	e51b3060 	ldr	r3, [fp, #-96]	; 0x60
40008870:	e2833001 	add	r3, r3, #1
40008874:	e50b3060 	str	r3, [fp, #-96]	; 0x60
40008878:	ea00000f 	b	400088bc <number+0x33c>
4000887c:	e51b3068 	ldr	r3, [fp, #-104]	; 0x68
40008880:	e3530010 	cmp	r3, #16
40008884:	1a00000c 	bne	400088bc <number+0x33c>
40008888:	e51b3060 	ldr	r3, [fp, #-96]	; 0x60
4000888c:	e3a02030 	mov	r2, #48	; 0x30
40008890:	e5c32000 	strb	r2, [r3]
40008894:	e51b3060 	ldr	r3, [fp, #-96]	; 0x60
40008898:	e2833001 	add	r3, r3, #1
4000889c:	e50b3060 	str	r3, [fp, #-96]	; 0x60
400088a0:	e51b300c 	ldr	r3, [fp, #-12]
400088a4:	e5d32021 	ldrb	r2, [r3, #33]	; 0x21
400088a8:	e51b3060 	ldr	r3, [fp, #-96]	; 0x60
400088ac:	e5c32000 	strb	r2, [r3]
400088b0:	e51b3060 	ldr	r3, [fp, #-96]	; 0x60
400088b4:	e2833001 	add	r3, r3, #1
400088b8:	e50b3060 	str	r3, [fp, #-96]	; 0x60
400088bc:	e59b3008 	ldr	r3, [fp, #8]
400088c0:	e2033010 	and	r3, r3, #16
400088c4:	e3530000 	cmp	r3, #0
400088c8:	1a000018 	bne	40008930 <number+0x3b0>
400088cc:	ea000005 	b	400088e8 <number+0x368>
400088d0:	e51b3060 	ldr	r3, [fp, #-96]	; 0x60
400088d4:	e55b2011 	ldrb	r2, [fp, #-17]
400088d8:	e5c32000 	strb	r2, [r3]
400088dc:	e51b3060 	ldr	r3, [fp, #-96]	; 0x60
400088e0:	e2833001 	add	r3, r3, #1
400088e4:	e50b3060 	str	r3, [fp, #-96]	; 0x60
400088e8:	e51b306c 	ldr	r3, [fp, #-108]	; 0x6c
400088ec:	e3530000 	cmp	r3, #0
400088f0:	d3a03000 	movle	r3, #0
400088f4:	c3a03001 	movgt	r3, #1
400088f8:	e20330ff 	and	r3, r3, #255	; 0xff
400088fc:	e51b206c 	ldr	r2, [fp, #-108]	; 0x6c
40008900:	e2422001 	sub	r2, r2, #1
40008904:	e50b206c 	str	r2, [fp, #-108]	; 0x6c
40008908:	e3530000 	cmp	r3, #0
4000890c:	1affffef 	bne	400088d0 <number+0x350>
40008910:	ea000006 	b	40008930 <number+0x3b0>
40008914:	e51b3060 	ldr	r3, [fp, #-96]	; 0x60
40008918:	e3a02030 	mov	r2, #48	; 0x30
4000891c:	e5c32000 	strb	r2, [r3]
40008920:	e51b3060 	ldr	r3, [fp, #-96]	; 0x60
40008924:	e2833001 	add	r3, r3, #1
40008928:	e50b3060 	str	r3, [fp, #-96]	; 0x60
4000892c:	ea000000 	b	40008934 <number+0x3b4>
40008930:	e1a00000 	nop			; (mov r0, r0)
40008934:	e59b2004 	ldr	r2, [fp, #4]
40008938:	e51b3010 	ldr	r3, [fp, #-16]
4000893c:	e1520003 	cmp	r2, r3
40008940:	d3a03000 	movle	r3, #0
40008944:	c3a03001 	movgt	r3, #1
40008948:	e20330ff 	and	r3, r3, #255	; 0xff
4000894c:	e59b2004 	ldr	r2, [fp, #4]
40008950:	e2422001 	sub	r2, r2, #1
40008954:	e58b2004 	str	r2, [fp, #4]
40008958:	e3530000 	cmp	r3, #0
4000895c:	1affffec 	bne	40008914 <number+0x394>
40008960:	ea00000a 	b	40008990 <number+0x410>
40008964:	e3e03057 	mvn	r3, #87	; 0x57
40008968:	e51b2010 	ldr	r2, [fp, #-16]
4000896c:	e24b1004 	sub	r1, fp, #4
40008970:	e0812002 	add	r2, r1, r2
40008974:	e0823003 	add	r3, r2, r3
40008978:	e5d32000 	ldrb	r2, [r3]
4000897c:	e51b3060 	ldr	r3, [fp, #-96]	; 0x60
40008980:	e5c32000 	strb	r2, [r3]
40008984:	e51b3060 	ldr	r3, [fp, #-96]	; 0x60
40008988:	e2833001 	add	r3, r3, #1
4000898c:	e50b3060 	str	r3, [fp, #-96]	; 0x60
40008990:	e51b3010 	ldr	r3, [fp, #-16]
40008994:	e3530000 	cmp	r3, #0
40008998:	d3a03000 	movle	r3, #0
4000899c:	c3a03001 	movgt	r3, #1
400089a0:	e20330ff 	and	r3, r3, #255	; 0xff
400089a4:	e51b2010 	ldr	r2, [fp, #-16]
400089a8:	e2422001 	sub	r2, r2, #1
400089ac:	e50b2010 	str	r2, [fp, #-16]
400089b0:	e3530000 	cmp	r3, #0
400089b4:	1affffea 	bne	40008964 <number+0x3e4>
400089b8:	ea000005 	b	400089d4 <number+0x454>
400089bc:	e51b3060 	ldr	r3, [fp, #-96]	; 0x60
400089c0:	e3a02020 	mov	r2, #32
400089c4:	e5c32000 	strb	r2, [r3]
400089c8:	e51b3060 	ldr	r3, [fp, #-96]	; 0x60
400089cc:	e2833001 	add	r3, r3, #1
400089d0:	e50b3060 	str	r3, [fp, #-96]	; 0x60
400089d4:	e51b306c 	ldr	r3, [fp, #-108]	; 0x6c
400089d8:	e3530000 	cmp	r3, #0
400089dc:	d3a03000 	movle	r3, #0
400089e0:	c3a03001 	movgt	r3, #1
400089e4:	e20330ff 	and	r3, r3, #255	; 0xff
400089e8:	e51b206c 	ldr	r2, [fp, #-108]	; 0x6c
400089ec:	e2422001 	sub	r2, r2, #1
400089f0:	e50b206c 	str	r2, [fp, #-108]	; 0x6c
400089f4:	e3530000 	cmp	r3, #0
400089f8:	1affffef 	bne	400089bc <number+0x43c>
400089fc:	e51b3060 	ldr	r3, [fp, #-96]	; 0x60
40008a00:	e1a00003 	mov	r0, r3
40008a04:	e24bd004 	sub	sp, fp, #4
40008a08:	e8bd4800 	pop	{fp, lr}
40008a0c:	e12fff1e 	bx	lr
40008a10:	40009a18 	andmi	r9, r0, r8, lsl sl
40008a14:	40009a40 	andmi	r9, r0, r0, asr #20

40008a18 <strnlen>:
40008a18:	e52db004 	push	{fp}		; (str fp, [sp, #-4]!)
40008a1c:	e28db000 	add	fp, sp, #0
40008a20:	e24dd00c 	sub	sp, sp, #12
40008a24:	e50b0008 	str	r0, [fp, #-8]
40008a28:	e50b100c 	str	r1, [fp, #-12]
40008a2c:	e51b3008 	ldr	r3, [fp, #-8]
40008a30:	e50b3004 	str	r3, [fp, #-4]
40008a34:	ea000002 	b	40008a44 <strnlen+0x2c>
40008a38:	e51b3004 	ldr	r3, [fp, #-4]
40008a3c:	e2833001 	add	r3, r3, #1
40008a40:	e50b3004 	str	r3, [fp, #-4]
40008a44:	e51b300c 	ldr	r3, [fp, #-12]
40008a48:	e3530000 	cmp	r3, #0
40008a4c:	03a03000 	moveq	r3, #0
40008a50:	13a03001 	movne	r3, #1
40008a54:	e20330ff 	and	r3, r3, #255	; 0xff
40008a58:	e51b200c 	ldr	r2, [fp, #-12]
40008a5c:	e2422001 	sub	r2, r2, #1
40008a60:	e50b200c 	str	r2, [fp, #-12]
40008a64:	e3530000 	cmp	r3, #0
40008a68:	0a000003 	beq	40008a7c <strnlen+0x64>
40008a6c:	e51b3004 	ldr	r3, [fp, #-4]
40008a70:	e5d33000 	ldrb	r3, [r3]
40008a74:	e3530000 	cmp	r3, #0
40008a78:	1affffee 	bne	40008a38 <strnlen+0x20>
40008a7c:	e51b2004 	ldr	r2, [fp, #-4]
40008a80:	e51b3008 	ldr	r3, [fp, #-8]
40008a84:	e0633002 	rsb	r3, r3, r2
40008a88:	e1a00003 	mov	r0, r3
40008a8c:	e28bd000 	add	sp, fp, #0
40008a90:	e8bd0800 	pop	{fp}
40008a94:	e12fff1e 	bx	lr

40008a98 <vsprintf>:
40008a98:	e92d4800 	push	{fp, lr}
40008a9c:	e28db004 	add	fp, sp, #4
40008aa0:	e24dd044 	sub	sp, sp, #68	; 0x44
40008aa4:	e50b0038 	str	r0, [fp, #-56]	; 0x38
40008aa8:	e50b103c 	str	r1, [fp, #-60]	; 0x3c
40008aac:	e50b2040 	str	r2, [fp, #-64]	; 0x40
40008ab0:	e51b3038 	ldr	r3, [fp, #-56]	; 0x38
40008ab4:	e50b3014 	str	r3, [fp, #-20]
40008ab8:	ea000235 	b	40009394 <vsprintf+0x8fc>
40008abc:	e51b303c 	ldr	r3, [fp, #-60]	; 0x3c
40008ac0:	e5d33000 	ldrb	r3, [r3]
40008ac4:	e3530025 	cmp	r3, #37	; 0x25
40008ac8:	0a000007 	beq	40008aec <vsprintf+0x54>
40008acc:	e51b303c 	ldr	r3, [fp, #-60]	; 0x3c
40008ad0:	e5d32000 	ldrb	r2, [r3]
40008ad4:	e51b3014 	ldr	r3, [fp, #-20]
40008ad8:	e5c32000 	strb	r2, [r3]
40008adc:	e51b3014 	ldr	r3, [fp, #-20]
40008ae0:	e2833001 	add	r3, r3, #1
40008ae4:	e50b3014 	str	r3, [fp, #-20]
40008ae8:	ea000226 	b	40009388 <vsprintf+0x8f0>
40008aec:	e3a03000 	mov	r3, #0
40008af0:	e50b301c 	str	r3, [fp, #-28]
40008af4:	e51b303c 	ldr	r3, [fp, #-60]	; 0x3c
40008af8:	e2833001 	add	r3, r3, #1
40008afc:	e50b303c 	str	r3, [fp, #-60]	; 0x3c
40008b00:	e51b303c 	ldr	r3, [fp, #-60]	; 0x3c
40008b04:	e5d33000 	ldrb	r3, [r3]
40008b08:	e2433020 	sub	r3, r3, #32
40008b0c:	e3530010 	cmp	r3, #16
40008b10:	979ff103 	ldrls	pc, [pc, r3, lsl #2]
40008b14:	ea000024 	b	40008bac <vsprintf+0x114>
40008b18:	40008b7c 	andmi	r8, r0, ip, ror fp
40008b1c:	40008bac 	andmi	r8, r0, ip, lsr #23
40008b20:	40008bac 	andmi	r8, r0, ip, lsr #23
40008b24:	40008b8c 	andmi	r8, r0, ip, lsl #23
40008b28:	40008bac 	andmi	r8, r0, ip, lsr #23
40008b2c:	40008bac 	andmi	r8, r0, ip, lsr #23
40008b30:	40008bac 	andmi	r8, r0, ip, lsr #23
40008b34:	40008bac 	andmi	r8, r0, ip, lsr #23
40008b38:	40008bac 	andmi	r8, r0, ip, lsr #23
40008b3c:	40008bac 	andmi	r8, r0, ip, lsr #23
40008b40:	40008bac 	andmi	r8, r0, ip, lsr #23
40008b44:	40008b6c 	andmi	r8, r0, ip, ror #22
40008b48:	40008bac 	andmi	r8, r0, ip, lsr #23
40008b4c:	40008b5c 	andmi	r8, r0, ip, asr fp
40008b50:	40008bac 	andmi	r8, r0, ip, lsr #23
40008b54:	40008bac 	andmi	r8, r0, ip, lsr #23
40008b58:	40008b9c 	mulmi	r0, ip, fp
40008b5c:	e51b301c 	ldr	r3, [fp, #-28]
40008b60:	e3833010 	orr	r3, r3, #16
40008b64:	e50b301c 	str	r3, [fp, #-28]
40008b68:	eaffffe1 	b	40008af4 <vsprintf+0x5c>
40008b6c:	e51b301c 	ldr	r3, [fp, #-28]
40008b70:	e3833004 	orr	r3, r3, #4
40008b74:	e50b301c 	str	r3, [fp, #-28]
40008b78:	eaffffdd 	b	40008af4 <vsprintf+0x5c>
40008b7c:	e51b301c 	ldr	r3, [fp, #-28]
40008b80:	e3833008 	orr	r3, r3, #8
40008b84:	e50b301c 	str	r3, [fp, #-28]
40008b88:	eaffffd9 	b	40008af4 <vsprintf+0x5c>
40008b8c:	e51b301c 	ldr	r3, [fp, #-28]
40008b90:	e3833020 	orr	r3, r3, #32
40008b94:	e50b301c 	str	r3, [fp, #-28]
40008b98:	eaffffd5 	b	40008af4 <vsprintf+0x5c>
40008b9c:	e51b301c 	ldr	r3, [fp, #-28]
40008ba0:	e3833001 	orr	r3, r3, #1
40008ba4:	e50b301c 	str	r3, [fp, #-28]
40008ba8:	eaffffd1 	b	40008af4 <vsprintf+0x5c>
40008bac:	e3e03000 	mvn	r3, #0
40008bb0:	e50b3020 	str	r3, [fp, #-32]
40008bb4:	e51b303c 	ldr	r3, [fp, #-60]	; 0x3c
40008bb8:	e5d33000 	ldrb	r3, [r3]
40008bbc:	e353002f 	cmp	r3, #47	; 0x2f
40008bc0:	9a000008 	bls	40008be8 <vsprintf+0x150>
40008bc4:	e51b303c 	ldr	r3, [fp, #-60]	; 0x3c
40008bc8:	e5d33000 	ldrb	r3, [r3]
40008bcc:	e3530039 	cmp	r3, #57	; 0x39
40008bd0:	8a000004 	bhi	40008be8 <vsprintf+0x150>
40008bd4:	e24b303c 	sub	r3, fp, #60	; 0x3c
40008bd8:	e1a00003 	mov	r0, r3
40008bdc:	ebfffe42 	bl	400084ec <skip_atoi>
40008be0:	e50b0020 	str	r0, [fp, #-32]
40008be4:	ea000014 	b	40008c3c <vsprintf+0x1a4>
40008be8:	e51b303c 	ldr	r3, [fp, #-60]	; 0x3c
40008bec:	e5d33000 	ldrb	r3, [r3]
40008bf0:	e353002a 	cmp	r3, #42	; 0x2a
40008bf4:	1a000010 	bne	40008c3c <vsprintf+0x1a4>
40008bf8:	e51b303c 	ldr	r3, [fp, #-60]	; 0x3c
40008bfc:	e2833001 	add	r3, r3, #1
40008c00:	e50b303c 	str	r3, [fp, #-60]	; 0x3c
40008c04:	e51b3040 	ldr	r3, [fp, #-64]	; 0x40
40008c08:	e2832004 	add	r2, r3, #4
40008c0c:	e50b2040 	str	r2, [fp, #-64]	; 0x40
40008c10:	e5933000 	ldr	r3, [r3]
40008c14:	e50b3020 	str	r3, [fp, #-32]
40008c18:	e51b3020 	ldr	r3, [fp, #-32]
40008c1c:	e3530000 	cmp	r3, #0
40008c20:	aa000005 	bge	40008c3c <vsprintf+0x1a4>
40008c24:	e51b3020 	ldr	r3, [fp, #-32]
40008c28:	e2633000 	rsb	r3, r3, #0
40008c2c:	e50b3020 	str	r3, [fp, #-32]
40008c30:	e51b301c 	ldr	r3, [fp, #-28]
40008c34:	e3833010 	orr	r3, r3, #16
40008c38:	e50b301c 	str	r3, [fp, #-28]
40008c3c:	e3e03000 	mvn	r3, #0
40008c40:	e50b3024 	str	r3, [fp, #-36]	; 0x24
40008c44:	e51b303c 	ldr	r3, [fp, #-60]	; 0x3c
40008c48:	e5d33000 	ldrb	r3, [r3]
40008c4c:	e353002e 	cmp	r3, #46	; 0x2e
40008c50:	1a000020 	bne	40008cd8 <vsprintf+0x240>
40008c54:	e51b303c 	ldr	r3, [fp, #-60]	; 0x3c
40008c58:	e2833001 	add	r3, r3, #1
40008c5c:	e50b303c 	str	r3, [fp, #-60]	; 0x3c
40008c60:	e51b303c 	ldr	r3, [fp, #-60]	; 0x3c
40008c64:	e5d33000 	ldrb	r3, [r3]
40008c68:	e353002f 	cmp	r3, #47	; 0x2f
40008c6c:	9a000008 	bls	40008c94 <vsprintf+0x1fc>
40008c70:	e51b303c 	ldr	r3, [fp, #-60]	; 0x3c
40008c74:	e5d33000 	ldrb	r3, [r3]
40008c78:	e3530039 	cmp	r3, #57	; 0x39
40008c7c:	8a000004 	bhi	40008c94 <vsprintf+0x1fc>
40008c80:	e24b303c 	sub	r3, fp, #60	; 0x3c
40008c84:	e1a00003 	mov	r0, r3
40008c88:	ebfffe17 	bl	400084ec <skip_atoi>
40008c8c:	e50b0024 	str	r0, [fp, #-36]	; 0x24
40008c90:	ea00000b 	b	40008cc4 <vsprintf+0x22c>
40008c94:	e51b303c 	ldr	r3, [fp, #-60]	; 0x3c
40008c98:	e5d33000 	ldrb	r3, [r3]
40008c9c:	e353002a 	cmp	r3, #42	; 0x2a
40008ca0:	1a000007 	bne	40008cc4 <vsprintf+0x22c>
40008ca4:	e51b303c 	ldr	r3, [fp, #-60]	; 0x3c
40008ca8:	e2833001 	add	r3, r3, #1
40008cac:	e50b303c 	str	r3, [fp, #-60]	; 0x3c
40008cb0:	e51b3040 	ldr	r3, [fp, #-64]	; 0x40
40008cb4:	e2832004 	add	r2, r3, #4
40008cb8:	e50b2040 	str	r2, [fp, #-64]	; 0x40
40008cbc:	e5933000 	ldr	r3, [r3]
40008cc0:	e50b3024 	str	r3, [fp, #-36]	; 0x24
40008cc4:	e51b3024 	ldr	r3, [fp, #-36]	; 0x24
40008cc8:	e3530000 	cmp	r3, #0
40008ccc:	aa000001 	bge	40008cd8 <vsprintf+0x240>
40008cd0:	e3a03000 	mov	r3, #0
40008cd4:	e50b3024 	str	r3, [fp, #-36]	; 0x24
40008cd8:	e3e03000 	mvn	r3, #0
40008cdc:	e50b3028 	str	r3, [fp, #-40]	; 0x28
40008ce0:	e51b303c 	ldr	r3, [fp, #-60]	; 0x3c
40008ce4:	e5d33000 	ldrb	r3, [r3]
40008ce8:	e3530068 	cmp	r3, #104	; 0x68
40008cec:	0a000017 	beq	40008d50 <vsprintf+0x2b8>
40008cf0:	e51b303c 	ldr	r3, [fp, #-60]	; 0x3c
40008cf4:	e5d33000 	ldrb	r3, [r3]
40008cf8:	e353006c 	cmp	r3, #108	; 0x6c
40008cfc:	0a000013 	beq	40008d50 <vsprintf+0x2b8>
40008d00:	e51b303c 	ldr	r3, [fp, #-60]	; 0x3c
40008d04:	e5d33000 	ldrb	r3, [r3]
40008d08:	e353004c 	cmp	r3, #76	; 0x4c
40008d0c:	0a00000f 	beq	40008d50 <vsprintf+0x2b8>
40008d10:	e51b303c 	ldr	r3, [fp, #-60]	; 0x3c
40008d14:	e5d33000 	ldrb	r3, [r3]
40008d18:	e353005a 	cmp	r3, #90	; 0x5a
40008d1c:	0a00000b 	beq	40008d50 <vsprintf+0x2b8>
40008d20:	e51b303c 	ldr	r3, [fp, #-60]	; 0x3c
40008d24:	e5d33000 	ldrb	r3, [r3]
40008d28:	e353007a 	cmp	r3, #122	; 0x7a
40008d2c:	0a000007 	beq	40008d50 <vsprintf+0x2b8>
40008d30:	e51b303c 	ldr	r3, [fp, #-60]	; 0x3c
40008d34:	e5d33000 	ldrb	r3, [r3]
40008d38:	e3530074 	cmp	r3, #116	; 0x74
40008d3c:	0a000003 	beq	40008d50 <vsprintf+0x2b8>
40008d40:	e51b303c 	ldr	r3, [fp, #-60]	; 0x3c
40008d44:	e5d33000 	ldrb	r3, [r3]
40008d48:	e3530071 	cmp	r3, #113	; 0x71
40008d4c:	1a000012 	bne	40008d9c <vsprintf+0x304>
40008d50:	e51b303c 	ldr	r3, [fp, #-60]	; 0x3c
40008d54:	e5d33000 	ldrb	r3, [r3]
40008d58:	e50b3028 	str	r3, [fp, #-40]	; 0x28
40008d5c:	e51b3028 	ldr	r3, [fp, #-40]	; 0x28
40008d60:	e353006c 	cmp	r3, #108	; 0x6c
40008d64:	1a000009 	bne	40008d90 <vsprintf+0x2f8>
40008d68:	e51b303c 	ldr	r3, [fp, #-60]	; 0x3c
40008d6c:	e2833001 	add	r3, r3, #1
40008d70:	e5d33000 	ldrb	r3, [r3]
40008d74:	e353006c 	cmp	r3, #108	; 0x6c
40008d78:	1a000004 	bne	40008d90 <vsprintf+0x2f8>
40008d7c:	e3a03071 	mov	r3, #113	; 0x71
40008d80:	e50b3028 	str	r3, [fp, #-40]	; 0x28
40008d84:	e51b303c 	ldr	r3, [fp, #-60]	; 0x3c
40008d88:	e2833001 	add	r3, r3, #1
40008d8c:	e50b303c 	str	r3, [fp, #-60]	; 0x3c
40008d90:	e51b303c 	ldr	r3, [fp, #-60]	; 0x3c
40008d94:	e2833001 	add	r3, r3, #1
40008d98:	e50b303c 	str	r3, [fp, #-60]	; 0x3c
40008d9c:	e3a0300a 	mov	r3, #10
40008da0:	e50b3010 	str	r3, [fp, #-16]
40008da4:	e51b303c 	ldr	r3, [fp, #-60]	; 0x3c
40008da8:	e5d33000 	ldrb	r3, [r3]
40008dac:	e2433025 	sub	r3, r3, #37	; 0x25
40008db0:	e3530053 	cmp	r3, #83	; 0x53
40008db4:	979ff103 	ldrls	pc, [pc, r3, lsl #2]
40008db8:	ea00010d 	b	400091f4 <vsprintf+0x75c>
40008dbc:	400091a4 	andmi	r9, r0, r4, lsr #3
40008dc0:	400091f4 	strdmi	r9, [r0], -r4
40008dc4:	400091f4 	strdmi	r9, [r0], -r4
40008dc8:	400091f4 	strdmi	r9, [r0], -r4
40008dcc:	400091f4 	strdmi	r9, [r0], -r4
40008dd0:	400091f4 	strdmi	r9, [r0], -r4
40008dd4:	400091f4 	strdmi	r9, [r0], -r4
40008dd8:	400091f4 	strdmi	r9, [r0], -r4
40008ddc:	400091f4 	strdmi	r9, [r0], -r4
40008de0:	400091f4 	strdmi	r9, [r0], -r4
40008de4:	400091f4 	strdmi	r9, [r0], -r4
40008de8:	400091f4 	strdmi	r9, [r0], -r4
40008dec:	400091f4 	strdmi	r9, [r0], -r4
40008df0:	400091f4 	strdmi	r9, [r0], -r4
40008df4:	400091f4 	strdmi	r9, [r0], -r4
40008df8:	400091f4 	strdmi	r9, [r0], -r4
40008dfc:	400091f4 	strdmi	r9, [r0], -r4
40008e00:	400091f4 	strdmi	r9, [r0], -r4
40008e04:	400091f4 	strdmi	r9, [r0], -r4
40008e08:	400091f4 	strdmi	r9, [r0], -r4
40008e0c:	400091f4 	strdmi	r9, [r0], -r4
40008e10:	400091f4 	strdmi	r9, [r0], -r4
40008e14:	400091f4 	strdmi	r9, [r0], -r4
40008e18:	400091f4 	strdmi	r9, [r0], -r4
40008e1c:	400091f4 	strdmi	r9, [r0], -r4
40008e20:	400091f4 	strdmi	r9, [r0], -r4
40008e24:	400091f4 	strdmi	r9, [r0], -r4
40008e28:	400091f4 	strdmi	r9, [r0], -r4
40008e2c:	400091f4 	strdmi	r9, [r0], -r4
40008e30:	400091f4 	strdmi	r9, [r0], -r4
40008e34:	400091f4 	strdmi	r9, [r0], -r4
40008e38:	400091f4 	strdmi	r9, [r0], -r4
40008e3c:	400091f4 	strdmi	r9, [r0], -r4
40008e40:	400091f4 	strdmi	r9, [r0], -r4
40008e44:	400091f4 	strdmi	r9, [r0], -r4
40008e48:	400091f4 	strdmi	r9, [r0], -r4
40008e4c:	400091f4 	strdmi	r9, [r0], -r4
40008e50:	400091f4 	strdmi	r9, [r0], -r4
40008e54:	400091f4 	strdmi	r9, [r0], -r4
40008e58:	400091f4 	strdmi	r9, [r0], -r4
40008e5c:	400091f4 	strdmi	r9, [r0], -r4
40008e60:	400091f4 	strdmi	r9, [r0], -r4
40008e64:	400091f4 	strdmi	r9, [r0], -r4
40008e68:	400091f4 	strdmi	r9, [r0], -r4
40008e6c:	400091f4 	strdmi	r9, [r0], -r4
40008e70:	400091f4 	strdmi	r9, [r0], -r4
40008e74:	400091f4 	strdmi	r9, [r0], -r4
40008e78:	400091f4 	strdmi	r9, [r0], -r4
40008e7c:	400091f4 	strdmi	r9, [r0], -r4
40008e80:	400091f4 	strdmi	r9, [r0], -r4
40008e84:	400091f4 	strdmi	r9, [r0], -r4
40008e88:	400091cc 	andmi	r9, r0, ip, asr #3
40008e8c:	400091f4 	strdmi	r9, [r0], -r4
40008e90:	400091f4 	strdmi	r9, [r0], -r4
40008e94:	400091f4 	strdmi	r9, [r0], -r4
40008e98:	400091f4 	strdmi	r9, [r0], -r4
40008e9c:	400091f4 	strdmi	r9, [r0], -r4
40008ea0:	400091f4 	strdmi	r9, [r0], -r4
40008ea4:	400091f4 	strdmi	r9, [r0], -r4
40008ea8:	400091f4 	strdmi	r9, [r0], -r4
40008eac:	400091f4 	strdmi	r9, [r0], -r4
40008eb0:	400091f4 	strdmi	r9, [r0], -r4
40008eb4:	40008f0c 	andmi	r8, r0, ip, lsl #30
40008eb8:	400091e4 	andmi	r9, r0, r4, ror #3
40008ebc:	400091f4 	strdmi	r9, [r0], -r4
40008ec0:	400091f4 	strdmi	r9, [r0], -r4
40008ec4:	400091f4 	strdmi	r9, [r0], -r4
40008ec8:	400091f4 	strdmi	r9, [r0], -r4
40008ecc:	400091e4 	andmi	r9, r0, r4, ror #3
40008ed0:	400091f4 	strdmi	r9, [r0], -r4
40008ed4:	400091f4 	strdmi	r9, [r0], -r4
40008ed8:	400091f4 	strdmi	r9, [r0], -r4
40008edc:	400091f4 	strdmi	r9, [r0], -r4
40008ee0:	40009140 	andmi	r9, r0, r0, asr #2
40008ee4:	400091c0 	andmi	r9, r0, r0, asr #3
40008ee8:	400090e4 	andmi	r9, r0, r4, ror #1
40008eec:	400091f4 	strdmi	r9, [r0], -r4
40008ef0:	400091f4 	strdmi	r9, [r0], -r4
40008ef4:	40008fb0 			; <UNDEFINED> instruction: 0x40008fb0
40008ef8:	400091f4 	strdmi	r9, [r0], -r4
40008efc:	4000924c 	andmi	r9, r0, ip, asr #4
40008f00:	400091f4 	strdmi	r9, [r0], -r4
40008f04:	400091f4 	strdmi	r9, [r0], -r4
40008f08:	400091d8 	ldrdmi	r9, [r0], -r8
40008f0c:	e51b301c 	ldr	r3, [fp, #-28]
40008f10:	e2033010 	and	r3, r3, #16
40008f14:	e3530000 	cmp	r3, #0
40008f18:	1a00000c 	bne	40008f50 <vsprintf+0x4b8>
40008f1c:	ea000005 	b	40008f38 <vsprintf+0x4a0>
40008f20:	e51b3014 	ldr	r3, [fp, #-20]
40008f24:	e3a02020 	mov	r2, #32
40008f28:	e5c32000 	strb	r2, [r3]
40008f2c:	e51b3014 	ldr	r3, [fp, #-20]
40008f30:	e2833001 	add	r3, r3, #1
40008f34:	e50b3014 	str	r3, [fp, #-20]
40008f38:	e51b3020 	ldr	r3, [fp, #-32]
40008f3c:	e2433001 	sub	r3, r3, #1
40008f40:	e50b3020 	str	r3, [fp, #-32]
40008f44:	e51b3020 	ldr	r3, [fp, #-32]
40008f48:	e3530000 	cmp	r3, #0
40008f4c:	cafffff3 	bgt	40008f20 <vsprintf+0x488>
40008f50:	e51b3040 	ldr	r3, [fp, #-64]	; 0x40
40008f54:	e2832004 	add	r2, r3, #4
40008f58:	e50b2040 	str	r2, [fp, #-64]	; 0x40
40008f5c:	e5933000 	ldr	r3, [r3]
40008f60:	e20320ff 	and	r2, r3, #255	; 0xff
40008f64:	e51b3014 	ldr	r3, [fp, #-20]
40008f68:	e5c32000 	strb	r2, [r3]
40008f6c:	e51b3014 	ldr	r3, [fp, #-20]
40008f70:	e2833001 	add	r3, r3, #1
40008f74:	e50b3014 	str	r3, [fp, #-20]
40008f78:	ea000005 	b	40008f94 <vsprintf+0x4fc>
40008f7c:	e51b3014 	ldr	r3, [fp, #-20]
40008f80:	e3a02020 	mov	r2, #32
40008f84:	e5c32000 	strb	r2, [r3]
40008f88:	e51b3014 	ldr	r3, [fp, #-20]
40008f8c:	e2833001 	add	r3, r3, #1
40008f90:	e50b3014 	str	r3, [fp, #-20]
40008f94:	e51b3020 	ldr	r3, [fp, #-32]
40008f98:	e2433001 	sub	r3, r3, #1
40008f9c:	e50b3020 	str	r3, [fp, #-32]
40008fa0:	e51b3020 	ldr	r3, [fp, #-32]
40008fa4:	e3530000 	cmp	r3, #0
40008fa8:	cafffff3 	bgt	40008f7c <vsprintf+0x4e4>
40008fac:	ea0000f5 	b	40009388 <vsprintf+0x8f0>
40008fb0:	e51b3040 	ldr	r3, [fp, #-64]	; 0x40
40008fb4:	e2832004 	add	r2, r3, #4
40008fb8:	e50b2040 	str	r2, [fp, #-64]	; 0x40
40008fbc:	e5933000 	ldr	r3, [r3]
40008fc0:	e50b3018 	str	r3, [fp, #-24]
40008fc4:	e51b3018 	ldr	r3, [fp, #-24]
40008fc8:	e3530000 	cmp	r3, #0
40008fcc:	1a000001 	bne	40008fd8 <vsprintf+0x540>
40008fd0:	e59f33f4 	ldr	r3, [pc, #1012]	; 400093cc <vsprintf+0x934>
40008fd4:	e50b3018 	str	r3, [fp, #-24]
40008fd8:	e51b3024 	ldr	r3, [fp, #-36]	; 0x24
40008fdc:	e51b0018 	ldr	r0, [fp, #-24]
40008fe0:	e1a01003 	mov	r1, r3
40008fe4:	ebfffe8b 	bl	40008a18 <strnlen>
40008fe8:	e1a03000 	mov	r3, r0
40008fec:	e50b302c 	str	r3, [fp, #-44]	; 0x2c
40008ff0:	e51b301c 	ldr	r3, [fp, #-28]
40008ff4:	e2033010 	and	r3, r3, #16
40008ff8:	e3530000 	cmp	r3, #0
40008ffc:	1a000011 	bne	40009048 <vsprintf+0x5b0>
40009000:	ea000005 	b	4000901c <vsprintf+0x584>
40009004:	e51b3014 	ldr	r3, [fp, #-20]
40009008:	e3a02020 	mov	r2, #32
4000900c:	e5c32000 	strb	r2, [r3]
40009010:	e51b3014 	ldr	r3, [fp, #-20]
40009014:	e2833001 	add	r3, r3, #1
40009018:	e50b3014 	str	r3, [fp, #-20]
4000901c:	e51b2020 	ldr	r2, [fp, #-32]
40009020:	e51b302c 	ldr	r3, [fp, #-44]	; 0x2c
40009024:	e1520003 	cmp	r2, r3
40009028:	d3a03000 	movle	r3, #0
4000902c:	c3a03001 	movgt	r3, #1
40009030:	e20330ff 	and	r3, r3, #255	; 0xff
40009034:	e51b2020 	ldr	r2, [fp, #-32]
40009038:	e2422001 	sub	r2, r2, #1
4000903c:	e50b2020 	str	r2, [fp, #-32]
40009040:	e3530000 	cmp	r3, #0
40009044:	1affffee 	bne	40009004 <vsprintf+0x56c>
40009048:	e3a03000 	mov	r3, #0
4000904c:	e50b300c 	str	r3, [fp, #-12]
40009050:	ea00000c 	b	40009088 <vsprintf+0x5f0>
40009054:	e51b3018 	ldr	r3, [fp, #-24]
40009058:	e5d32000 	ldrb	r2, [r3]
4000905c:	e51b3014 	ldr	r3, [fp, #-20]
40009060:	e5c32000 	strb	r2, [r3]
40009064:	e51b3014 	ldr	r3, [fp, #-20]
40009068:	e2833001 	add	r3, r3, #1
4000906c:	e50b3014 	str	r3, [fp, #-20]
40009070:	e51b3018 	ldr	r3, [fp, #-24]
40009074:	e2833001 	add	r3, r3, #1
40009078:	e50b3018 	str	r3, [fp, #-24]
4000907c:	e51b300c 	ldr	r3, [fp, #-12]
40009080:	e2833001 	add	r3, r3, #1
40009084:	e50b300c 	str	r3, [fp, #-12]
40009088:	e51b200c 	ldr	r2, [fp, #-12]
4000908c:	e51b302c 	ldr	r3, [fp, #-44]	; 0x2c
40009090:	e1520003 	cmp	r2, r3
40009094:	baffffee 	blt	40009054 <vsprintf+0x5bc>
40009098:	ea000005 	b	400090b4 <vsprintf+0x61c>
4000909c:	e51b3014 	ldr	r3, [fp, #-20]
400090a0:	e3a02020 	mov	r2, #32
400090a4:	e5c32000 	strb	r2, [r3]
400090a8:	e51b3014 	ldr	r3, [fp, #-20]
400090ac:	e2833001 	add	r3, r3, #1
400090b0:	e50b3014 	str	r3, [fp, #-20]
400090b4:	e51b2020 	ldr	r2, [fp, #-32]
400090b8:	e51b302c 	ldr	r3, [fp, #-44]	; 0x2c
400090bc:	e1520003 	cmp	r2, r3
400090c0:	d3a03000 	movle	r3, #0
400090c4:	c3a03001 	movgt	r3, #1
400090c8:	e20330ff 	and	r3, r3, #255	; 0xff
400090cc:	e51b2020 	ldr	r2, [fp, #-32]
400090d0:	e2422001 	sub	r2, r2, #1
400090d4:	e50b2020 	str	r2, [fp, #-32]
400090d8:	e3530000 	cmp	r3, #0
400090dc:	1affffee 	bne	4000909c <vsprintf+0x604>
400090e0:	ea0000a8 	b	40009388 <vsprintf+0x8f0>
400090e4:	e51b3020 	ldr	r3, [fp, #-32]
400090e8:	e3730001 	cmn	r3, #1
400090ec:	1a000004 	bne	40009104 <vsprintf+0x66c>
400090f0:	e3a03008 	mov	r3, #8
400090f4:	e50b3020 	str	r3, [fp, #-32]
400090f8:	e51b301c 	ldr	r3, [fp, #-28]
400090fc:	e3833001 	orr	r3, r3, #1
40009100:	e50b301c 	str	r3, [fp, #-28]
40009104:	e51b3040 	ldr	r3, [fp, #-64]	; 0x40
40009108:	e2832004 	add	r2, r3, #4
4000910c:	e50b2040 	str	r2, [fp, #-64]	; 0x40
40009110:	e5933000 	ldr	r3, [r3]
40009114:	e51b2024 	ldr	r2, [fp, #-36]	; 0x24
40009118:	e58d2000 	str	r2, [sp]
4000911c:	e51b201c 	ldr	r2, [fp, #-28]
40009120:	e58d2004 	str	r2, [sp, #4]
40009124:	e51b0014 	ldr	r0, [fp, #-20]
40009128:	e1a01003 	mov	r1, r3
4000912c:	e3a02010 	mov	r2, #16
40009130:	e51b3020 	ldr	r3, [fp, #-32]
40009134:	ebfffd11 	bl	40008580 <number>
40009138:	e50b0014 	str	r0, [fp, #-20]
4000913c:	ea000091 	b	40009388 <vsprintf+0x8f0>
40009140:	e51b3028 	ldr	r3, [fp, #-40]	; 0x28
40009144:	e353006c 	cmp	r3, #108	; 0x6c
40009148:	1a00000a 	bne	40009178 <vsprintf+0x6e0>
4000914c:	e51b3040 	ldr	r3, [fp, #-64]	; 0x40
40009150:	e2832004 	add	r2, r3, #4
40009154:	e50b2040 	str	r2, [fp, #-64]	; 0x40
40009158:	e5933000 	ldr	r3, [r3]
4000915c:	e50b3030 	str	r3, [fp, #-48]	; 0x30
40009160:	e51b2014 	ldr	r2, [fp, #-20]
40009164:	e51b3038 	ldr	r3, [fp, #-56]	; 0x38
40009168:	e0632002 	rsb	r2, r3, r2
4000916c:	e51b3030 	ldr	r3, [fp, #-48]	; 0x30
40009170:	e5832000 	str	r2, [r3]
40009174:	ea000083 	b	40009388 <vsprintf+0x8f0>
40009178:	e51b3040 	ldr	r3, [fp, #-64]	; 0x40
4000917c:	e2832004 	add	r2, r3, #4
40009180:	e50b2040 	str	r2, [fp, #-64]	; 0x40
40009184:	e5933000 	ldr	r3, [r3]
40009188:	e50b3034 	str	r3, [fp, #-52]	; 0x34
4000918c:	e51b2014 	ldr	r2, [fp, #-20]
40009190:	e51b3038 	ldr	r3, [fp, #-56]	; 0x38
40009194:	e0632002 	rsb	r2, r3, r2
40009198:	e51b3034 	ldr	r3, [fp, #-52]	; 0x34
4000919c:	e5832000 	str	r2, [r3]
400091a0:	ea000078 	b	40009388 <vsprintf+0x8f0>
400091a4:	e51b3014 	ldr	r3, [fp, #-20]
400091a8:	e3a02025 	mov	r2, #37	; 0x25
400091ac:	e5c32000 	strb	r2, [r3]
400091b0:	e51b3014 	ldr	r3, [fp, #-20]
400091b4:	e2833001 	add	r3, r3, #1
400091b8:	e50b3014 	str	r3, [fp, #-20]
400091bc:	ea000071 	b	40009388 <vsprintf+0x8f0>
400091c0:	e3a03008 	mov	r3, #8
400091c4:	e50b3010 	str	r3, [fp, #-16]
400091c8:	ea000020 	b	40009250 <vsprintf+0x7b8>
400091cc:	e51b301c 	ldr	r3, [fp, #-28]
400091d0:	e3833040 	orr	r3, r3, #64	; 0x40
400091d4:	e50b301c 	str	r3, [fp, #-28]
400091d8:	e3a03010 	mov	r3, #16
400091dc:	e50b3010 	str	r3, [fp, #-16]
400091e0:	ea00001a 	b	40009250 <vsprintf+0x7b8>
400091e4:	e51b301c 	ldr	r3, [fp, #-28]
400091e8:	e3833002 	orr	r3, r3, #2
400091ec:	e50b301c 	str	r3, [fp, #-28]
400091f0:	ea000015 	b	4000924c <vsprintf+0x7b4>
400091f4:	e51b3014 	ldr	r3, [fp, #-20]
400091f8:	e3a02025 	mov	r2, #37	; 0x25
400091fc:	e5c32000 	strb	r2, [r3]
40009200:	e51b3014 	ldr	r3, [fp, #-20]
40009204:	e2833001 	add	r3, r3, #1
40009208:	e50b3014 	str	r3, [fp, #-20]
4000920c:	e51b303c 	ldr	r3, [fp, #-60]	; 0x3c
40009210:	e5d33000 	ldrb	r3, [r3]
40009214:	e3530000 	cmp	r3, #0
40009218:	0a000007 	beq	4000923c <vsprintf+0x7a4>
4000921c:	e51b303c 	ldr	r3, [fp, #-60]	; 0x3c
40009220:	e5d32000 	ldrb	r2, [r3]
40009224:	e51b3014 	ldr	r3, [fp, #-20]
40009228:	e5c32000 	strb	r2, [r3]
4000922c:	e51b3014 	ldr	r3, [fp, #-20]
40009230:	e2833001 	add	r3, r3, #1
40009234:	e50b3014 	str	r3, [fp, #-20]
40009238:	ea000052 	b	40009388 <vsprintf+0x8f0>
4000923c:	e51b303c 	ldr	r3, [fp, #-60]	; 0x3c
40009240:	e2433001 	sub	r3, r3, #1
40009244:	e50b303c 	str	r3, [fp, #-60]	; 0x3c
40009248:	ea00004e 	b	40009388 <vsprintf+0x8f0>
4000924c:	e1a00000 	nop			; (mov r0, r0)
40009250:	e51b3028 	ldr	r3, [fp, #-40]	; 0x28
40009254:	e353006c 	cmp	r3, #108	; 0x6c
40009258:	1a000005 	bne	40009274 <vsprintf+0x7dc>
4000925c:	e51b3040 	ldr	r3, [fp, #-64]	; 0x40
40009260:	e2832004 	add	r2, r3, #4
40009264:	e50b2040 	str	r2, [fp, #-64]	; 0x40
40009268:	e5933000 	ldr	r3, [r3]
4000926c:	e50b3008 	str	r3, [fp, #-8]
40009270:	ea000038 	b	40009358 <vsprintf+0x8c0>
40009274:	e51b3028 	ldr	r3, [fp, #-40]	; 0x28
40009278:	e353005a 	cmp	r3, #90	; 0x5a
4000927c:	0a000002 	beq	4000928c <vsprintf+0x7f4>
40009280:	e51b3028 	ldr	r3, [fp, #-40]	; 0x28
40009284:	e353007a 	cmp	r3, #122	; 0x7a
40009288:	1a000005 	bne	400092a4 <vsprintf+0x80c>
4000928c:	e51b3040 	ldr	r3, [fp, #-64]	; 0x40
40009290:	e2832004 	add	r2, r3, #4
40009294:	e50b2040 	str	r2, [fp, #-64]	; 0x40
40009298:	e5933000 	ldr	r3, [r3]
4000929c:	e50b3008 	str	r3, [fp, #-8]
400092a0:	ea00002c 	b	40009358 <vsprintf+0x8c0>
400092a4:	e51b3028 	ldr	r3, [fp, #-40]	; 0x28
400092a8:	e3530074 	cmp	r3, #116	; 0x74
400092ac:	1a000005 	bne	400092c8 <vsprintf+0x830>
400092b0:	e51b3040 	ldr	r3, [fp, #-64]	; 0x40
400092b4:	e2832004 	add	r2, r3, #4
400092b8:	e50b2040 	str	r2, [fp, #-64]	; 0x40
400092bc:	e5933000 	ldr	r3, [r3]
400092c0:	e50b3008 	str	r3, [fp, #-8]
400092c4:	ea000023 	b	40009358 <vsprintf+0x8c0>
400092c8:	e51b3028 	ldr	r3, [fp, #-40]	; 0x28
400092cc:	e3530068 	cmp	r3, #104	; 0x68
400092d0:	1a000011 	bne	4000931c <vsprintf+0x884>
400092d4:	e51b3040 	ldr	r3, [fp, #-64]	; 0x40
400092d8:	e2832004 	add	r2, r3, #4
400092dc:	e50b2040 	str	r2, [fp, #-64]	; 0x40
400092e0:	e5933000 	ldr	r3, [r3]
400092e4:	e1a03803 	lsl	r3, r3, #16
400092e8:	e1a03823 	lsr	r3, r3, #16
400092ec:	e50b3008 	str	r3, [fp, #-8]
400092f0:	e51b301c 	ldr	r3, [fp, #-28]
400092f4:	e2033002 	and	r3, r3, #2
400092f8:	e3530000 	cmp	r3, #0
400092fc:	0a000015 	beq	40009358 <vsprintf+0x8c0>
40009300:	e51b3008 	ldr	r3, [fp, #-8]
40009304:	e1a03803 	lsl	r3, r3, #16
40009308:	e1a03823 	lsr	r3, r3, #16
4000930c:	e1a03803 	lsl	r3, r3, #16
40009310:	e1a03843 	asr	r3, r3, #16
40009314:	e50b3008 	str	r3, [fp, #-8]
40009318:	ea00000e 	b	40009358 <vsprintf+0x8c0>
4000931c:	e51b301c 	ldr	r3, [fp, #-28]
40009320:	e2033002 	and	r3, r3, #2
40009324:	e3530000 	cmp	r3, #0
40009328:	0a000005 	beq	40009344 <vsprintf+0x8ac>
4000932c:	e51b3040 	ldr	r3, [fp, #-64]	; 0x40
40009330:	e2832004 	add	r2, r3, #4
40009334:	e50b2040 	str	r2, [fp, #-64]	; 0x40
40009338:	e5933000 	ldr	r3, [r3]
4000933c:	e50b3008 	str	r3, [fp, #-8]
40009340:	ea000004 	b	40009358 <vsprintf+0x8c0>
40009344:	e51b3040 	ldr	r3, [fp, #-64]	; 0x40
40009348:	e2832004 	add	r2, r3, #4
4000934c:	e50b2040 	str	r2, [fp, #-64]	; 0x40
40009350:	e5933000 	ldr	r3, [r3]
40009354:	e50b3008 	str	r3, [fp, #-8]
40009358:	e51b2008 	ldr	r2, [fp, #-8]
4000935c:	e51b3010 	ldr	r3, [fp, #-16]
40009360:	e51b1024 	ldr	r1, [fp, #-36]	; 0x24
40009364:	e58d1000 	str	r1, [sp]
40009368:	e51b101c 	ldr	r1, [fp, #-28]
4000936c:	e58d1004 	str	r1, [sp, #4]
40009370:	e51b0014 	ldr	r0, [fp, #-20]
40009374:	e1a01002 	mov	r1, r2
40009378:	e1a02003 	mov	r2, r3
4000937c:	e51b3020 	ldr	r3, [fp, #-32]
40009380:	ebfffc7e 	bl	40008580 <number>
40009384:	e50b0014 	str	r0, [fp, #-20]
40009388:	e51b303c 	ldr	r3, [fp, #-60]	; 0x3c
4000938c:	e2833001 	add	r3, r3, #1
40009390:	e50b303c 	str	r3, [fp, #-60]	; 0x3c
40009394:	e51b303c 	ldr	r3, [fp, #-60]	; 0x3c
40009398:	e5d33000 	ldrb	r3, [r3]
4000939c:	e3530000 	cmp	r3, #0
400093a0:	1afffdc5 	bne	40008abc <vsprintf+0x24>
400093a4:	e51b3014 	ldr	r3, [fp, #-20]
400093a8:	e3a02000 	mov	r2, #0
400093ac:	e5c32000 	strb	r2, [r3]
400093b0:	e51b2014 	ldr	r2, [fp, #-20]
400093b4:	e51b3038 	ldr	r3, [fp, #-56]	; 0x38
400093b8:	e0633002 	rsb	r3, r3, r2
400093bc:	e1a00003 	mov	r0, r3
400093c0:	e24bd004 	sub	sp, fp, #4
400093c4:	e8bd4800 	pop	{fp, lr}
400093c8:	e12fff1e 	bx	lr
400093cc:	40009a68 	andmi	r9, r0, r8, ror #20

400093d0 <sprintf>:
400093d0:	e92d000e 	push	{r1, r2, r3}
400093d4:	e92d4800 	push	{fp, lr}
400093d8:	e28db004 	add	fp, sp, #4
400093dc:	e24dd00c 	sub	sp, sp, #12
400093e0:	e50b0010 	str	r0, [fp, #-16]
400093e4:	e28b2008 	add	r2, fp, #8
400093e8:	e24b300c 	sub	r3, fp, #12
400093ec:	e5832000 	str	r2, [r3]
400093f0:	e51b300c 	ldr	r3, [fp, #-12]
400093f4:	e51b0010 	ldr	r0, [fp, #-16]
400093f8:	e59b1004 	ldr	r1, [fp, #4]
400093fc:	e1a02003 	mov	r2, r3
40009400:	ebfffda4 	bl	40008a98 <vsprintf>
40009404:	e50b0008 	str	r0, [fp, #-8]
40009408:	e51b3008 	ldr	r3, [fp, #-8]
4000940c:	e1a00003 	mov	r0, r3
40009410:	e24bd004 	sub	sp, fp, #4
40009414:	e8bd4800 	pop	{fp, lr}
40009418:	e28dd00c 	add	sp, sp, #12
4000941c:	e12fff1e 	bx	lr

40009420 <printf>:
40009420:	e92d000f 	push	{r0, r1, r2, r3}
40009424:	e92d4800 	push	{fp, lr}
40009428:	e28db004 	add	fp, sp, #4
4000942c:	e24dd06c 	sub	sp, sp, #108	; 0x6c
40009430:	e28b2008 	add	r2, fp, #8
40009434:	e24b300c 	sub	r3, fp, #12
40009438:	e5832000 	str	r2, [r3]
4000943c:	e51b300c 	ldr	r3, [fp, #-12]
40009440:	e24b2070 	sub	r2, fp, #112	; 0x70
40009444:	e1a00002 	mov	r0, r2
40009448:	e59b1004 	ldr	r1, [fp, #4]
4000944c:	e1a02003 	mov	r2, r3
40009450:	ebfffd90 	bl	40008a98 <vsprintf>
40009454:	e1a03000 	mov	r3, r0
40009458:	e50b3008 	str	r3, [fp, #-8]
4000945c:	e24b3070 	sub	r3, fp, #112	; 0x70
40009460:	e1a00003 	mov	r0, r3
40009464:	eb000033 	bl	40009538 <puts>
40009468:	e24bd004 	sub	sp, fp, #4
4000946c:	e8bd4800 	pop	{fp, lr}
40009470:	e28dd010 	add	sp, sp, #16
40009474:	e12fff1e 	bx	lr

40009478 <uart_init>:
40009478:	e52db004 	push	{fp}		; (str fp, [sp, #-4]!)
4000947c:	e28db000 	add	fp, sp, #0
40009480:	e59f304c 	ldr	r3, [pc, #76]	; 400094d4 <uart_init+0x5c>
40009484:	e59f2048 	ldr	r2, [pc, #72]	; 400094d4 <uart_init+0x5c>
40009488:	e5922000 	ldr	r2, [r2]
4000948c:	e3c220ff 	bic	r2, r2, #255	; 0xff
40009490:	e3822022 	orr	r2, r2, #34	; 0x22
40009494:	e5832000 	str	r2, [r3]
40009498:	e59f3038 	ldr	r3, [pc, #56]	; 400094d8 <uart_init+0x60>
4000949c:	e3a02003 	mov	r2, #3
400094a0:	e5832000 	str	r2, [r3]
400094a4:	e59f302c 	ldr	r3, [pc, #44]	; 400094d8 <uart_init+0x60>
400094a8:	e3a02005 	mov	r2, #5
400094ac:	e5832004 	str	r2, [r3, #4]
400094b0:	e59f3020 	ldr	r3, [pc, #32]	; 400094d8 <uart_init+0x60>
400094b4:	e3a02035 	mov	r2, #53	; 0x35
400094b8:	e5832028 	str	r2, [r3, #40]	; 0x28
400094bc:	e59f3014 	ldr	r3, [pc, #20]	; 400094d8 <uart_init+0x60>
400094c0:	e3a02005 	mov	r2, #5
400094c4:	e583202c 	str	r2, [r3, #44]	; 0x2c
400094c8:	e28bd000 	add	sp, fp, #0
400094cc:	e8bd0800 	pop	{fp}
400094d0:	e12fff1e 	bx	lr
400094d4:	11400020 	cmpne	r0, r0, lsr #32
400094d8:	13820000 	orrne	r0, r2, #0

400094dc <putc>:
400094dc:	e92d4800 	push	{fp, lr}
400094e0:	e28db004 	add	fp, sp, #4
400094e4:	e24dd004 	sub	sp, sp, #4
400094e8:	e1a03000 	mov	r3, r0
400094ec:	e54b3008 	strb	r3, [fp, #-8]
400094f0:	e1a00000 	nop			; (mov r0, r0)
400094f4:	e59f3038 	ldr	r3, [pc, #56]	; 40009534 <putc+0x58>
400094f8:	e5933010 	ldr	r3, [r3, #16]
400094fc:	e2033002 	and	r3, r3, #2
40009500:	e3530000 	cmp	r3, #0
40009504:	0afffffa 	beq	400094f4 <putc+0x18>
40009508:	e59f3024 	ldr	r3, [pc, #36]	; 40009534 <putc+0x58>
4000950c:	e55b2008 	ldrb	r2, [fp, #-8]
40009510:	e5832020 	str	r2, [r3, #32]
40009514:	e55b3008 	ldrb	r3, [fp, #-8]
40009518:	e353000a 	cmp	r3, #10
4000951c:	1a000001 	bne	40009528 <putc+0x4c>
40009520:	e3a0000d 	mov	r0, #13
40009524:	ebffffec 	bl	400094dc <putc>
40009528:	e24bd004 	sub	sp, fp, #4
4000952c:	e8bd4800 	pop	{fp, lr}
40009530:	e12fff1e 	bx	lr
40009534:	13820000 	orrne	r0, r2, #0

40009538 <puts>:
40009538:	e92d4800 	push	{fp, lr}
4000953c:	e28db004 	add	fp, sp, #4
40009540:	e24dd004 	sub	sp, sp, #4
40009544:	e50b0008 	str	r0, [fp, #-8]
40009548:	ea000006 	b	40009568 <puts+0x30>
4000954c:	e51b3008 	ldr	r3, [fp, #-8]
40009550:	e5d33000 	ldrb	r3, [r3]
40009554:	e51b2008 	ldr	r2, [fp, #-8]
40009558:	e2822001 	add	r2, r2, #1
4000955c:	e50b2008 	str	r2, [fp, #-8]
40009560:	e1a00003 	mov	r0, r3
40009564:	ebffffdc 	bl	400094dc <putc>
40009568:	e51b3008 	ldr	r3, [fp, #-8]
4000956c:	e5d33000 	ldrb	r3, [r3]
40009570:	e3530000 	cmp	r3, #0
40009574:	1afffff4 	bne	4000954c <puts+0x14>
40009578:	e24bd004 	sub	sp, fp, #4
4000957c:	e8bd4800 	pop	{fp, lr}
40009580:	e12fff1e 	bx	lr

40009584 <Dealy_Ms>:
40009584:	e52db004 	push	{fp}		; (str fp, [sp, #-4]!)
40009588:	e28db000 	add	fp, sp, #0
4000958c:	e24dd00c 	sub	sp, sp, #12
40009590:	e50b000c 	str	r0, [fp, #-12]
40009594:	e3a03000 	mov	r3, #0
40009598:	e50b3004 	str	r3, [fp, #-4]
4000959c:	ea00000c 	b	400095d4 <Dealy_Ms+0x50>
400095a0:	e3a03000 	mov	r3, #0
400095a4:	e50b3008 	str	r3, [fp, #-8]
400095a8:	ea000002 	b	400095b8 <Dealy_Ms+0x34>
400095ac:	e51b3008 	ldr	r3, [fp, #-8]
400095b0:	e2833001 	add	r3, r3, #1
400095b4:	e50b3008 	str	r3, [fp, #-8]
400095b8:	e51b2008 	ldr	r2, [fp, #-8]
400095bc:	e59f302c 	ldr	r3, [pc, #44]	; 400095f0 <Dealy_Ms+0x6c>
400095c0:	e1520003 	cmp	r2, r3
400095c4:	9afffff8 	bls	400095ac <Dealy_Ms+0x28>
400095c8:	e51b3004 	ldr	r3, [fp, #-4]
400095cc:	e2833001 	add	r3, r3, #1
400095d0:	e50b3004 	str	r3, [fp, #-4]
400095d4:	e51b2004 	ldr	r2, [fp, #-4]
400095d8:	e51b300c 	ldr	r3, [fp, #-12]
400095dc:	e1520003 	cmp	r2, r3
400095e0:	3affffee 	bcc	400095a0 <Dealy_Ms+0x1c>
400095e4:	e28bd000 	add	sp, fp, #0
400095e8:	e8bd0800 	pop	{fp}
400095ec:	e12fff1e 	bx	lr
400095f0:	000009c3 	andeq	r0, r0, r3, asr #19

400095f4 <UART_INIT>:
400095f4:	e52db004 	push	{fp}		; (str fp, [sp, #-4]!)
400095f8:	e28db000 	add	fp, sp, #0
400095fc:	e59f3080 	ldr	r3, [pc, #128]	; 40009684 <UART_INIT+0x90>
40009600:	e59f207c 	ldr	r2, [pc, #124]	; 40009684 <UART_INIT+0x90>
40009604:	e5922000 	ldr	r2, [r2]
40009608:	e3c220ff 	bic	r2, r2, #255	; 0xff
4000960c:	e3822022 	orr	r2, r2, #34	; 0x22
40009610:	e5832000 	str	r2, [r3]
40009614:	e59f306c 	ldr	r3, [pc, #108]	; 40009688 <UART_INIT+0x94>
40009618:	e59f2068 	ldr	r2, [pc, #104]	; 40009688 <UART_INIT+0x94>
4000961c:	e5922000 	ldr	r2, [r2]
40009620:	e3c2207f 	bic	r2, r2, #127	; 0x7f
40009624:	e3822003 	orr	r2, r2, #3
40009628:	e5832000 	str	r2, [r3]
4000962c:	e59f3054 	ldr	r3, [pc, #84]	; 40009688 <UART_INIT+0x94>
40009630:	e59f2050 	ldr	r2, [pc, #80]	; 40009688 <UART_INIT+0x94>
40009634:	e5922004 	ldr	r2, [r2, #4]
40009638:	e3c2200f 	bic	r2, r2, #15
4000963c:	e3822005 	orr	r2, r2, #5
40009640:	e5832004 	str	r2, [r3, #4]
40009644:	e59f203c 	ldr	r2, [pc, #60]	; 40009688 <UART_INIT+0x94>
40009648:	e59f3038 	ldr	r3, [pc, #56]	; 40009688 <UART_INIT+0x94>
4000964c:	e5933028 	ldr	r3, [r3, #40]	; 0x28
40009650:	e1a03823 	lsr	r3, r3, #16
40009654:	e1a03803 	lsl	r3, r3, #16
40009658:	e3833035 	orr	r3, r3, #53	; 0x35
4000965c:	e5823028 	str	r3, [r2, #40]	; 0x28
40009660:	e59f3020 	ldr	r3, [pc, #32]	; 40009688 <UART_INIT+0x94>
40009664:	e59f201c 	ldr	r2, [pc, #28]	; 40009688 <UART_INIT+0x94>
40009668:	e592202c 	ldr	r2, [r2, #44]	; 0x2c
4000966c:	e3c2200f 	bic	r2, r2, #15
40009670:	e3822005 	orr	r2, r2, #5
40009674:	e583202c 	str	r2, [r3, #44]	; 0x2c
40009678:	e28bd000 	add	sp, fp, #0
4000967c:	e8bd0800 	pop	{fp}
40009680:	e12fff1e 	bx	lr
40009684:	11400020 	cmpne	r0, r0, lsr #32
40009688:	13820000 	orrne	r0, r2, #0

4000968c <UART_SEND_BYTE>:
4000968c:	e92d4800 	push	{fp, lr}
40009690:	e28db004 	add	fp, sp, #4
40009694:	e24dd004 	sub	sp, sp, #4
40009698:	e1a03000 	mov	r3, r0
4000969c:	e54b3008 	strb	r3, [fp, #-8]
400096a0:	e1a00000 	nop			; (mov r0, r0)
400096a4:	e59f3038 	ldr	r3, [pc, #56]	; 400096e4 <UART_SEND_BYTE+0x58>
400096a8:	e5933010 	ldr	r3, [r3, #16]
400096ac:	e2033002 	and	r3, r3, #2
400096b0:	e3530000 	cmp	r3, #0
400096b4:	0afffffa 	beq	400096a4 <UART_SEND_BYTE+0x18>
400096b8:	e59f3024 	ldr	r3, [pc, #36]	; 400096e4 <UART_SEND_BYTE+0x58>
400096bc:	e55b2008 	ldrb	r2, [fp, #-8]
400096c0:	e5832020 	str	r2, [r3, #32]
400096c4:	e55b3008 	ldrb	r3, [fp, #-8]
400096c8:	e353000a 	cmp	r3, #10
400096cc:	1a000001 	bne	400096d8 <UART_SEND_BYTE+0x4c>
400096d0:	e3a0000d 	mov	r0, #13
400096d4:	ebffffec 	bl	4000968c <UART_SEND_BYTE>
400096d8:	e24bd004 	sub	sp, fp, #4
400096dc:	e8bd4800 	pop	{fp, lr}
400096e0:	e12fff1e 	bx	lr
400096e4:	13820000 	orrne	r0, r2, #0

400096e8 <UART_SEND_STR>:
400096e8:	e92d4800 	push	{fp, lr}
400096ec:	e28db004 	add	fp, sp, #4
400096f0:	e24dd004 	sub	sp, sp, #4
400096f4:	e50b0008 	str	r0, [fp, #-8]
400096f8:	ea000006 	b	40009718 <UART_SEND_STR+0x30>
400096fc:	e51b3008 	ldr	r3, [fp, #-8]
40009700:	e5d33000 	ldrb	r3, [r3]
40009704:	e51b2008 	ldr	r2, [fp, #-8]
40009708:	e2822001 	add	r2, r2, #1
4000970c:	e50b2008 	str	r2, [fp, #-8]
40009710:	e1a00003 	mov	r0, r3
40009714:	ebffffdc 	bl	4000968c <UART_SEND_BYTE>
40009718:	e51b3008 	ldr	r3, [fp, #-8]
4000971c:	e5d33000 	ldrb	r3, [r3]
40009720:	e3530000 	cmp	r3, #0
40009724:	1afffff4 	bne	400096fc <UART_SEND_STR+0x14>
40009728:	e24bd004 	sub	sp, fp, #4
4000972c:	e8bd4800 	pop	{fp, lr}
40009730:	e12fff1e 	bx	lr

40009734 <UART_REC_BYTE>:
40009734:	e52db004 	push	{fp}		; (str fp, [sp, #-4]!)
40009738:	e28db000 	add	fp, sp, #0
4000973c:	e24dd004 	sub	sp, sp, #4
40009740:	e1a00000 	nop			; (mov r0, r0)
40009744:	e59f302c 	ldr	r3, [pc, #44]	; 40009778 <UART_REC_BYTE+0x44>
40009748:	e5933010 	ldr	r3, [r3, #16]
4000974c:	e2033001 	and	r3, r3, #1
40009750:	e3530000 	cmp	r3, #0
40009754:	0afffffa 	beq	40009744 <UART_REC_BYTE+0x10>
40009758:	e59f3018 	ldr	r3, [pc, #24]	; 40009778 <UART_REC_BYTE+0x44>
4000975c:	e5933024 	ldr	r3, [r3, #36]	; 0x24
40009760:	e54b3001 	strb	r3, [fp, #-1]
40009764:	e55b3001 	ldrb	r3, [fp, #-1]
40009768:	e1a00003 	mov	r0, r3
4000976c:	e28bd000 	add	sp, fp, #0
40009770:	e8bd0800 	pop	{fp}
40009774:	e12fff1e 	bx	lr
40009778:	13820000 	orrne	r0, r2, #0

4000977c <AD_INIT>:
4000977c:	e52db004 	push	{fp}		; (str fp, [sp, #-4]!)
40009780:	e28db000 	add	fp, sp, #0
40009784:	e59f3084 	ldr	r3, [pc, #132]	; 40009810 <AD_INIT+0x94>
40009788:	e59f2080 	ldr	r2, [pc, #128]	; 40009810 <AD_INIT+0x94>
4000978c:	e5922000 	ldr	r2, [r2]
40009790:	e3c2200f 	bic	r2, r2, #15
40009794:	e3822003 	orr	r2, r2, #3
40009798:	e5832000 	str	r2, [r3]
4000979c:	e59f3070 	ldr	r3, [pc, #112]	; 40009814 <AD_INIT+0x98>
400097a0:	e59f206c 	ldr	r2, [pc, #108]	; 40009814 <AD_INIT+0x98>
400097a4:	e5922000 	ldr	r2, [r2]
400097a8:	e3822801 	orr	r2, r2, #65536	; 0x10000
400097ac:	e5832000 	str	r2, [r3]
400097b0:	e59f305c 	ldr	r3, [pc, #92]	; 40009814 <AD_INIT+0x98>
400097b4:	e59f2058 	ldr	r2, [pc, #88]	; 40009814 <AD_INIT+0x98>
400097b8:	e5922000 	ldr	r2, [r2]
400097bc:	e3822901 	orr	r2, r2, #16384	; 0x4000
400097c0:	e5832000 	str	r2, [r3]
400097c4:	e59f3048 	ldr	r3, [pc, #72]	; 40009814 <AD_INIT+0x98>
400097c8:	e59f2044 	ldr	r2, [pc, #68]	; 40009814 <AD_INIT+0x98>
400097cc:	e5922000 	ldr	r2, [r2]
400097d0:	e3c22dff 	bic	r2, r2, #16320	; 0x3fc0
400097d4:	e3822d13 	orr	r2, r2, #1216	; 0x4c0
400097d8:	e5832000 	str	r2, [r3]
400097dc:	e59f3030 	ldr	r3, [pc, #48]	; 40009814 <AD_INIT+0x98>
400097e0:	e59f202c 	ldr	r2, [pc, #44]	; 40009814 <AD_INIT+0x98>
400097e4:	e5922000 	ldr	r2, [r2]
400097e8:	e3c22004 	bic	r2, r2, #4
400097ec:	e5832000 	str	r2, [r3]
400097f0:	e59f301c 	ldr	r3, [pc, #28]	; 40009814 <AD_INIT+0x98>
400097f4:	e59f2018 	ldr	r2, [pc, #24]	; 40009814 <AD_INIT+0x98>
400097f8:	e5922000 	ldr	r2, [r2]
400097fc:	e3c22002 	bic	r2, r2, #2
40009800:	e5832000 	str	r2, [r3]
40009804:	e28bd000 	add	sp, fp, #0
40009808:	e8bd0800 	pop	{fp}
4000980c:	e12fff1e 	bx	lr
40009810:	126c001c 	rsbne	r0, ip, #28
40009814:	126c0000 	rsbne	r0, ip, #0

40009818 <Get_AD_Value>:
40009818:	e52db004 	push	{fp}		; (str fp, [sp, #-4]!)
4000981c:	e28db000 	add	fp, sp, #0
40009820:	e24dd004 	sub	sp, sp, #4
40009824:	e59f3078 	ldr	r3, [pc, #120]	; 400098a4 <Get_AD_Value+0x8c>
40009828:	e59f2074 	ldr	r2, [pc, #116]	; 400098a4 <Get_AD_Value+0x8c>
4000982c:	e5922000 	ldr	r2, [r2]
40009830:	e3822001 	orr	r2, r2, #1
40009834:	e5832000 	str	r2, [r3]
40009838:	e1a00000 	nop			; (mov r0, r0)
4000983c:	e59f3060 	ldr	r3, [pc, #96]	; 400098a4 <Get_AD_Value+0x8c>
40009840:	e5933000 	ldr	r3, [r3]
40009844:	e2033902 	and	r3, r3, #32768	; 0x8000
40009848:	e3530000 	cmp	r3, #0
4000984c:	0afffffa 	beq	4000983c <Get_AD_Value+0x24>
40009850:	e59f3050 	ldr	r3, [pc, #80]	; 400098a8 <Get_AD_Value+0x90>
40009854:	e5933000 	ldr	r3, [r3]
40009858:	e1a03a03 	lsl	r3, r3, #20
4000985c:	e1a03a23 	lsr	r3, r3, #20
40009860:	e50b3004 	str	r3, [fp, #-4]
40009864:	e51b3004 	ldr	r3, [fp, #-4]
40009868:	ee073a10 	vmov	s14, r3
4000986c:	eef81b47 	vcvt.f64.u32	d17, s14
40009870:	eddf0b09 	vldr	d16, [pc, #36]	; 4000989c <Get_AD_Value+0x84>
40009874:	ee610ba0 	vmul.f64	d16, d17, d16
40009878:	eeb07b60 	vmov.f64	d7, d16
4000987c:	eefc7bc7 	vcvt.u32.f64	s15, d7
40009880:	ee173a90 	vmov	r3, s15
40009884:	e50b3004 	str	r3, [fp, #-4]
40009888:	e51b3004 	ldr	r3, [fp, #-4]
4000988c:	e1a00003 	mov	r0, r3
40009890:	e28bd000 	add	sp, fp, #0
40009894:	e8bd0800 	pop	{fp}
40009898:	e12fff1e 	bx	lr
4000989c:	c28f5c29 	addgt	r5, pc, #10496	; 0x2900
400098a0:	3fdc28f5 	svccc	0x00dc28f5
400098a4:	126c0000 	rsbne	r0, ip, #0
400098a8:	126c000c 	rsbne	r0, ip, #12

400098ac <AD_To_Str>:
400098ac:	e52db004 	push	{fp}		; (str fp, [sp, #-4]!)
400098b0:	e28db000 	add	fp, sp, #0
400098b4:	e24dd004 	sub	sp, sp, #4
400098b8:	e50b0004 	str	r0, [fp, #-4]
400098bc:	e51b2004 	ldr	r2, [fp, #-4]
400098c0:	e59f30f4 	ldr	r3, [pc, #244]	; 400099bc <AD_To_Str+0x110>
400098c4:	e0831392 	umull	r1, r3, r2, r3
400098c8:	e1a03323 	lsr	r3, r3, #6
400098cc:	e20330ff 	and	r3, r3, #255	; 0xff
400098d0:	e2833030 	add	r3, r3, #48	; 0x30
400098d4:	e20320ff 	and	r2, r3, #255	; 0xff
400098d8:	e59f30e0 	ldr	r3, [pc, #224]	; 400099c0 <AD_To_Str+0x114>
400098dc:	e5c3200c 	strb	r2, [r3, #12]
400098e0:	e51b1004 	ldr	r1, [fp, #-4]
400098e4:	e59f30d0 	ldr	r3, [pc, #208]	; 400099bc <AD_To_Str+0x110>
400098e8:	e0832391 	umull	r2, r3, r1, r3
400098ec:	e1a02323 	lsr	r2, r3, #6
400098f0:	e1a03002 	mov	r3, r2
400098f4:	e1a03283 	lsl	r3, r3, #5
400098f8:	e0623003 	rsb	r3, r2, r3
400098fc:	e1a03103 	lsl	r3, r3, #2
40009900:	e0833002 	add	r3, r3, r2
40009904:	e1a03183 	lsl	r3, r3, #3
40009908:	e0632001 	rsb	r2, r3, r1
4000990c:	e59f30b0 	ldr	r3, [pc, #176]	; 400099c4 <AD_To_Str+0x118>
40009910:	e0831392 	umull	r1, r3, r2, r3
40009914:	e1a032a3 	lsr	r3, r3, #5
40009918:	e20330ff 	and	r3, r3, #255	; 0xff
4000991c:	e2833030 	add	r3, r3, #48	; 0x30
40009920:	e20320ff 	and	r2, r3, #255	; 0xff
40009924:	e59f3094 	ldr	r3, [pc, #148]	; 400099c0 <AD_To_Str+0x114>
40009928:	e5c3200d 	strb	r2, [r3, #13]
4000992c:	e51b1004 	ldr	r1, [fp, #-4]
40009930:	e59f308c 	ldr	r3, [pc, #140]	; 400099c4 <AD_To_Str+0x118>
40009934:	e0832391 	umull	r2, r3, r1, r3
40009938:	e1a022a3 	lsr	r2, r3, #5
4000993c:	e1a03002 	mov	r3, r2
40009940:	e1a03103 	lsl	r3, r3, #2
40009944:	e0833002 	add	r3, r3, r2
40009948:	e1a02103 	lsl	r2, r3, #2
4000994c:	e0833002 	add	r3, r3, r2
40009950:	e1a03103 	lsl	r3, r3, #2
40009954:	e0632001 	rsb	r2, r3, r1
40009958:	e59f3068 	ldr	r3, [pc, #104]	; 400099c8 <AD_To_Str+0x11c>
4000995c:	e0831392 	umull	r1, r3, r2, r3
40009960:	e1a031a3 	lsr	r3, r3, #3
40009964:	e20330ff 	and	r3, r3, #255	; 0xff
40009968:	e2833030 	add	r3, r3, #48	; 0x30
4000996c:	e20320ff 	and	r2, r3, #255	; 0xff
40009970:	e59f3048 	ldr	r3, [pc, #72]	; 400099c0 <AD_To_Str+0x114>
40009974:	e5c3200e 	strb	r2, [r3, #14]
40009978:	e51b1004 	ldr	r1, [fp, #-4]
4000997c:	e59f3044 	ldr	r3, [pc, #68]	; 400099c8 <AD_To_Str+0x11c>
40009980:	e0832391 	umull	r2, r3, r1, r3
40009984:	e1a021a3 	lsr	r2, r3, #3
40009988:	e1a03002 	mov	r3, r2
4000998c:	e1a03103 	lsl	r3, r3, #2
40009990:	e0833002 	add	r3, r3, r2
40009994:	e1a03083 	lsl	r3, r3, #1
40009998:	e0632001 	rsb	r2, r3, r1
4000999c:	e20230ff 	and	r3, r2, #255	; 0xff
400099a0:	e2833030 	add	r3, r3, #48	; 0x30
400099a4:	e20320ff 	and	r2, r3, #255	; 0xff
400099a8:	e59f3010 	ldr	r3, [pc, #16]	; 400099c0 <AD_To_Str+0x114>
400099ac:	e5c3200f 	strb	r2, [r3, #15]
400099b0:	e28bd000 	add	sp, fp, #0
400099b4:	e8bd0800 	pop	{fp}
400099b8:	e12fff1e 	bx	lr
400099bc:	10624dd3 	ldrdne	r4, [r2], #-211	; 0xffffff2d	; <UNPREDICTABLE>
400099c0:	4000a370 	andmi	sl, r0, r0, ror r3
400099c4:	51eb851f 	mvnpl	r8, pc, lsl r5
400099c8:	cccccccd 	stclgt	12, cr12, [ip], {205}	; 0xcd

400099cc <main>:
400099cc:	e92d4800 	push	{fp, lr}
400099d0:	e28db004 	add	fp, sp, #4
400099d4:	ebffff06 	bl	400095f4 <UART_INIT>
400099d8:	ebffff67 	bl	4000977c <AD_INIT>
400099dc:	ebffff8d 	bl	40009818 <Get_AD_Value>
400099e0:	e1a02000 	mov	r2, r0
400099e4:	e59f3024 	ldr	r3, [pc, #36]	; 40009a10 <main+0x44>
400099e8:	e5832000 	str	r2, [r3]
400099ec:	e59f301c 	ldr	r3, [pc, #28]	; 40009a10 <main+0x44>
400099f0:	e5933000 	ldr	r3, [r3]
400099f4:	e1a00003 	mov	r0, r3
400099f8:	ebffffab 	bl	400098ac <AD_To_Str>
400099fc:	e59f0010 	ldr	r0, [pc, #16]	; 40009a14 <main+0x48>
40009a00:	ebffff38 	bl	400096e8 <UART_SEND_STR>
40009a04:	e3a00ffa 	mov	r0, #1000	; 0x3e8
40009a08:	ebfffedd 	bl	40009584 <Dealy_Ms>
40009a0c:	eafffff2 	b	400099dc <main+0x10>
40009a10:	4000a384 	andmi	sl, r0, r4, lsl #7
40009a14:	4000a370 	andmi	sl, r0, r0, ror r3

Disassembly of section .rodata:

40009a18 <.rodata>:
40009a18:	33323130 	teqcc	r2, #12
40009a1c:	37363534 			; <UNDEFINED> instruction: 0x37363534
40009a20:	62613938 	rsbvs	r3, r1, #917504	; 0xe0000
40009a24:	66656463 	strbtvs	r6, [r5], -r3, ror #8
40009a28:	6a696867 	bvs	41a63bcc <g_AD_Value+0x1a59848>
40009a2c:	6e6d6c6b 	cdpvs	12, 6, cr6, cr13, cr11, {3}
40009a30:	7271706f 	rsbsvc	r7, r1, #111	; 0x6f
40009a34:	76757473 			; <UNDEFINED> instruction: 0x76757473
40009a38:	7a797877 	bvc	41e67c1c <g_AD_Value+0x1e5d898>
40009a3c:	00000000 	andeq	r0, r0, r0
40009a40:	33323130 	teqcc	r2, #12
40009a44:	37363534 			; <UNDEFINED> instruction: 0x37363534
40009a48:	42413938 	submi	r3, r1, #917504	; 0xe0000
40009a4c:	46454443 	strbmi	r4, [r5], -r3, asr #8
40009a50:	4a494847 	bmi	4125bb74 <g_AD_Value+0x12517f0>
40009a54:	4e4d4c4b 	cdpmi	12, 4, cr4, cr13, cr11, {2}
40009a58:	5251504f 	subspl	r5, r1, #79	; 0x4f
40009a5c:	56555453 			; <UNDEFINED> instruction: 0x56555453
40009a60:	5a595857 	bpl	4165fbc4 <g_AD_Value+0x1655840>
40009a64:	00000000 	andeq	r0, r0, r0
40009a68:	4c554e3c 	mrrcmi	14, 3, r4, r5, cr12
40009a6c:	00003e4c 	andeq	r3, r0, ip, asr #28

Disassembly of section .data:

40009a70 <stack>:
	...

4000a270 <_ctype>:
4000a270:	08080808 	stmdaeq	r8, {r3, fp}
4000a274:	08080808 	stmdaeq	r8, {r3, fp}
4000a278:	28282808 	stmdacs	r8!, {r3, fp, sp}
4000a27c:	08082828 	stmdaeq	r8, {r3, r5, fp, sp}
4000a280:	08080808 	stmdaeq	r8, {r3, fp}
4000a284:	08080808 	stmdaeq	r8, {r3, fp}
4000a288:	08080808 	stmdaeq	r8, {r3, fp}
4000a28c:	08080808 	stmdaeq	r8, {r3, fp}
4000a290:	101010a0 	andsne	r1, r0, r0, lsr #1
4000a294:	10101010 	andsne	r1, r0, r0, lsl r0
4000a298:	10101010 	andsne	r1, r0, r0, lsl r0
4000a29c:	10101010 	andsne	r1, r0, r0, lsl r0
4000a2a0:	04040404 	streq	r0, [r4], #-1028	; 0x404
4000a2a4:	04040404 	streq	r0, [r4], #-1028	; 0x404
4000a2a8:	10100404 	andsne	r0, r0, r4, lsl #8
4000a2ac:	10101010 	andsne	r1, r0, r0, lsl r0
4000a2b0:	41414110 	cmpmi	r1, r0, lsl r1
4000a2b4:	01414141 	cmpeq	r1, r1, asr #2
4000a2b8:	01010101 	tsteq	r1, r1, lsl #2
4000a2bc:	01010101 	tsteq	r1, r1, lsl #2
4000a2c0:	01010101 	tsteq	r1, r1, lsl #2
4000a2c4:	01010101 	tsteq	r1, r1, lsl #2
4000a2c8:	10010101 	andne	r0, r1, r1, lsl #2
4000a2cc:	10101010 	andsne	r1, r0, r0, lsl r0
4000a2d0:	42424210 	submi	r4, r2, #1
4000a2d4:	02424242 	subeq	r4, r2, #536870916	; 0x20000004
4000a2d8:	02020202 	andeq	r0, r2, #536870912	; 0x20000000
4000a2dc:	02020202 	andeq	r0, r2, #536870912	; 0x20000000
4000a2e0:	02020202 	andeq	r0, r2, #536870912	; 0x20000000
4000a2e4:	02020202 	andeq	r0, r2, #536870912	; 0x20000000
4000a2e8:	10020202 	andne	r0, r2, r2, lsl #4
4000a2ec:	08101010 	ldmdaeq	r0, {r4, ip}
	...
4000a310:	101010a0 	andsne	r1, r0, r0, lsr #1
4000a314:	10101010 	andsne	r1, r0, r0, lsl r0
4000a318:	10101010 	andsne	r1, r0, r0, lsl r0
4000a31c:	10101010 	andsne	r1, r0, r0, lsl r0
4000a320:	10101010 	andsne	r1, r0, r0, lsl r0
4000a324:	10101010 	andsne	r1, r0, r0, lsl r0
4000a328:	10101010 	andsne	r1, r0, r0, lsl r0
4000a32c:	10101010 	andsne	r1, r0, r0, lsl r0
4000a330:	01010101 	tsteq	r1, r1, lsl #2
4000a334:	01010101 	tsteq	r1, r1, lsl #2
4000a338:	01010101 	tsteq	r1, r1, lsl #2
4000a33c:	01010101 	tsteq	r1, r1, lsl #2
4000a340:	01010101 	tsteq	r1, r1, lsl #2
4000a344:	10010101 	andne	r0, r1, r1, lsl #2
4000a348:	01010101 	tsteq	r1, r1, lsl #2
4000a34c:	02010101 	andeq	r0, r1, #1073741824	; 0x40000000
4000a350:	02020202 	andeq	r0, r2, #536870912	; 0x20000000
4000a354:	02020202 	andeq	r0, r2, #536870912	; 0x20000000
4000a358:	02020202 	andeq	r0, r2, #536870912	; 0x20000000
4000a35c:	02020202 	andeq	r0, r2, #536870912	; 0x20000000
4000a360:	02020202 	andeq	r0, r2, #536870912	; 0x20000000
4000a364:	10020202 	andne	r0, r2, r2, lsl #4
4000a368:	02020202 	andeq	r0, r2, #536870912	; 0x20000000
4000a36c:	02020202 	andeq	r0, r2, #536870912	; 0x20000000

4000a370 <g_AD_Value_Str>:
4000a370:	76204441 	strtvc	r4, [r0], -r1, asr #8
4000a374:	65756c61 	ldrbvs	r6, [r5, #-3169]!	; 0xc61
4000a378:	20736920 	rsbscs	r6, r3, r0, lsr #18
4000a37c:	30303030 	eorscc	r3, r0, r0, lsr r0
4000a380:	0000766d 	andeq	r7, r0, sp, ror #12

Disassembly of section .bss:

4000a384 <g_AD_Value>:
4000a384:	00000000 	andeq	r0, r0, r0

Disassembly of section .ARM.attributes:

00000000 <.ARM.attributes>:
   0:	00000f41 	andeq	r0, r0, r1, asr #30
   4:	61656100 	cmnvs	r5, r0, lsl #2
   8:	01006962 	tsteq	r0, r2, ror #18
   c:	00000005 	andeq	r0, r0, r5

Disassembly of section .comment:

00000000 <.comment>:
   0:	3a434347 	bcc	10d0d24 <_start-0x3ef372dc>
   4:	4e472820 	cdpmi	8, 4, cr2, cr7, cr0, {1}
   8:	34202955 	strtcc	r2, [r0], #-2389	; 0x955
   c:	322e362e 	eorcc	r3, lr, #48234496	; 0x2e00000
	...

Disassembly of section .debug_line:

00000000 <.debug_line>:
   0:	00000079 	andeq	r0, r0, r9, ror r0
   4:	00240002 	eoreq	r0, r4, r2
   8:	01020000 	mrseq	r0, (UNDEF: 2)
   c:	000d0efb 	strdeq	r0, [sp], -fp
  10:	01010101 	tsteq	r1, r1, lsl #2
  14:	01000000 	mrseq	r0, (UNDEF: 0)
  18:	73010000 	movwvc	r0, #4096	; 0x1000
  1c:	74726174 	ldrbtvc	r6, [r2], #-372	; 0x174
  20:	74730000 	ldrbtvc	r0, [r3]
  24:	2e747261 	cdpcs	2, 7, cr7, cr4, cr1, {3}
  28:	00010053 	andeq	r0, r1, r3, asr r0
  2c:	05000000 	streq	r0, [r0]
  30:	00800002 	addeq	r0, r0, r2
  34:	2f2f1540 	svccs	0x002f1540
  38:	2f2f2f2f 	svccs	0x002f2f2f
  3c:	f20d032f 	vcgt.s8	d0, d13, d31
  40:	2f2f302f 	svccs	0x002f302f
  44:	342f302f 	strtcc	r3, [pc], #-47	; 4c <_start-0x40007fb4>
  48:	2f322f2f 	svccs	0x00322f2f
  4c:	2f2f2f33 	svccs	0x002f2f33
  50:	322f2f2f 	eorcc	r2, pc, #188	; 0xbc
  54:	2f2f2f2f 	svccs	0x002f2f2f
  58:	2f2f2f30 	svccs	0x002f2f30
  5c:	2f2f2f30 	svccs	0x002f2f30
  60:	302f3131 	eorcc	r3, pc, r1, lsr r1	; <UNPREDICTABLE>
  64:	2f302f2f 	svccs	0x00302f2f
  68:	2f2f302f 	svccs	0x002f302f
  6c:	302f2f30 	eorcc	r2, pc, r0, lsr pc	; <UNPREDICTABLE>
  70:	0a03302f 	beq	cc134 <_start-0x3ff3becc>
  74:	2f302f66 	svccs	0x00302f66
  78:	01000c02 	tsteq	r0, r2, lsl #24
  7c:	00006501 	andeq	r6, r0, r1, lsl #10
  80:	2c000200 	sfmcs	f0, 4, [r0], {0}
  84:	02000000 	andeq	r0, r0, #0
  88:	0d0efb01 	vstreq	d15, [lr, #-4]
  8c:	01010100 	mrseq	r0, (UNDEF: 17)
  90:	00000001 	andeq	r0, r0, r1
  94:	01000001 	tsteq	r0, r1
  98:	6d6d6f63 	stclvs	15, cr6, [sp, #-396]!	; 0xfffffe74
  9c:	732f6e6f 	teqvc	pc, #1776	; 0x6f0
  a0:	00006372 	andeq	r6, r0, r2, ror r3
  a4:	6964755f 	stmdbvs	r4!, {r0, r1, r2, r3, r4, r6, r8, sl, ip, sp, lr}^
  a8:	33697376 	cmncc	r9, #-671088639	; 0xd8000001
  ac:	0100532e 	tsteq	r0, lr, lsr #6
  b0:	00000000 	andeq	r0, r0, r0
  b4:	81400205 	cmphi	r0, r5, lsl #4
  b8:	11034000 	mrsne	r4, (UNDEF: 3)
  bc:	2f2f2f01 	svccs	0x002f2f01
  c0:	2f342f2f 	svccs	0x00342f2f
  c4:	322f2f2f 	eorcc	r2, pc, #188	; 0xbc
  c8:	2f2f2f2f 	svccs	0x002f2f2f
  cc:	2f2f2f34 	svccs	0x002f2f34
  d0:	2f2f2f2f 	svccs	0x002f2f2f
  d4:	2f2f2f2f 	svccs	0x002f2f2f
  d8:	2f2f2f2f 	svccs	0x002f2f2f
  dc:	30302f30 	eorscc	r2, r0, r0, lsr pc
  e0:	0002022f 	andeq	r0, r2, pc, lsr #4
  e4:	006c0101 	rsbeq	r0, ip, r1, lsl #2
  e8:	00020000 	andeq	r0, r2, r0
  ec:	0000002c 	andeq	r0, r0, ip, lsr #32
  f0:	0efb0102 	cdpeq	1, 15, cr0, cr11, cr2, {0}
  f4:	0101000d 	tsteq	r1, sp
  f8:	00000101 	andeq	r0, r0, r1, lsl #2
  fc:	00000100 	andeq	r0, r0, r0, lsl #2
 100:	6d6f6301 	stclvs	3, cr6, [pc, #-4]!	; 104 <_start-0x40007efc>
 104:	2f6e6f6d 	svccs	0x006e6f6d
 108:	00637273 	rsbeq	r7, r3, r3, ror r2
 10c:	6d755f00 	ldclvs	15, cr5, [r5]
 110:	6973646f 	ldmdbvs	r3!, {r0, r1, r2, r3, r5, r6, sl, sp, lr}^
 114:	00532e33 	subseq	r2, r3, r3, lsr lr
 118:	00000001 	andeq	r0, r0, r1
 11c:	d4020500 	strle	r0, [r2], #-1280	; 0x500
 120:	03400081 	movteq	r0, #129	; 0x81
 124:	2f2f0112 	svccs	0x002f0112
 128:	2f342f2f 	svccs	0x00342f2f
 12c:	322f2f2f 	eorcc	r2, pc, #188	; 0xbc
 130:	2f2f2f2f 	svccs	0x002f2f2f
 134:	2f2f2f33 	svccs	0x002f2f33
 138:	2f2f2f2f 	svccs	0x002f2f2f
 13c:	2f2f2f2f 	svccs	0x002f2f2f
 140:	2f2f2f2f 	svccs	0x002f2f2f
 144:	2f2f352f 	svccs	0x002f352f
 148:	2f2f2f2f 	svccs	0x002f2f2f
 14c:	30302f2f 	eorscc	r2, r0, pc, lsr #30
 150:	0002022f 	andeq	r0, r2, pc, lsr #4
 154:	02530101 	subseq	r0, r3, #1073741824	; 0x40000000
 158:	00020000 	andeq	r0, r2, r0
 15c:	00000052 	andeq	r0, r0, r2, asr r0
 160:	0efb0102 	cdpeq	1, 15, cr0, cr11, cr2, {0}
 164:	0101000d 	tsteq	r1, sp
 168:	00000101 	andeq	r0, r0, r1, lsl #2
 16c:	00000100 	andeq	r0, r0, r0, lsl #2
 170:	632f2e01 	teqvs	pc, #16
 174:	6f6d6d6f 	svcvs	0x006d6d6f
 178:	6e692f6e 	cdpvs	15, 6, cr2, cr9, cr14, {3}
 17c:	64756c63 	ldrbtvs	r6, [r5], #-3171	; 0xc63
 180:	6f630065 	svcvs	0x00630065
 184:	6e6f6d6d 	cdpvs	13, 6, cr6, cr15, cr13, {3}
 188:	6372732f 	cmnvs	r2, #-1140850688	; 0xbc000000
 18c:	74630000 	strbtvc	r0, [r3]
 190:	2e657079 	mcrcs	0, 3, r7, cr5, cr9, {3}
 194:	00010068 	andeq	r0, r1, r8, rrx
 198:	69727000 	ldmdbvs	r2!, {ip, sp, lr}^
 19c:	2e66746e 	cdpcs	4, 6, cr7, cr6, cr14, {3}
 1a0:	00020063 	andeq	r0, r2, r3, rrx
 1a4:	64747300 	ldrbtvs	r7, [r4], #-768	; 0x300
 1a8:	2e677261 	cdpcs	2, 6, cr7, cr7, cr1, {3}
 1ac:	00010068 	andeq	r0, r1, r8, rrx
 1b0:	05000000 	streq	r0, [r0]
 1b4:	00828402 	addeq	r8, r2, r2, lsl #8
 1b8:	00c40340 	sbceq	r0, r4, r0, asr #6
 1bc:	67bb9f01 	ldrvs	r9, [fp, r1, lsl #30]!
 1c0:	0302042f 	movweq	r0, #9263	; 0x242f
 1c4:	bb9e7fbf 	bllt	fe7a00c8 <g_AD_Value+0xbe795d44>
 1c8:	0067834c 	rsbeq	r8, r7, ip, asr #6
 1cc:	06010402 	streq	r0, [r1], -r2, lsl #8
 1d0:	4bf30682 	blmi	ffcc1be0 <g_AD_Value+0xbfcb785c>
 1d4:	674d6768 	strbvs	r6, [sp, -r8, ror #14]
 1d8:	7fbb304c 	svcvc	0x00bb304c
 1dc:	01040200 	mrseq	r0, R12_usr
 1e0:	02002e06 	andeq	r2, r0, #96	; 0x60
 1e4:	00d60204 	sbcseq	r0, r6, r4, lsl #4
 1e8:	d6010402 	strle	r0, [r1], -r2, lsl #8
 1ec:	02040200 	andeq	r0, r4, #0
 1f0:	00d70682 	sbcseq	r0, r7, r2, lsl #13
 1f4:	06030402 	streq	r0, [r3], -r2, lsl #8
 1f8:	040200d6 	streq	r0, [r2], #-214	; 0xd6
 1fc:	a3650605 	cmnge	r5, #5242880	; 0x500000
 200:	a12f6767 	teqge	pc, r7, ror #14
 204:	210883bb 			; <UNDEFINED> instruction: 0x210883bb
 208:	8224039f 	eorhi	r0, r4, #2080374786	; 0x7c000002
 20c:	002f4c83 	eoreq	r4, pc, r3, lsl #25
 210:	08010402 	stmdaeq	r1, {r1, sl}
 214:	040200c7 	streq	r0, [r2], #-199	; 0xc7
 218:	069e0602 	ldreq	r0, [lr], r2, lsl #12
 21c:	20032fa0 	andcs	r2, r3, r0, lsr #31
 220:	834dd882 	movthi	sp, #55426	; 0xd882
 224:	0067834b 	rsbeq	r8, r7, fp, asr #6
 228:	06010402 	streq	r0, [r1], -r2, lsl #8
 22c:	4b670666 	blmi	19c1bcc <_start-0x3e646434>
 230:	01040200 	mrseq	r0, R12_usr
 234:	02009e06 	andeq	r9, r0, #96	; 0x60
 238:	004a0204 	subeq	r0, sl, r4, lsl #4
 23c:	2e030402 	cdpcs	4, 0, cr0, cr3, cr2, {0}
 240:	03040200 	movweq	r0, #16896	; 0x4200
 244:	02002f06 	andeq	r2, r0, #24
 248:	834b0304 	movthi	r0, #45828	; 0xb304
 24c:	83674b67 	cmnhi	r7, #105472	; 0x19c00
 250:	83834b83 	orrhi	r4, r3, #134144	; 0x20c00
 254:	6783694b 	strvs	r6, [r3, fp, asr #18]
 258:	4b686783 	blmi	1a1a06c <_start-0x3e5edf94>
 25c:	835a0867 	cmphi	sl, #6750208	; 0x670000
 260:	01040200 	mrseq	r0, R12_usr
 264:	69103202 	ldmdbvs	r0, {r1, r9, ip, sp}
 268:	2f83834b 	svccs	0x0083834b
 26c:	01040200 	mrseq	r0, R12_usr
 270:	673e08b9 			; <UNDEFINED> instruction: 0x673e08b9
 274:	d76783bb 			; <UNDEFINED> instruction: 0xd76783bb
 278:	83d9bb67 	bicshi	fp, r9, #105472	; 0x19c00
 27c:	0402002f 	streq	r0, [r2], #-47	; 0x2f
 280:	3e08b901 	cdpcc	9, 0, cr11, cr8, cr1, {0}
 284:	0200d52f 	andeq	sp, r0, #197132288	; 0xbc00000
 288:	2e060104 	adfcss	f0, f6, f4
 28c:	2f5a0806 	svccs	0x005a0806
 290:	01040200 	mrseq	r0, R12_usr
 294:	3e085708 	cdpcc	7, 0, cr5, cr8, cr8, {0}
 298:	0402002f 	streq	r0, [r2], #-47	; 0x2f
 29c:	3e08b901 	cdpcc	9, 0, cr11, cr8, cr1, {0}
 2a0:	00a1bf2f 	adceq	fp, r1, pc, lsr #30
 2a4:	06010402 	streq	r0, [r1], -r2, lsl #8
 2a8:	04020066 	streq	r0, [r2], #-102	; 0x66
 2ac:	06900802 	ldreq	r0, [r0], r2, lsl #16
 2b0:	03846784 	orreq	r6, r4, #34603008	; 0x2100000
 2b4:	8367ba12 	cmnhi	r7, #73728	; 0x12000
 2b8:	674c32d7 			; <UNDEFINED> instruction: 0x674c32d7
 2bc:	83132e02 	tsthi	r3, #32
 2c0:	86838383 	strhi	r8, [r3], r3, lsl #7
 2c4:	0402004b 	streq	r0, [r2], #-75	; 0x4b
 2c8:	06820601 	streq	r0, [r2], r1, lsl #12
 2cc:	68839f83 	stmvs	r3, {r0, r1, r7, r8, r9, sl, fp, ip, pc}
 2d0:	6b67679f 	blvs	19da154 <_start-0x3e62deac>
 2d4:	0067834b 	rsbeq	r8, r7, fp, asr #6
 2d8:	06010402 	streq	r0, [r1], -r2, lsl #8
 2dc:	9f830682 	svcls	0x00830682
 2e0:	67a06883 	strvs	r6, [r0, r3, lsl #17]!
 2e4:	02004b4e 	andeq	r4, r0, #79872	; 0x13800
 2e8:	82060104 	andhi	r0, r6, #1
 2ec:	01040200 	mrseq	r0, R12_usr
 2f0:	0200f306 	andeq	pc, r0, #402653184	; 0x18000000
 2f4:	4b490104 	blmi	124070c <_start-0x3edc78f4>
 2f8:	01040200 	mrseq	r0, R12_usr
 2fc:	02008206 	andeq	r8, r0, #1610612736	; 0x60000000
 300:	83060104 	movwhi	r0, #24836	; 0x6104
 304:	01040200 	mrseq	r0, R12_usr
 308:	00674c49 	rsbeq	r4, r7, r9, asr #24
 30c:	06010402 	streq	r0, [r1], -r2, lsl #8
 310:	4b9f0666 	blmi	fe7c1cb0 <g_AD_Value+0xbe7b792c>
 314:	024c6a68 	subeq	r6, ip, #425984	; 0x68000
 318:	831401b4 	tsthi	r4, #45	; 0x2d
 31c:	0402002f 	streq	r0, [r2], #-47	; 0x2f
 320:	08bcb901 	ldmeq	ip!, {r0, r8, fp, ip, sp, pc}
 324:	02002f3d 	andeq	r2, r0, #244	; 0xf4
 328:	bcb90104 	ldflts	f0, [r9], #16
 32c:	4c679f31 	stclmi	15, cr9, [r7], #-196	; 0xffffff3c
 330:	002f83bc 			; <UNDEFINED> instruction: 0x002f83bc
 334:	b9010402 	stmdblt	r1, {r1, sl}
 338:	02005a08 	andeq	r5, r0, #32768	; 0x8000
 33c:	00670204 	rsbeq	r0, r7, r4, lsl #4
 340:	08020402 	stmdaeq	r2, {r1, sl}
 344:	0402003b 	streq	r0, [r2], #-59	; 0x3b
 348:	06660601 	strbteq	r0, [r6], -r1, lsl #12
 34c:	02002f84 	andeq	r2, r0, #528	; 0x210
 350:	08b90104 	ldmeq	r9!, {r2, r8}
 354:	4b67315a 	blmi	19cc8c4 <_start-0x3e63b73c>
 358:	3f088169 	svccc	0x00088169
 35c:	a39f6732 	orrsge	r6, pc, #13107200	; 0xc80000
 360:	31a09f2b 	lsrcc	r9, fp, #30
 364:	314b32bb 	strhcc	r3, [fp, #-43]	; 0xffffffd5
 368:	68324b68 	ldmdavs	r2!, {r3, r5, r6, r8, r9, fp, lr}
 36c:	d983bb31 	stmible	r3, {r0, r4, r5, r8, r9, fp, ip, sp, pc}
 370:	7803672d 	stmdavc	r3, {r0, r2, r3, r5, r8, r9, sl, sp, lr}
 374:	2e0f032e 	cdpcs	3, 0, cr0, cr15, cr14, {1}
 378:	0200bb67 	andeq	fp, r0, #105472	; 0x19c00
 37c:	66060104 	strvs	r0, [r6], -r4, lsl #2
 380:	67bb6706 	ldrvs	r6, [fp, r6, lsl #14]!
 384:	83d767bb 	bicshi	r6, r7, #49020928	; 0x2ec0000
 388:	9fbc83d7 	svcls	0x00bc83d7
 38c:	087ee203 	ldmdaeq	lr!, {r0, r1, r9, sp, lr, pc}^
 390:	04020074 	streq	r0, [r2], #-116	; 0x74
 394:	06660601 	strbteq	r0, [r6], -r1, lsl #12
 398:	8201a003 	andhi	sl, r1, #3
 39c:	a2a16767 	adcge	r6, r1, #27000832	; 0x19c0000
 3a0:	a12fbc67 	teqge	pc, r7, ror #24
 3a4:	67f46b86 	ldrbvs	r6, [r4, r6, lsl #23]!
 3a8:	01000802 	tsteq	r0, r2, lsl #16
 3ac:	00007901 	andeq	r7, r0, r1, lsl #18
 3b0:	4a000200 	bmi	bb8 <_start-0x40007448>
 3b4:	02000000 	andeq	r0, r0, #0
 3b8:	0d0efb01 	vstreq	d15, [lr, #-4]
 3bc:	01010100 	mrseq	r0, (UNDEF: 17)
 3c0:	00000001 	andeq	r0, r0, r1
 3c4:	01000001 	tsteq	r0, r1
 3c8:	6d6d6f63 	stclvs	15, cr6, [sp, #-396]!	; 0xfffffe74
 3cc:	732f6e6f 	teqvc	pc, #1776	; 0x6f0
 3d0:	2e006372 	mcrcs	3, 0, r6, cr0, cr2, {3}
 3d4:	6d6f632f 	stclvs	3, cr6, [pc, #-188]!	; 320 <_start-0x40007ce0>
 3d8:	2f6e6f6d 	svccs	0x006e6f6d
 3dc:	6c636e69 	stclvs	14, cr6, [r3], #-420	; 0xfffffe5c
 3e0:	00656475 	rsbeq	r6, r5, r5, ror r4
 3e4:	72617500 	rsbvc	r7, r1, #0
 3e8:	00632e74 	rsbeq	r2, r3, r4, ror lr
 3ec:	65000001 	strvs	r0, [r0, #-1]
 3f0:	6f6e7978 	svcvs	0x006e7978
 3f4:	34345f73 	ldrtcc	r5, [r4], #-3955	; 0xf73
 3f8:	682e3231 	stmdavs	lr!, {r0, r4, r5, r9, ip, sp}
 3fc:	00000200 	andeq	r0, r0, r0, lsl #4
 400:	02050000 	andeq	r0, r5, #0
 404:	40009478 	andmi	r9, r0, r8, ror r4
 408:	67bc4d15 			; <UNDEFINED> instruction: 0x67bc4d15
 40c:	a1676768 	cmnge	r7, r8, ror #14
 410:	0402009f 	streq	r0, [r2], #-159	; 0x9f
 414:	062e0601 	strteq	r0, [lr], -r1, lsl #12
 418:	4b67679f 	blmi	19da29c <_start-0x3e62dd64>
 41c:	002f8384 	eoreq	r8, pc, r4, lsl #7
 420:	d5010402 	strle	r0, [r1, #-1026]	; 0x402
 424:	00060284 	andeq	r0, r6, r4, lsl #5
 428:	00cf0101 	sbceq	r0, pc, r1, lsl #2
 42c:	00020000 	andeq	r0, r2, r0
 430:	0000003d 	andeq	r0, r0, sp, lsr r0
 434:	0efb0102 	cdpeq	1, 15, cr0, cr11, cr2, {0}
 438:	0101000d 	tsteq	r1, sp
 43c:	00000101 	andeq	r0, r0, r1, lsl #2
 440:	00000100 	andeq	r0, r0, r0, lsl #2
 444:	632f2e01 	teqvs	pc, #16
 448:	6f6d6d6f 	svcvs	0x006d6d6f
 44c:	6e692f6e 	cdpvs	15, 6, cr2, cr9, cr14, {3}
 450:	64756c63 	ldrbtvs	r6, [r5], #-3171	; 0xc63
 454:	61000065 	tstvs	r0, r5, rrx
 458:	00632e64 	rsbeq	r2, r3, r4, ror #28
 45c:	65000000 	strvs	r0, [r0]
 460:	6f6e7978 	svcvs	0x006e7978
 464:	34345f73 	ldrtcc	r5, [r4], #-3955	; 0xf73
 468:	682e3231 	stmdavs	lr!, {r0, r4, r5, r9, ip, sp}
 46c:	00000100 	andeq	r0, r0, r0, lsl #2
 470:	02050000 	andeq	r0, r5, #0
 474:	40009584 	andmi	r9, r0, r4, lsl #11
 478:	00678518 	rsbeq	r8, r7, r8, lsl r5
 47c:	06020402 	streq	r0, [r2], -r2, lsl #8
 480:	04020066 	streq	r0, [r2], #-102	; 0x66
 484:	81066601 	tsthi	r6, r1, lsl #12
 488:	01040200 	mrseq	r0, R12_usr
 48c:	84066606 	strhi	r6, [r6], #-1542	; 0x606
 490:	bcbc4c85 	ldclt	12, cr4, [ip], #532	; 0x214
 494:	a1bbd7bc 			; <UNDEFINED> instruction: 0xa1bbd7bc
 498:	0402009f 	streq	r0, [r2], #-159	; 0x9f
 49c:	062e0601 	strteq	r0, [lr], -r1, lsl #12
 4a0:	4b6768a0 	blmi	19da728 <_start-0x3e62d8d8>
 4a4:	002f8385 	eoreq	r8, pc, r5, lsl #7
 4a8:	d5010402 	strle	r0, [r1, #-1026]	; 0x402
 4ac:	00696984 	rsbeq	r6, r9, r4, lsl #19
 4b0:	06010402 	streq	r0, [r1], -r2, lsl #8
 4b4:	68a0062e 	stmiavs	r0!, {r1, r2, r3, r5, r9, sl}
 4b8:	bc4ca62f 	mcrrlt	6, 2, sl, ip, cr15
 4bc:	a0bca0a0 	adcsge	sl, ip, r0, lsr #1
 4c0:	a069a19f 	mlsge	r9, pc, r1, sl	; <UNPREDICTABLE>
 4c4:	01040200 	mrseq	r0, R12_usr
 4c8:	a0062e06 	andge	r2, r6, r6, lsl #28
 4cc:	2f2108a0 	svccs	0x002108a0
 4d0:	210883f6 	strdcs	r8, [r8, -r6]
 4d4:	02132602 	andseq	r2, r3, #2097152	; 0x200000
 4d8:	ad081326 	stcge	3, cr1, [r8, #-152]	; 0xffffff68
 4dc:	002f4bd9 	ldrdeq	r4, [pc], -r9	; <UNPREDICTABLE>
 4e0:	32010402 	andcc	r0, r1, #33554432	; 0x2000000
 4e4:	01040200 	mrseq	r0, R12_usr
 4e8:	04020083 	streq	r0, [r2], #-131	; 0x83
 4ec:	02008301 	andeq	r8, r0, #67108864	; 0x4000000
 4f0:	004b0104 	subeq	r0, fp, r4, lsl #2
 4f4:	4b010402 	blmi	41504 <_start-0x3ffc6afc>
 4f8:	01000602 	tsteq	r0, r2, lsl #12
 4fc:	Address 0x000004fc is out of bounds.


Disassembly of section .debug_info:

00000000 <.debug_info>:
   0:	00000047 	andeq	r0, r0, r7, asr #32
   4:	00000002 	andeq	r0, r0, r2
   8:	01040000 	mrseq	r0, (UNDEF: 4)
   c:	00000000 	andeq	r0, r0, r0
  10:	40008000 	andmi	r8, r0, r0
  14:	40008134 	andmi	r8, r0, r4, lsr r1
  18:	72617473 	rsbvc	r7, r1, #1929379840	; 0x73000000
  1c:	74732f74 	ldrbtvc	r2, [r3], #-3956	; 0xf74
  20:	2e747261 	cdpcs	2, 7, cr7, cr4, cr1, {3}
  24:	3a450053 	bcc	1140178 <_start-0x3eec7e88>
  28:	6c63655c 	cfstr64vs	mvdx6, [r3], #-368	; 0xfffffe90
  2c:	65737069 	ldrbvs	r7, [r3, #-105]!	; 0x69
  30:	6f72705f 	svcvs	0x0072705f
  34:	7463656a 	strbtvc	r6, [r3], #-1386	; 0x56a
  38:	44415c73 	strbmi	r5, [r1], #-3187	; 0xc73
  3c:	554e4700 	strbpl	r4, [lr, #-1792]	; 0x700
  40:	20534120 	subscs	r4, r3, r0, lsr #2
  44:	31322e32 	teqcc	r2, r2, lsr lr
  48:	4f800100 	svcmi	0x00800100
  4c:	02000000 	andeq	r0, r0, #0
  50:	00001400 	andeq	r1, r0, r0, lsl #8
  54:	7d010400 	cfstrsvc	mvf0, [r1]
  58:	40000000 	andmi	r0, r0, r0
  5c:	d4400081 	strble	r0, [r0], #-129	; 0x81
  60:	63400081 	movtvs	r0, #129	; 0x81
  64:	6f6d6d6f 	svcvs	0x006d6d6f
  68:	72732f6e 	rsbsvc	r2, r3, #440	; 0x1b8
  6c:	755f2f63 	ldrbvc	r2, [pc, #-3939]	; fffff111 <g_AD_Value+0xbfff4d8d>
  70:	73766964 	cmnvc	r6, #1638400	; 0x190000
  74:	532e3369 	teqpl	lr, #-1543503871	; 0xa4000001
  78:	5c3a4500 	cfldr32pl	mvfx4, [sl]
  7c:	696c6365 	stmdbvs	ip!, {r0, r2, r5, r6, r8, r9, sp, lr}^
  80:	5f657370 	svcpl	0x00657370
  84:	6a6f7270 	bvs	1bdca4c <_start-0x3e42b5b4>
  88:	73746365 	cmnvc	r4, #-1811939327	; 0x94000001
  8c:	0044415c 	subeq	r4, r4, ip, asr r1
  90:	20554e47 	subscs	r4, r5, r7, asr #28
  94:	32205341 	eorcc	r5, r0, #67108865	; 0x4000001
  98:	0031322e 	eorseq	r3, r1, lr, lsr #4
  9c:	004f8001 	subeq	r8, pc, r1
  a0:	00020000 	andeq	r0, r2, r0
  a4:	00000028 	andeq	r0, r0, r8, lsr #32
  a8:	00e60104 	rsceq	r0, r6, r4, lsl #2
  ac:	81d40000 	bicshi	r0, r4, r0
  b0:	82844000 	addhi	r4, r4, #0
  b4:	6f634000 	svcvs	0x00634000
  b8:	6e6f6d6d 	cdpvs	13, 6, cr6, cr15, cr13, {3}
  bc:	6372732f 	cmnvs	r2, #-1140850688	; 0xbc000000
  c0:	6d755f2f 	ldclvs	15, cr5, [r5, #-188]!	; 0xffffff44
  c4:	6973646f 	ldmdbvs	r3!, {r0, r1, r2, r3, r5, r6, sl, sp, lr}^
  c8:	00532e33 	subseq	r2, r3, r3, lsr lr
  cc:	655c3a45 	ldrbvs	r3, [ip, #-2629]	; 0xa45
  d0:	70696c63 	rsbvc	r6, r9, r3, ror #24
  d4:	705f6573 	subsvc	r6, pc, r3, ror r5	; <UNPREDICTABLE>
  d8:	656a6f72 	strbvs	r6, [sl, #-3954]!	; 0xf72
  dc:	5c737463 	cfldrdpl	mvd7, [r3], #-396	; 0xfffffe74
  e0:	47004441 	strmi	r4, [r0, -r1, asr #8]
  e4:	4120554e 	teqmi	r0, lr, asr #10
  e8:	2e322053 	mrccs	0, 1, r2, cr2, cr3, {2}
  ec:	01003132 	tsteq	r0, r2, lsr r1
  f0:	0004be80 	andeq	fp, r4, r0, lsl #29
  f4:	3c000200 	sfmcc	f0, 4, [r0], {0}
  f8:	04000000 	streq	r0, [r0]
  fc:	00006d01 	andeq	r6, r0, r1, lsl #26
 100:	00990100 	addseq	r0, r9, r0, lsl #2
 104:	00d80000 	sbcseq	r0, r8, r0
 108:	82840000 	addhi	r0, r4, #0
 10c:	94784000 	ldrbtls	r4, [r8]
 110:	01564000 	cmpeq	r6, r0
 114:	41020000 	mrsmi	r0, (UNDEF: 2)
 118:	03000000 	movweq	r0, #0
 11c:	00003028 	andeq	r3, r0, r8, lsr #32
 120:	00040300 	andeq	r0, r4, r0, lsl #6
 124:	02000000 	andeq	r0, r0, #0
 128:	00000048 	andeq	r0, r0, r8, asr #32
 12c:	00256603 	eoreq	r6, r5, r3, lsl #12
 130:	37040000 	strcc	r0, [r4, -r0]
 134:	01000000 	mrseq	r0, (UNDEF: 0)
 138:	006a0144 	rsbeq	r0, sl, r4, asr #2
 13c:	82840000 	addhi	r0, r4, #0
 140:	82d44000 	sbcshi	r4, r4, #0
 144:	00004000 	andeq	r4, r0, r0
 148:	006a0000 	rsbeq	r0, sl, r0
 14c:	63050000 	movwvs	r0, #20480	; 0x5000
 150:	6a440100 	bvs	1100558 <_start-0x3ef07aa8>
 154:	02000000 	andeq	r0, r0, #0
 158:	06007891 			; <UNDEFINED> instruction: 0x06007891
 15c:	005a0801 	subseq	r0, sl, r1, lsl #16
 160:	01070000 	mrseq	r0, (UNDEF: 7)
 164:	00000012 	andeq	r0, r0, r2, lsl r0
 168:	d4010702 	strle	r0, [r1], #-1794	; 0x702
 16c:	d4000000 	strle	r0, [r0]
 170:	7c400082 	mcrrvc	0, 8, r0, r0, cr2
 174:	2c400084 	mcrrcs	0, 8, r0, r0, cr4
 178:	d4000000 	strle	r0, [r0]
 17c:	05000000 	streq	r0, [r0]
 180:	02007063 	andeq	r7, r0, #99	; 0x63
 184:	0000db07 	andeq	sp, r0, r7, lsl #22
 188:	6c910200 	lfmvs	f0, 4, [r1], {0}
 18c:	0000d308 	andeq	sp, r0, r8, lsl #6
 190:	ed070200 	sfm	f0, 4, [r7]
 194:	02000000 	andeq	r0, r0, #0
 198:	68086891 	stmdavs	r8, {r0, r4, r7, fp, sp, lr}
 19c:	02000000 	andeq	r0, r0, #0
 1a0:	0000f907 	andeq	pc, r0, r7, lsl #18
 1a4:	64910200 	ldrvs	r0, [r1], #512	; 0x200
 1a8:	0000bd09 	andeq	fp, r0, r9, lsl #26
 1ac:	d4090200 	strle	r0, [r9], #-512	; 0x200
 1b0:	02000000 	andeq	r0, r0, #0
 1b4:	21097491 			; <UNDEFINED> instruction: 0x21097491
 1b8:	02000000 	andeq	r0, r0, #0
 1bc:	0000d409 	andeq	sp, r0, r9, lsl #8
 1c0:	70910200 	addsvc	r0, r1, r0, lsl #4
 1c4:	07040600 	streq	r0, [r4, -r0, lsl #12]
 1c8:	00000079 	andeq	r0, r0, r9, ror r0
 1cc:	00e1040a 	rsceq	r0, r1, sl, lsl #8
 1d0:	e60b0000 	str	r0, [fp], -r0
 1d4:	06000000 	streq	r0, [r0], -r0
 1d8:	00630801 	rsbeq	r0, r3, r1, lsl #16
 1dc:	040a0000 	streq	r0, [sl]
 1e0:	000000f3 	strdeq	r0, [r0], -r3
 1e4:	00e6040a 	rsceq	r0, r6, sl, lsl #8
 1e8:	04060000 	streq	r0, [r6]
 1ec:	00007e07 	andeq	r7, r0, r7, lsl #28
 1f0:	8b010700 	blhi	41df8 <_start-0x3ffc6208>
 1f4:	02000000 	andeq	r0, r0, #0
 1f8:	01470122 	cmpeq	r7, r2, lsr #2
 1fc:	847c0000 	ldrbthi	r0, [ip]
 200:	84ec4000 	strbthi	r4, [ip]
 204:	00584000 	subseq	r4, r8, r0
 208:	01470000 	mrseq	r0, (UNDEF: 71)
 20c:	63050000 	movwvs	r0, #20480	; 0x5000
 210:	22020070 	andcs	r0, r2, #112	; 0x70
 214:	000000db 	ldrdeq	r0, [r0], -fp
 218:	08749102 	ldmdaeq	r4!, {r1, r8, ip, pc}^
 21c:	000000d3 	ldrdeq	r0, [r0], -r3
 220:	00ed2202 	rsceq	r2, sp, r2, lsl #4
 224:	91020000 	mrsls	r0, (UNDEF: 2)
 228:	00680870 	rsbeq	r0, r8, r0, ror r8
 22c:	22020000 	andcs	r0, r2, #0
 230:	000000f9 	strdeq	r0, [r0], -r9
 234:	006c9102 	rsbeq	r9, ip, r2, lsl #2
 238:	21050406 	tstcs	r5, r6, lsl #8
 23c:	04000001 	streq	r0, [r0], #-1
 240:	0000002d 	andeq	r0, r0, sp, lsr #32
 244:	83014a02 	movwhi	r4, #6658	; 0x1a02
 248:	ec000001 	stc	0, cr0, [r0], {1}
 24c:	80400084 	subhi	r0, r0, r4, lsl #1
 250:	84400085 	strbhi	r0, [r0], #-133	; 0x85
 254:	83000000 	movwhi	r0, #0
 258:	05000001 	streq	r0, [r0, #-1]
 25c:	4a020073 	bmi	80430 <_start-0x3ff87bd0>
 260:	0000018a 	andeq	r0, r0, sl, lsl #3
 264:	0c749102 	ldfeqp	f1, [r4], #-8
 268:	4c020069 	stcmi	0, cr0, [r2], {105}	; 0x69
 26c:	00000183 	andeq	r0, r0, r3, lsl #3
 270:	00789102 	rsbseq	r9, r8, r2, lsl #2
 274:	6905040d 	stmdbvs	r5, {r0, r2, r3, sl}
 278:	0a00746e 	beq	1d438 <_start-0x3ffeabc8>
 27c:	0000db04 	andeq	sp, r0, r4, lsl #22
 280:	011a0400 	tsteq	sl, r0, lsl #8
 284:	6f020000 	svcvs	0x00020000
 288:	0000f301 	andeq	pc, r0, r1, lsl #6
 28c:	00858000 	addeq	r8, r5, r0
 290:	008a1840 	addeq	r1, sl, r0, asr #16
 294:	0000b040 	andeq	fp, r0, r0, asr #32
 298:	00026000 	andeq	r6, r2, r0
 29c:	74730500 	ldrbtvc	r0, [r3], #-1280	; 0x500
 2a0:	6f020072 	svcvs	0x00020072
 2a4:	000000f3 	strdeq	r0, [r0], -r3
 2a8:	7f9c9103 	svcvc	0x009c9103
 2ac:	6d756e05 	ldclvs	14, cr6, [r5, #-20]!	; 0xffffffec
 2b0:	476f0200 	strbmi	r0, [pc, -r0, lsl #4]!
 2b4:	03000001 	movweq	r0, #1
 2b8:	087f9891 	ldmdaeq	pc!, {r0, r4, r7, fp, ip, pc}^	; <UNPREDICTABLE>
 2bc:	00000068 	andeq	r0, r0, r8, rrx
 2c0:	00f96f02 	rscseq	r6, r9, r2, lsl #30
 2c4:	91030000 	mrsls	r0, (UNDEF: 3)
 2c8:	35087f94 	strcc	r7, [r8, #-3988]	; 0xf94
 2cc:	02000001 	andeq	r0, r0, #1
 2d0:	0001836f 	andeq	r8, r1, pc, ror #6
 2d4:	90910300 	addsls	r0, r1, r0, lsl #6
 2d8:	0050087f 	subseq	r0, r0, pc, ror r8
 2dc:	6f020000 	svcvs	0x00020000
 2e0:	00000183 	andeq	r0, r0, r3, lsl #3
 2e4:	08009102 	stmdaeq	r0, {r1, r8, ip, pc}
 2e8:	000000f1 	strdeq	r0, [r0], -r1
 2ec:	01836f02 	orreq	r6, r3, r2, lsl #30
 2f0:	91020000 	mrsls	r0, (UNDEF: 2)
 2f4:	00630c04 	rsbeq	r0, r3, r4, lsl #24
 2f8:	00e67202 	rsceq	r7, r6, r2, lsl #4
 2fc:	91020000 	mrsls	r0, (UNDEF: 2)
 300:	012a096b 	teqeq	sl, fp, ror #18
 304:	72020000 	andvc	r0, r2, #0
 308:	000000e6 	andeq	r0, r0, r6, ror #1
 30c:	0c779102 	ldfeqp	f1, [r7], #-8
 310:	00706d74 	rsbseq	r6, r0, r4, ror sp
 314:	02607202 	rsbeq	r7, r0, #536870912	; 0x20000000
 318:	91030000 	mrsls	r0, (UNDEF: 3)
 31c:	f6097fa0 			; <UNDEFINED> instruction: 0xf6097fa0
 320:	02000000 	andeq	r0, r0, #0
 324:	0000db73 	andeq	sp, r0, r3, ror fp
 328:	70910200 	addsvc	r0, r1, r0, lsl #4
 32c:	0200690c 	andeq	r6, r0, #196608	; 0x30000
 330:	00018374 	andeq	r8, r1, r4, ror r3
 334:	6c910200 	lfmvs	f0, 4, [r1], {0}
 338:	0087440e 	addeq	r4, r7, lr, lsl #8
 33c:	00877840 	addeq	r7, r7, r0, asr #16
 340:	012f0940 	teqeq	pc, r0, asr #18
 344:	96020000 	strls	r0, [r2], -r0
 348:	00000183 	andeq	r0, r0, r3, lsl #3
 34c:	00649102 	rsbeq	r9, r4, r2, lsl #2
 350:	00e60f00 	rsceq	r0, r6, r0, lsl #30
 354:	02700000 	rsbseq	r0, r0, #0
 358:	d4100000 	ldrle	r0, [r0]
 35c:	41000000 	mrsmi	r0, (UNDEF: 0)
 360:	cb010700 	blgt	41f68 <_start-0x3ffc6098>
 364:	02000000 	andeq	r0, r0, #0
 368:	00f901b4 	ldrhteq	r0, [r9], #20
 36c:	8a180000 	bhi	600374 <_start-0x3fa07c8c>
 370:	8a984000 	bhi	fe610378 <g_AD_Value+0xbe605ff4>
 374:	00dc4000 	sbcseq	r4, ip, r0
 378:	02b50000 	adcseq	r0, r5, #0
 37c:	73050000 	movwvc	r0, #20480	; 0x5000
 380:	dbb40200 	blle	fed00b88 <g_AD_Value+0xbecf6804>
 384:	02000000 	andeq	r0, r0, #0
 388:	27087491 			; <UNDEFINED> instruction: 0x27087491
 38c:	02000000 	andeq	r0, r0, #0
 390:	0000f9b4 			; <UNDEFINED> instruction: 0x0000f9b4
 394:	70910200 	addsvc	r0, r1, r0, lsl #4
 398:	0063730c 	rsbeq	r7, r3, ip, lsl #6
 39c:	00dbb602 	sbcseq	fp, fp, r2, lsl #12
 3a0:	91020000 	mrsls	r0, (UNDEF: 2)
 3a4:	01070078 	tsteq	r7, r8, ror r0
 3a8:	0000013a 	andeq	r0, r0, sl, lsr r1
 3ac:	8301bc02 	movwhi	fp, #7170	; 0x1c02
 3b0:	98000001 	stmdals	r0, {r0}
 3b4:	d040008a 	suble	r0, r0, sl, lsl #1
 3b8:	08400093 	stmdaeq	r0, {r0, r1, r4, r7}^
 3bc:	c5000001 	strgt	r0, [r0, #-1]
 3c0:	05000003 	streq	r0, [r0, #-3]
 3c4:	00667562 	rsbeq	r7, r6, r2, ror #10
 3c8:	00f3bc02 	rscseq	fp, r3, r2, lsl #24
 3cc:	91020000 	mrsls	r0, (UNDEF: 2)
 3d0:	6d660544 	cfstr64vs	mvdx0, [r6, #-272]!	; 0xfffffef0
 3d4:	bc020074 	stclt	0, cr0, [r2], {116}	; 0x74
 3d8:	000000db 	ldrdeq	r0, [r0], -fp
 3dc:	08409102 	stmdaeq	r0, {r1, r8, ip, pc}^
 3e0:	00000115 	andeq	r0, r0, r5, lsl r1
 3e4:	0036bc02 	eorseq	fp, r6, r2, lsl #24
 3e8:	91030000 	mrsls	r0, (UNDEF: 3)
 3ec:	6c0c7fbc 	stcvs	15, cr7, [ip], {188}	; 0xbc
 3f0:	02006e65 	andeq	r6, r0, #1616	; 0x650
 3f4:	000183be 			; <UNDEFINED> instruction: 0x000183be
 3f8:	50910200 	addspl	r0, r1, r0, lsl #4
 3fc:	6d756e0c 	ldclvs	14, cr6, [r5, #-48]!	; 0xffffffd0
 400:	d4c20200 	strble	r0, [r2], #512	; 0x200
 404:	02000000 	andeq	r0, r0, #0
 408:	690c7491 	stmdbvs	ip, {r0, r4, r7, sl, ip, sp, lr}
 40c:	83c40200 	bichi	r0, r4, #0
 410:	02000001 	andeq	r0, r0, #1
 414:	68097091 	stmdavs	r9, {r0, r4, r7, ip, sp, lr}
 418:	02000000 	andeq	r0, r0, #0
 41c:	000183c4 	andeq	r8, r1, r4, asr #7
 420:	6c910200 	lfmvs	f0, 4, [r1], {0}
 424:	7274730c 	rsbsvc	r7, r4, #805306368	; 0x30000000
 428:	f3c50200 	vsubl.u8	q8, d5, d0
 42c:	02000000 	andeq	r0, r0, #0
 430:	730c6891 	movwvc	r6, #51345	; 0xc891
 434:	dbc60200 	blle	ff180c3c <g_AD_Value+0xbf1768b8>
 438:	02000000 	andeq	r0, r0, #0
 43c:	ad096491 	cfstrsge	mvf6, [r9, #-580]	; 0xfffffdbc
 440:	02000000 	andeq	r0, r0, #0
 444:	000183c8 	andeq	r8, r1, r8, asr #7
 448:	60910200 	addsvs	r0, r1, r0, lsl #4
 44c:	00010909 	andeq	r0, r1, r9, lsl #18
 450:	83ca0200 	bichi	r0, sl, #0
 454:	02000001 	andeq	r0, r0, #1
 458:	50095c91 	mulpl	r9, r1, ip
 45c:	02000000 	andeq	r0, r0, #0
 460:	000183cb 	andeq	r8, r1, fp, asr #7
 464:	58910200 	ldmpl	r1, {r9}
 468:	0000b309 	andeq	fp, r0, r9, lsl #6
 46c:	83cd0200 	bichi	r0, sp, #0
 470:	02000001 	andeq	r0, r0, #1
 474:	c4115491 	ldrgt	r5, [r1], #-1169	; 0x491
 478:	02000000 	andeq	r0, r0, #0
 47c:	008af4d7 	ldrdeq	pc, [sl], r7
 480:	914c1240 	cmpls	ip, r0, asr #4
 484:	91744000 	cmnls	r4, r0
 488:	03ac4000 			; <UNDEFINED> instruction: 0x03ac4000
 48c:	69130000 	ldmdbvs	r3, {}	; <UNPREDICTABLE>
 490:	35020070 	strcc	r0, [r2, #-112]	; 0x70
 494:	0003c501 	andeq	ip, r3, r1, lsl #10
 498:	4c910200 	lfmmi	f0, 4, [r1], {0}
 49c:	91780e00 	cmnls	r8, r0, lsl #28
 4a0:	91a04000 	movls	r4, r0
 4a4:	69134000 	ldmdbvs	r3, {lr}
 4a8:	38020070 	stmdacc	r2, {r4, r5, r6}
 4ac:	0003cb01 	andeq	ip, r3, r1, lsl #22
 4b0:	48910200 	ldmmi	r1, {r9}
 4b4:	040a0000 	streq	r0, [sl]
 4b8:	00000147 	andeq	r0, r0, r7, asr #2
 4bc:	0183040a 	orreq	r0, r3, sl, lsl #8
 4c0:	01140000 	tsteq	r4, r0
 4c4:	0000013b 	andeq	r0, r0, fp, lsr r1
 4c8:	01017302 	tsteq	r1, r2, lsl #6
 4cc:	00000183 	andeq	r0, r0, r3, lsl #3
 4d0:	400093d0 	ldrdmi	r9, [r0], -r0
 4d4:	40009420 	andmi	r9, r0, r0, lsr #8
 4d8:	00000134 	andeq	r0, r0, r4, lsr r1
 4dc:	0000042b 	andeq	r0, r0, fp, lsr #8
 4e0:	66756215 			; <UNDEFINED> instruction: 0x66756215
 4e4:	01730200 	cmneq	r3, r0, lsl #4
 4e8:	000000f3 	strdeq	r0, [r0], -r3
 4ec:	15609102 	strbne	r9, [r0, #-258]!	; 0x102
 4f0:	00746d66 	rsbseq	r6, r4, r6, ror #26
 4f4:	db017302 	blle	5d104 <_start-0x3ffaaefc>
 4f8:	02000000 	andeq	r0, r0, #0
 4fc:	17167491 			; <UNDEFINED> instruction: 0x17167491
 500:	00000115 	andeq	r0, r0, r5, lsl r1
 504:	36017502 	strcc	r7, [r1], -r2, lsl #10
 508:	02000000 	andeq	r0, r0, #0
 50c:	69136491 	ldmdbvs	r3, {r0, r4, r7, sl, sp, lr}
 510:	01760200 	cmneq	r6, r0, lsl #4
 514:	00000183 	andeq	r0, r0, r3, lsl #3
 518:	00689102 	rsbeq	r9, r8, r2, lsl #2
 51c:	013c0118 	teqeq	ip, r8, lsl r1
 520:	7e020000 	cdpvc	0, 0, cr0, cr2, cr0, {0}
 524:	94200101 	strtls	r0, [r0], #-257	; 0x101
 528:	94784000 	ldrbtls	r4, [r8]
 52c:	016c4000 	cmneq	ip, r0
 530:	04820000 	streq	r0, [r2]
 534:	66150000 	ldrvs	r0, [r5], -r0
 538:	0200746d 	andeq	r7, r0, #1828716544	; 0x6d000000
 53c:	00db017e 	sbcseq	r0, fp, lr, ror r1
 540:	91020000 	mrsls	r0, (UNDEF: 2)
 544:	15171670 	ldrne	r1, [r7, #-1648]	; 0x670
 548:	02000001 	andeq	r0, r0, #1
 54c:	00360180 	eorseq	r0, r6, r0, lsl #3
 550:	91020000 	mrsls	r0, (UNDEF: 2)
 554:	00691360 	rsbeq	r1, r9, r0, ror #6
 558:	f9018102 			; <UNDEFINED> instruction: 0xf9018102
 55c:	02000000 	andeq	r0, r0, #0
 560:	fd176491 	ldc2	4, cr6, [r7, #-580]	; 0xfffffdbc
 564:	02000000 	andeq	r0, r0, #0
 568:	04820182 	streq	r0, [r2], #386	; 0x182
 56c:	91030000 	mrsls	r0, (UNDEF: 3)
 570:	0f007efc 	svceq	0x00007efc
 574:	000000e6 	andeq	r0, r0, r6, ror #1
 578:	00000492 	muleq	r0, r2, r4
 57c:	0000d410 	andeq	sp, r0, r0, lsl r4
 580:	0f006300 	svceq	0x00006300
 584:	0000006a 	andeq	r0, r0, sl, rrx
 588:	000004a2 	andeq	r0, r0, r2, lsr #9
 58c:	0000d410 	andeq	sp, r0, r0, lsl r4
 590:	1900ff00 	stmdbne	r0, {r8, r9, sl, fp, ip, sp, lr, pc}
 594:	000000ef 	andeq	r0, r0, pc, ror #1
 598:	04921101 	ldreq	r1, [r2], #257	; 0x101
 59c:	01010000 	mrseq	r0, (UNDEF: 1)
 5a0:	0000ef1a 	andeq	lr, r0, sl, lsl pc
 5a4:	92110100 	andsls	r0, r1, #0
 5a8:	01000004 	tsteq	r0, r4
 5ac:	a2700305 	rsbsge	r0, r0, #335544320	; 0x14000000
 5b0:	0d004000 	stceq	0, cr4, [r0]
 5b4:	02000002 	andeq	r0, r0, #2
 5b8:	0001af00 	andeq	sl, r1, r0, lsl #30
 5bc:	6d010400 	cfstrsvs	mvf0, [r1]
 5c0:	01000000 	mrseq	r0, (UNDEF: 0)
 5c4:	000001cf 	andeq	r0, r0, pc, asr #3
 5c8:	000000d8 	ldrdeq	r0, [r0], -r8
 5cc:	40009478 	andmi	r9, r0, r8, ror r4
 5d0:	40009584 	andmi	r9, r0, r4, lsl #11
 5d4:	000003ad 	andeq	r0, r0, sp, lsr #7
 5d8:	7e070402 	cdpvc	4, 0, cr0, cr7, cr2, {0}
 5dc:	03000000 	movweq	r0, #0
 5e0:	01890218 	orreq	r0, r9, r8, lsl r2
 5e4:	00000090 	muleq	r0, r0, r0
 5e8:	4e4f4304 	cdpmi	3, 4, cr4, cr15, cr4, {0}
 5ec:	018a0200 	orreq	r0, sl, r0, lsl #4
 5f0:	00000025 	andeq	r0, r0, r5, lsr #32
 5f4:	04002302 	streq	r2, [r0], #-770	; 0x302
 5f8:	00544144 	subseq	r4, r4, r4, asr #2
 5fc:	25018b02 	strcs	r8, [r1, #-2818]	; 0xb02
 600:	02000000 	andeq	r0, r0, #0
 604:	50040423 	andpl	r0, r4, r3, lsr #8
 608:	02004455 	andeq	r4, r0, #1426063360	; 0x55000000
 60c:	0025018c 	eoreq	r0, r5, ip, lsl #3
 610:	23020000 	movwcs	r0, #8192	; 0x2000
 614:	52440408 	subpl	r0, r4, #134217728	; 0x8000000
 618:	8d020056 	stchi	0, cr0, [r2, #-344]	; 0xfffffea8
 61c:	00002501 	andeq	r2, r0, r1, lsl #10
 620:	0c230200 	sfmeq	f0, 4, [r3]
 624:	00019205 	andeq	r9, r1, r5, lsl #4
 628:	018e0200 	orreq	r0, lr, r0, lsl #4
 62c:	00000025 	andeq	r0, r0, r5, lsr #32
 630:	05102302 	ldreq	r2, [r0, #-770]	; 0x302
 634:	000001c8 	andeq	r0, r0, r8, asr #3
 638:	25018f02 	strcs	r8, [r1, #-3842]	; 0xf02
 63c:	02000000 	andeq	r0, r0, #0
 640:	06001423 	streq	r1, [r0], -r3, lsr #8
 644:	000001b5 			; <UNDEFINED> instruction: 0x000001b5
 648:	2c019002 	stccs	0, cr9, [r1], {2}
 64c:	03000000 	movweq	r0, #0
 650:	03c9023c 	biceq	r0, r9, #-1073741821	; 0xc0000003
 654:	00000187 	andeq	r0, r0, r7, lsl #3
 658:	0001ae05 	andeq	sl, r1, r5, lsl #28
 65c:	03ca0200 	biceq	r0, sl, #0
 660:	00000025 	andeq	r0, r0, r5, lsr #32
 664:	05002302 	streq	r2, [r0, #-770]	; 0x302
 668:	00000199 	muleq	r0, r9, r1
 66c:	2503cb02 	strcs	ip, [r3, #-2818]	; 0xb02
 670:	02000000 	andeq	r0, r0, #0
 674:	85050423 	strhi	r0, [r5, #-1059]	; 0x423
 678:	02000001 	andeq	r0, r0, #1
 67c:	002503cc 	eoreq	r0, r5, ip, asr #7
 680:	23020000 	movwcs	r0, #8192	; 0x2000
 684:	01e60508 	mvneq	r0, r8, lsl #10
 688:	cd020000 	stcgt	0, cr0, [r2]
 68c:	00002503 	andeq	r2, r0, r3, lsl #10
 690:	0c230200 	sfmeq	f0, 4, [r3]
 694:	00016d05 	andeq	r6, r1, r5, lsl #26
 698:	03ce0200 	biceq	r0, lr, #0
 69c:	00000025 	andeq	r0, r0, r5, lsr #32
 6a0:	05102302 	ldreq	r2, [r0, #-770]	; 0x302
 6a4:	000001bf 			; <UNDEFINED> instruction: 0x000001bf
 6a8:	2503cf02 	strcs	ip, [r3, #-3842]	; 0xf02
 6ac:	02000000 	andeq	r0, r0, #0
 6b0:	65051423 	strvs	r1, [r5, #-1059]	; 0x423
 6b4:	02000001 	andeq	r0, r0, #1
 6b8:	002503d0 	ldrdeq	r0, [r5], -r0	; <UNPREDICTABLE>
 6bc:	23020000 	movwcs	r0, #8192	; 0x2000
 6c0:	019f0518 	orrseq	r0, pc, r8, lsl r5	; <UNPREDICTABLE>
 6c4:	d1020000 	mrsle	r0, (UNDEF: 2)
 6c8:	00002503 	andeq	r2, r0, r3, lsl #10
 6cc:	1c230200 	sfmne	f0, 4, [r3]
 6d0:	00018c05 	andeq	r8, r1, r5, lsl #24
 6d4:	03d20200 	bicseq	r0, r2, #0
 6d8:	00000025 	andeq	r0, r0, r5, lsr #32
 6dc:	05202302 	streq	r2, [r0, #-770]!	; 0x302
 6e0:	000001ed 	andeq	r0, r0, sp, ror #3
 6e4:	2503d302 	strcs	sp, [r3, #-770]	; 0x302
 6e8:	02000000 	andeq	r0, r0, #0
 6ec:	58052423 	stmdapl	r5, {r0, r1, r5, sl, sp}
 6f0:	02000001 	andeq	r0, r0, #1
 6f4:	002503d4 	ldrdeq	r0, [r5], -r4	; <UNPREDICTABLE>
 6f8:	23020000 	movwcs	r0, #8192	; 0x2000
 6fc:	01f30528 	mvnseq	r0, r8, lsr #10
 700:	d5020000 	strle	r0, [r2]
 704:	00002503 	andeq	r2, r0, r3, lsl #10
 708:	2c230200 	sfmcs	f0, 4, [r3]
 70c:	00014905 	andeq	r4, r1, r5, lsl #18
 710:	03d60200 	bicseq	r0, r6, #0
 714:	00000025 	andeq	r0, r0, r5, lsr #32
 718:	05302302 	ldreq	r2, [r0, #-770]!	; 0x302
 71c:	00000150 	andeq	r0, r0, r0, asr r1
 720:	2503d702 	strcs	sp, [r3, #-1794]	; 0x702
 724:	02000000 	andeq	r0, r0, #0
 728:	a7053423 	strge	r3, [r5, -r3, lsr #8]
 72c:	02000001 	andeq	r0, r0, #1
 730:	002503d8 	ldrdeq	r0, [r5], -r8	; <UNPREDICTABLE>
 734:	23020000 	movwcs	r0, #8192	; 0x2000
 738:	43060038 	movwmi	r0, #24632	; 0x6038
 73c:	02000001 	andeq	r0, r0, #1
 740:	009c03d9 			; <UNDEFINED> instruction: 0x009c03d9
 744:	04020000 	streq	r0, [r2]
 748:	00007907 	andeq	r7, r0, r7, lsl #18
 74c:	76010700 	strvc	r0, [r1], -r0, lsl #14
 750:	01000001 	tsteq	r0, r1
 754:	00947803 	addseq	r7, r4, r3, lsl #16
 758:	0094dc40 	addseq	sp, r4, r0, asr #24
 75c:	0001a440 	andeq	sl, r1, r0, asr #8
 760:	ba010800 	blt	42768 <_start-0x3ffc5898>
 764:	01000001 	tsteq	r0, r1
 768:	94dc0110 	ldrbls	r0, [ip], #272	; 0x110
 76c:	95384000 	ldrls	r4, [r8]!
 770:	01d04000 	bicseq	r4, r0, r0
 774:	01d60000 	bicseq	r0, r6, r0
 778:	80090000 	andhi	r0, r9, r0
 77c:	01000001 	tsteq	r0, r1
 780:	0001d610 	andeq	sp, r1, r0, lsl r6
 784:	74910200 	ldrvc	r0, [r1], #512	; 0x200
 788:	01db0a00 	bicseq	r0, fp, r0, lsl #20
 78c:	01020000 	mrseq	r0, (UNDEF: 2)
 790:	00006308 	andeq	r6, r0, r8, lsl #6
 794:	e1010800 	tst	r1, r0, lsl #16
 798:	01000001 	tsteq	r0, r1
 79c:	95380117 	ldrls	r0, [r8, #-279]!	; 0x117
 7a0:	95844000 	strls	r4, [r4]
 7a4:	01fc4000 	mvnseq	r4, r0
 7a8:	020a0000 	andeq	r0, sl, #0
 7ac:	60090000 	andvs	r0, r9, r0
 7b0:	01000001 	tsteq	r0, r1
 7b4:	00020a17 	andeq	r0, r2, r7, lsl sl
 7b8:	74910200 	ldrvc	r0, [r1], #512	; 0x200
 7bc:	d6040b00 	strle	r0, [r4], -r0, lsl #22
 7c0:	00000001 	andeq	r0, r0, r1
 7c4:	0000033e 	andeq	r0, r0, lr, lsr r3
 7c8:	024f0002 	subeq	r0, pc, #2
 7cc:	01040000 	mrseq	r0, (UNDEF: 4)
 7d0:	0000006d 	andeq	r0, r0, sp, rrx
 7d4:	00027d01 	andeq	r7, r2, r1, lsl #26
 7d8:	0000d800 	andeq	sp, r0, r0, lsl #16
 7dc:	00958400 	addseq	r8, r5, r0, lsl #8
 7e0:	009a1840 	addseq	r1, sl, r0, asr #16
 7e4:	00042a40 	andeq	r2, r4, r0, asr #20
 7e8:	07040200 	streq	r0, [r4, -r0, lsl #4]
 7ec:	0000007e 	andeq	r0, r0, lr, ror r0
 7f0:	89021803 	stmdbhi	r2, {r0, r1, fp, ip}
 7f4:	00009001 	andeq	r9, r0, r1
 7f8:	4f430400 	svcmi	0x00430400
 7fc:	8a02004e 	bhi	8093c <_start-0x3ff876c4>
 800:	00002501 	andeq	r2, r0, r1, lsl #10
 804:	00230200 	eoreq	r0, r3, r0, lsl #4
 808:	54414404 	strbpl	r4, [r1], #-1028	; 0x404
 80c:	018b0200 	orreq	r0, fp, r0, lsl #4
 810:	00000025 	andeq	r0, r0, r5, lsr #32
 814:	04042302 	streq	r2, [r4], #-770	; 0x302
 818:	00445550 	subeq	r5, r4, r0, asr r5
 81c:	25018c02 	strcs	r8, [r1, #-3074]	; 0xc02
 820:	02000000 	andeq	r0, r0, #0
 824:	44040823 	strmi	r0, [r4], #-2083	; 0x823
 828:	02005652 	andeq	r5, r0, #85983232	; 0x5200000
 82c:	0025018d 	eoreq	r0, r5, sp, lsl #3
 830:	23020000 	movwcs	r0, #8192	; 0x2000
 834:	0192050c 	orrseq	r0, r2, ip, lsl #10
 838:	8e020000 	cdphi	0, 0, cr0, cr2, cr0, {0}
 83c:	00002501 	andeq	r2, r0, r1, lsl #10
 840:	10230200 	eorne	r0, r3, r0, lsl #4
 844:	0001c805 	andeq	ip, r1, r5, lsl #16
 848:	018f0200 	orreq	r0, pc, r0, lsl #4
 84c:	00000025 	andeq	r0, r0, r5, lsr #32
 850:	00142302 	andseq	r2, r4, r2, lsl #6
 854:	0001b506 	andeq	fp, r1, r6, lsl #10
 858:	01900200 	orrseq	r0, r0, r0, lsl #4
 85c:	0000002c 	andeq	r0, r0, ip, lsr #32
 860:	c9023c03 	stmdbgt	r2, {r0, r1, sl, fp, ip, sp}
 864:	00018703 	andeq	r8, r1, r3, lsl #14
 868:	01ae0500 			; <UNDEFINED> instruction: 0x01ae0500
 86c:	ca020000 	bgt	80874 <_start-0x3ff8778c>
 870:	00002503 	andeq	r2, r0, r3, lsl #10
 874:	00230200 	eoreq	r0, r3, r0, lsl #4
 878:	00019905 	andeq	r9, r1, r5, lsl #18
 87c:	03cb0200 	biceq	r0, fp, #0
 880:	00000025 	andeq	r0, r0, r5, lsr #32
 884:	05042302 	streq	r2, [r4, #-770]	; 0x302
 888:	00000185 	andeq	r0, r0, r5, lsl #3
 88c:	2503cc02 	strcs	ip, [r3, #-3074]	; 0xc02
 890:	02000000 	andeq	r0, r0, #0
 894:	e6050823 	str	r0, [r5], -r3, lsr #16
 898:	02000001 	andeq	r0, r0, #1
 89c:	002503cd 	eoreq	r0, r5, sp, asr #7
 8a0:	23020000 	movwcs	r0, #8192	; 0x2000
 8a4:	016d050c 	cmneq	sp, ip, lsl #10
 8a8:	ce020000 	cdpgt	0, 0, cr0, cr2, cr0, {0}
 8ac:	00002503 	andeq	r2, r0, r3, lsl #10
 8b0:	10230200 	eorne	r0, r3, r0, lsl #4
 8b4:	0001bf05 	andeq	fp, r1, r5, lsl #30
 8b8:	03cf0200 	biceq	r0, pc, #0
 8bc:	00000025 	andeq	r0, r0, r5, lsr #32
 8c0:	05142302 	ldreq	r2, [r4, #-770]	; 0x302
 8c4:	00000165 	andeq	r0, r0, r5, ror #2
 8c8:	2503d002 	strcs	sp, [r3, #-2]
 8cc:	02000000 	andeq	r0, r0, #0
 8d0:	9f051823 	svcls	0x00051823
 8d4:	02000001 	andeq	r0, r0, #1
 8d8:	002503d1 	ldrdeq	r0, [r5], -r1	; <UNPREDICTABLE>
 8dc:	23020000 	movwcs	r0, #8192	; 0x2000
 8e0:	018c051c 	orreq	r0, ip, ip, lsl r5
 8e4:	d2020000 	andle	r0, r2, #0
 8e8:	00002503 	andeq	r2, r0, r3, lsl #10
 8ec:	20230200 	eorcs	r0, r3, r0, lsl #4
 8f0:	0001ed05 	andeq	lr, r1, r5, lsl #26
 8f4:	03d30200 	bicseq	r0, r3, #0
 8f8:	00000025 	andeq	r0, r0, r5, lsr #32
 8fc:	05242302 	streq	r2, [r4, #-770]!	; 0x302
 900:	00000158 	andeq	r0, r0, r8, asr r1
 904:	2503d402 	strcs	sp, [r3, #-1026]	; 0x402
 908:	02000000 	andeq	r0, r0, #0
 90c:	f3052823 	vsub.i8	d2, d5, d19
 910:	02000001 	andeq	r0, r0, #1
 914:	002503d5 	ldrdeq	r0, [r5], -r5	; <UNPREDICTABLE>
 918:	23020000 	movwcs	r0, #8192	; 0x2000
 91c:	0149052c 	cmpeq	r9, ip, lsr #10
 920:	d6020000 	strle	r0, [r2], -r0
 924:	00002503 	andeq	r2, r0, r3, lsl #10
 928:	30230200 	eorcc	r0, r3, r0, lsl #4
 92c:	00015005 	andeq	r5, r1, r5
 930:	03d70200 	bicseq	r0, r7, #0
 934:	00000025 	andeq	r0, r0, r5, lsr #32
 938:	05342302 	ldreq	r2, [r4, #-770]!	; 0x302
 93c:	000001a7 	andeq	r0, r0, r7, lsr #3
 940:	2503d802 	strcs	sp, [r3, #-2050]	; 0x802
 944:	02000000 	andeq	r0, r0, #0
 948:	06003823 	streq	r3, [r0], -r3, lsr #16
 94c:	00000143 	andeq	r0, r0, r3, asr #2
 950:	9c03d902 	stcls	9, cr13, [r3], {2}
 954:	02000000 	andeq	r0, r0, #0
 958:	00790704 	rsbseq	r0, r9, r4, lsl #14
 95c:	01070000 	mrseq	r0, (UNDEF: 7)
 960:	00000282 	andeq	r0, r0, r2, lsl #5
 964:	84010601 	strhi	r0, [r1], #-1537	; 0x601
 968:	f4400095 	vst4.32	{d16-d19}, [r0 :64], r5
 96c:	28400095 	stmdacs	r0, {r0, r2, r4, r7}^
 970:	da000002 	ble	980 <_start-0x40007680>
 974:	08000001 	stmdaeq	r0, {r0}
 978:	0000028b 	andeq	r0, r0, fp, lsl #5
 97c:	00250601 	eoreq	r0, r5, r1, lsl #12
 980:	91020000 	mrsls	r0, (UNDEF: 2)
 984:	00690970 	rsbeq	r0, r9, r0, ror r9
 988:	00250801 	eoreq	r0, r5, r1, lsl #16
 98c:	91020000 	mrsls	r0, (UNDEF: 2)
 990:	006a0978 	rsbeq	r0, sl, r8, ror r9
 994:	00250801 	eoreq	r0, r5, r1, lsl #16
 998:	91020000 	mrsls	r0, (UNDEF: 2)
 99c:	010a0074 	tsteq	sl, r4, ror r0
 9a0:	00000205 	andeq	r0, r0, r5, lsl #4
 9a4:	f4010e01 			; <UNDEFINED> instruction: 0xf4010e01
 9a8:	8c400095 	mcrrhi	0, 9, r0, r0, cr5
 9ac:	54400096 	strbpl	r0, [r0], #-150	; 0x96
 9b0:	07000002 	streq	r0, [r0, -r2]
 9b4:	00021901 	andeq	r1, r2, r1, lsl #18
 9b8:	011b0100 	tsteq	fp, r0, lsl #2
 9bc:	4000968c 	andmi	r9, r0, ip, lsl #13
 9c0:	400096e8 	andmi	r9, r0, r8, ror #13
 9c4:	00000280 	andeq	r0, r0, r0, lsl #5
 9c8:	00000217 	andeq	r0, r0, r7, lsl r2
 9cc:	7461440b 	strbtvc	r4, [r1], #-1035	; 0x40b
 9d0:	171b0100 	ldrne	r0, [fp, -r0, lsl #2]
 9d4:	02000002 	andeq	r0, r0, #2
 9d8:	02007491 	andeq	r7, r0, #-1862270976	; 0x91000000
 9dc:	005a0801 	subseq	r0, sl, r1, lsl #16
 9e0:	01070000 	mrseq	r0, (UNDEF: 7)
 9e4:	00000238 	andeq	r0, r0, r8, lsr r2
 9e8:	e8012501 	stmda	r1, {r0, r8, sl, sp}
 9ec:	34400096 	strbcc	r0, [r0], #-150	; 0x96
 9f0:	ac400097 	mcrrge	0, 9, r0, r0, cr7
 9f4:	46000002 	strmi	r0, [r0], -r2
 9f8:	08000002 	stmdaeq	r0, {r1}
 9fc:	00000233 	andeq	r0, r0, r3, lsr r2
 a00:	02462501 	subeq	r2, r6, #4194304	; 0x400000
 a04:	91020000 	mrsls	r0, (UNDEF: 2)
 a08:	040c0074 	streq	r0, [ip], #-116	; 0x74
 a0c:	00000217 	andeq	r0, r0, r7, lsl r2
 a10:	026f010d 	rsbeq	r0, pc, #1073741827	; 0x40000003
 a14:	2b010000 	blcs	40a1c <_start-0x3ffc75e4>
 a18:	00021701 	andeq	r1, r2, r1, lsl #14
 a1c:	00973400 	addseq	r3, r7, r0, lsl #8
 a20:	00977c40 	addseq	r7, r7, r0, asr #24
 a24:	0002d840 	andeq	sp, r2, r0, asr #16
 a28:	00027600 	andeq	r7, r2, r0, lsl #12
 a2c:	00690900 	rsbeq	r0, r9, r0, lsl #18
 a30:	02172d01 	andseq	r2, r7, #64	; 0x40
 a34:	91020000 	mrsls	r0, (UNDEF: 2)
 a38:	010a007b 	tsteq	sl, fp, ror r0
 a3c:	00000255 	andeq	r0, r0, r5, asr r2
 a40:	7c013b01 	stcvc	11, cr3, [r1], {1}
 a44:	18400097 	stmdane	r0, {r0, r1, r2, r4, r7}^
 a48:	04400098 	strbeq	r0, [r0], #-152	; 0x98
 a4c:	0d000003 	stceq	0, cr0, [r0, #-12]
 a50:	00026201 	andeq	r6, r2, r1, lsl #4
 a54:	014b0100 	mrseq	r0, (UNDEF: 91)
 a58:	00000025 	andeq	r0, r0, r5, lsr #32
 a5c:	40009818 	andmi	r9, r0, r8, lsl r8
 a60:	400098ac 	andmi	r9, r0, ip, lsr #17
 a64:	00000330 	andeq	r0, r0, r0, lsr r3
 a68:	000002b6 			; <UNDEFINED> instruction: 0x000002b6
 a6c:	00444109 	subeq	r4, r4, r9, lsl #2
 a70:	00254d01 	eoreq	r4, r5, r1, lsl #26
 a74:	91020000 	mrsls	r0, (UNDEF: 2)
 a78:	01070078 	tsteq	r7, r8, ror r0
 a7c:	0000020f 	andeq	r0, r0, pc, lsl #4
 a80:	ac015a01 	stcge	10, cr5, [r1], {1}
 a84:	cc400098 	mcrrgt	0, 9, r0, r0, cr8
 a88:	5c400099 	mcrrpl	0, 9, r0, r0, cr9
 a8c:	de000003 	cdple	0, 0, cr0, cr0, cr3, {0}
 a90:	08000002 	stmdaeq	r0, {r1}
 a94:	000001fd 	strdeq	r0, [r0], -sp
 a98:	00255a01 	eoreq	r5, r5, r1, lsl #20
 a9c:	91020000 	mrsls	r0, (UNDEF: 2)
 aa0:	010a0078 	tsteq	sl, r8, ror r0
 aa4:	0000025d 	andeq	r0, r0, sp, asr r2
 aa8:	cc016201 	sfmgt	f6, 4, [r1], {1}
 aac:	18400099 	stmdane	r0, {r0, r3, r4, r7}^
 ab0:	8840009a 	stmdahi	r0, {r1, r3, r4, r7}^
 ab4:	0e000003 	cdpeq	0, 0, cr0, cr0, cr3, {0}
 ab8:	00000228 	andeq	r0, r0, r8, lsr #4
 abc:	00250301 	eoreq	r0, r5, r1, lsl #6
 ac0:	01010000 	mrseq	r0, (UNDEF: 1)
 ac4:	0002170f 	andeq	r1, r2, pc, lsl #14
 ac8:	00031000 	andeq	r1, r3, r0
 acc:	01931000 	orrseq	r1, r3, r0
 ad0:	00130000 	andseq	r0, r3, r0
 ad4:	0002460e 	andeq	r4, r2, lr, lsl #12
 ad8:	00040100 	andeq	r0, r4, r0, lsl #2
 adc:	01000003 	tsteq	r0, r3
 ae0:	02281101 	eoreq	r1, r8, #1073741824	; 0x40000000
 ae4:	03010000 	movweq	r0, #4096	; 0x1000
 ae8:	00000025 	andeq	r0, r0, r5, lsr #32
 aec:	84030501 	strhi	r0, [r3], #-1281	; 0x501
 af0:	114000a3 	smlaltbne	r0, r0, r3, r0	; <UNPREDICTABLE>
 af4:	00000246 	andeq	r0, r0, r6, asr #4
 af8:	03000401 	movweq	r0, #1025	; 0x401
 afc:	05010000 	streq	r0, [r1]
 b00:	00a37003 	adceq	r7, r3, r3
 b04:	Address 0x00000b04 is out of bounds.


Disassembly of section .debug_abbrev:

00000000 <.debug_abbrev>:
   0:	10001101 	andne	r1, r0, r1, lsl #2
   4:	12011106 	andne	r1, r1, #-2147483647	; 0x80000001
   8:	1b080301 	blne	200c14 <_start-0x3fe073ec>
   c:	13082508 	movwne	r2, #34056	; 0x8508
  10:	00000005 	andeq	r0, r0, r5
  14:	10001101 	andne	r1, r0, r1, lsl #2
  18:	12011106 	andne	r1, r1, #-2147483647	; 0x80000001
  1c:	1b080301 	blne	200c28 <_start-0x3fe073d8>
  20:	13082508 	movwne	r2, #34056	; 0x8508
  24:	00000005 	andeq	r0, r0, r5
  28:	10001101 	andne	r1, r0, r1, lsl #2
  2c:	12011106 	andne	r1, r1, #-2147483647	; 0x80000001
  30:	1b080301 	blne	200c3c <_start-0x3fe073c4>
  34:	13082508 	movwne	r2, #34056	; 0x8508
  38:	00000005 	andeq	r0, r0, r5
  3c:	25011101 	strcs	r1, [r1, #-257]	; 0x101
  40:	030b130e 	movweq	r1, #45838	; 0xb30e
  44:	110e1b0e 	tstne	lr, lr, lsl #22
  48:	10011201 	andne	r1, r1, r1, lsl #4
  4c:	02000006 	andeq	r0, r0, #6
  50:	0e030016 	mcreq	0, 0, r0, cr3, cr6, {0}
  54:	0b3b0b3a 	bleq	ec2d44 <_start-0x3f1452bc>
  58:	00001349 	andeq	r1, r0, r9, asr #6
  5c:	0b000f03 	bleq	3c70 <_start-0x40004390>
  60:	000e030b 	andeq	r0, lr, fp, lsl #6
  64:	012e0400 	teqeq	lr, r0, lsl #8
  68:	0b3a0e03 	bleq	e8387c <_start-0x3f184784>
  6c:	0c270b3b 	stceq	11, cr0, [r7], #-236	; 0xffffff14
  70:	01111349 	tsteq	r1, r9, asr #6
  74:	06400112 			; <UNDEFINED> instruction: 0x06400112
  78:	00001301 	andeq	r1, r0, r1, lsl #6
  7c:	03000505 	movweq	r0, #1285	; 0x505
  80:	3b0b3a08 	blcc	2ce8a8 <_start-0x3fd39758>
  84:	0213490b 	andseq	r4, r3, #180224	; 0x2c000
  88:	0600000a 	streq	r0, [r0], -sl
  8c:	0b0b0024 	bleq	2c0124 <_start-0x3fd47edc>
  90:	0e030b3e 	vmoveq.16	d3[0], r0
  94:	2e070000 	cdpcs	0, 0, cr0, cr7, cr0, {0}
  98:	030c3f01 	movweq	r3, #52993	; 0xcf01
  9c:	3b0b3a0e 	blcc	2ce8dc <_start-0x3fd39724>
  a0:	490c270b 	stmdbmi	ip, {r0, r1, r3, r8, r9, sl, sp}
  a4:	12011113 	andne	r1, r1, #-1073741820	; 0xc0000004
  a8:	01064001 	tsteq	r6, r1
  ac:	08000013 	stmdaeq	r0, {r0, r1, r4}
  b0:	0e030005 	cdpeq	0, 0, cr0, cr3, cr5, {0}
  b4:	0b3b0b3a 	bleq	ec2da4 <_start-0x3f14525c>
  b8:	0a021349 	beq	84de4 <_start-0x3ff8321c>
  bc:	34090000 	strcc	r0, [r9]
  c0:	3a0e0300 	bcc	380cc8 <_start-0x3fc87338>
  c4:	490b3b0b 	stmdbmi	fp, {r0, r1, r3, r8, r9, fp, ip, sp}
  c8:	000a0213 	andeq	r0, sl, r3, lsl r2
  cc:	000f0a00 	andeq	r0, pc, r0, lsl #20
  d0:	13490b0b 	movtne	r0, #39691	; 0x9b0b
  d4:	260b0000 	strcs	r0, [fp], -r0
  d8:	00134900 	andseq	r4, r3, r0, lsl #18
  dc:	00340c00 	eorseq	r0, r4, r0, lsl #24
  e0:	0b3a0803 	bleq	e820f4 <_start-0x3f185f0c>
  e4:	13490b3b 	movtne	r0, #39739	; 0x9b3b
  e8:	00000a02 	andeq	r0, r0, r2, lsl #20
  ec:	0b00240d 	bleq	9128 <_start-0x3fffeed8>
  f0:	030b3e0b 	movweq	r3, #48651	; 0xbe0b
  f4:	0e000008 	cdpeq	0, 0, cr0, cr0, cr8, {0}
  f8:	0111010b 	tsteq	r1, fp, lsl #2
  fc:	00000112 	andeq	r0, r0, r2, lsl r1
 100:	4901010f 	stmdbmi	r1, {r0, r1, r2, r3, r8}
 104:	00130113 	andseq	r0, r3, r3, lsl r1
 108:	00211000 	eoreq	r1, r1, r0
 10c:	0b2f1349 	bleq	bc4e38 <_start-0x3f4431c8>
 110:	0a110000 	beq	440118 <_start-0x3fbc7ee8>
 114:	3a0e0300 	bcc	380d1c <_start-0x3fc872e4>
 118:	110b3b0b 	tstne	fp, fp, lsl #22
 11c:	12000001 	andne	r0, r0, #1
 120:	0111010b 	tsteq	r1, fp, lsl #2
 124:	13010112 	movwne	r0, #4370	; 0x1112
 128:	34130000 	ldrcc	r0, [r3]
 12c:	3a080300 	bcc	200d34 <_start-0x3fe072cc>
 130:	49053b0b 	stmdbmi	r5, {r0, r1, r3, r8, r9, fp, ip, sp}
 134:	000a0213 	andeq	r0, sl, r3, lsl r2
 138:	012e1400 	teqeq	lr, r0, lsl #8
 13c:	0e030c3f 	mcreq	12, 0, r0, cr3, cr15, {1}
 140:	053b0b3a 	ldreq	r0, [fp, #-2874]!	; 0xb3a
 144:	13490c27 	movtne	r0, #39975	; 0x9c27
 148:	01120111 	tsteq	r2, r1, lsl r1
 14c:	13010640 	movwne	r0, #5696	; 0x1640
 150:	05150000 	ldreq	r0, [r5]
 154:	3a080300 	bcc	200d5c <_start-0x3fe072a4>
 158:	49053b0b 	stmdbmi	r5, {r0, r1, r3, r8, r9, fp, ip, sp}
 15c:	000a0213 	andeq	r0, sl, r3, lsl r2
 160:	00181600 	andseq	r1, r8, r0, lsl #12
 164:	34170000 	ldrcc	r0, [r7]
 168:	3a0e0300 	bcc	380d70 <_start-0x3fc87290>
 16c:	49053b0b 	stmdbmi	r5, {r0, r1, r3, r8, r9, fp, ip, sp}
 170:	000a0213 	andeq	r0, sl, r3, lsl r2
 174:	012e1800 	teqeq	lr, r0, lsl #16
 178:	0e030c3f 	mcreq	12, 0, r0, cr3, cr15, {1}
 17c:	053b0b3a 	ldreq	r0, [fp, #-2874]!	; 0xb3a
 180:	01110c27 	tsteq	r1, r7, lsr #24
 184:	06400112 			; <UNDEFINED> instruction: 0x06400112
 188:	00001301 	andeq	r1, r0, r1, lsl #6
 18c:	03003419 	movweq	r3, #1049	; 0x419
 190:	3b0b3a0e 	blcc	2ce9d0 <_start-0x3fd39630>
 194:	3f13490b 	svccc	0x0013490b
 198:	000c3c0c 	andeq	r3, ip, ip, lsl #24
 19c:	00341a00 	eorseq	r1, r4, r0, lsl #20
 1a0:	0b3a0e03 	bleq	e839b4 <_start-0x3f18464c>
 1a4:	13490b3b 	movtne	r0, #39739	; 0x9b3b
 1a8:	0a020c3f 	beq	832ac <_start-0x3ff84d54>
 1ac:	01000000 	mrseq	r0, (UNDEF: 0)
 1b0:	0e250111 	mcreq	1, 1, r0, cr5, cr1, {0}
 1b4:	0e030b13 	vmoveq.32	d3[0], r0
 1b8:	01110e1b 	tsteq	r1, fp, lsl lr
 1bc:	06100112 			; <UNDEFINED> instruction: 0x06100112
 1c0:	24020000 	strcs	r0, [r2]
 1c4:	3e0b0b00 	vmlacc.f64	d0, d11, d0
 1c8:	000e030b 	andeq	r0, lr, fp, lsl #6
 1cc:	01130300 	tsteq	r3, r0, lsl #6
 1d0:	0b3a0b0b 	bleq	e82e04 <_start-0x3f1851fc>
 1d4:	1301053b 	movwne	r0, #5435	; 0x153b
 1d8:	0d040000 	stceq	0, cr0, [r4]
 1dc:	3a080300 	bcc	200de4 <_start-0x3fe0721c>
 1e0:	49053b0b 	stmdbmi	r5, {r0, r1, r3, r8, r9, fp, ip, sp}
 1e4:	000a3813 	andeq	r3, sl, r3, lsl r8
 1e8:	000d0500 	andeq	r0, sp, r0, lsl #10
 1ec:	0b3a0e03 	bleq	e83a00 <_start-0x3f184600>
 1f0:	1349053b 	movtne	r0, #38203	; 0x953b
 1f4:	00000a38 	andeq	r0, r0, r8, lsr sl
 1f8:	03001606 	movweq	r1, #1542	; 0x606
 1fc:	3b0b3a0e 	blcc	2cea3c <_start-0x3fd395c4>
 200:	00134905 	andseq	r4, r3, r5, lsl #18
 204:	002e0700 	eoreq	r0, lr, r0, lsl #14
 208:	0e030c3f 	mcreq	12, 0, r0, cr3, cr15, {1}
 20c:	0b3b0b3a 	bleq	ec2efc <_start-0x3f145104>
 210:	01120111 	tsteq	r2, r1, lsl r1
 214:	00000640 	andeq	r0, r0, r0, asr #12
 218:	3f012e08 	svccc	0x00012e08
 21c:	3a0e030c 	bcc	380e54 <_start-0x3fc871ac>
 220:	270b3b0b 	strcs	r3, [fp, -fp, lsl #22]
 224:	1201110c 	andne	r1, r1, #3
 228:	01064001 	tsteq	r6, r1
 22c:	09000013 	stmdbeq	r0, {r0, r1, r4}
 230:	0e030005 	cdpeq	0, 0, cr0, cr3, cr5, {0}
 234:	0b3b0b3a 	bleq	ec2f24 <_start-0x3f1450dc>
 238:	0a021349 	beq	84f64 <_start-0x3ff8309c>
 23c:	260a0000 	strcs	r0, [sl], -r0
 240:	00134900 	andseq	r4, r3, r0, lsl #18
 244:	000f0b00 	andeq	r0, pc, r0, lsl #22
 248:	13490b0b 	movtne	r0, #39691	; 0x9b0b
 24c:	01000000 	mrseq	r0, (UNDEF: 0)
 250:	0e250111 	mcreq	1, 1, r0, cr5, cr1, {0}
 254:	0e030b13 	vmoveq.32	d3[0], r0
 258:	01110e1b 	tsteq	r1, fp, lsl lr
 25c:	06100112 			; <UNDEFINED> instruction: 0x06100112
 260:	24020000 	strcs	r0, [r2]
 264:	3e0b0b00 	vmlacc.f64	d0, d11, d0
 268:	000e030b 	andeq	r0, lr, fp, lsl #6
 26c:	01130300 	tsteq	r3, r0, lsl #6
 270:	0b3a0b0b 	bleq	e82ea4 <_start-0x3f18515c>
 274:	1301053b 	movwne	r0, #5435	; 0x153b
 278:	0d040000 	stceq	0, cr0, [r4]
 27c:	3a080300 	bcc	200e84 <_start-0x3fe0717c>
 280:	49053b0b 	stmdbmi	r5, {r0, r1, r3, r8, r9, fp, ip, sp}
 284:	000a3813 	andeq	r3, sl, r3, lsl r8
 288:	000d0500 	andeq	r0, sp, r0, lsl #10
 28c:	0b3a0e03 	bleq	e83aa0 <_start-0x3f184560>
 290:	1349053b 	movtne	r0, #38203	; 0x953b
 294:	00000a38 	andeq	r0, r0, r8, lsr sl
 298:	03001606 	movweq	r1, #1542	; 0x606
 29c:	3b0b3a0e 	blcc	2ceadc <_start-0x3fd39524>
 2a0:	00134905 	andseq	r4, r3, r5, lsl #18
 2a4:	012e0700 	teqeq	lr, r0, lsl #14
 2a8:	0e030c3f 	mcreq	12, 0, r0, cr3, cr15, {1}
 2ac:	0b3b0b3a 	bleq	ec2f9c <_start-0x3f145064>
 2b0:	01110c27 	tsteq	r1, r7, lsr #24
 2b4:	06400112 			; <UNDEFINED> instruction: 0x06400112
 2b8:	00001301 	andeq	r1, r0, r1, lsl #6
 2bc:	03000508 	movweq	r0, #1288	; 0x508
 2c0:	3b0b3a0e 	blcc	2ceb00 <_start-0x3fd39500>
 2c4:	0213490b 	andseq	r4, r3, #180224	; 0x2c000
 2c8:	0900000a 	stmdbeq	r0, {r1, r3}
 2cc:	08030034 	stmdaeq	r3, {r2, r4, r5}
 2d0:	0b3b0b3a 	bleq	ec2fc0 <_start-0x3f145040>
 2d4:	0a021349 	beq	85000 <_start-0x3ff83000>
 2d8:	2e0a0000 	cdpcs	0, 0, cr0, cr10, cr0, {0}
 2dc:	030c3f00 	movweq	r3, #52992	; 0xcf00
 2e0:	3b0b3a0e 	blcc	2ceb20 <_start-0x3fd394e0>
 2e4:	110c270b 	tstne	ip, fp, lsl #14
 2e8:	40011201 	andmi	r1, r1, r1, lsl #4
 2ec:	0b000006 	bleq	30c <_start-0x40007cf4>
 2f0:	08030005 	stmdaeq	r3, {r0, r2}
 2f4:	0b3b0b3a 	bleq	ec2fe4 <_start-0x3f14501c>
 2f8:	0a021349 	beq	85024 <_start-0x3ff82fdc>
 2fc:	0f0c0000 	svceq	0x000c0000
 300:	490b0b00 	stmdbmi	fp, {r8, r9, fp}
 304:	0d000013 	stceq	0, cr0, [r0, #-76]	; 0xffffffb4
 308:	0c3f012e 	ldfeqs	f0, [pc], #-184	; 258 <_start-0x40007da8>
 30c:	0b3a0e03 	bleq	e83b20 <_start-0x3f1844e0>
 310:	0c270b3b 	stceq	11, cr0, [r7], #-236	; 0xffffff14
 314:	01111349 	tsteq	r1, r9, asr #6
 318:	06400112 			; <UNDEFINED> instruction: 0x06400112
 31c:	00001301 	andeq	r1, r0, r1, lsl #6
 320:	0300340e 	movweq	r3, #1038	; 0x40e
 324:	3b0b3a0e 	blcc	2ceb64 <_start-0x3fd3949c>
 328:	3f13490b 	svccc	0x0013490b
 32c:	000c3c0c 	andeq	r3, ip, ip, lsl #24
 330:	01010f00 	tsteq	r1, r0, lsl #30
 334:	13011349 	movwne	r1, #4937	; 0x1349
 338:	21100000 	tstcs	r0, r0
 33c:	2f134900 	svccs	0x00134900
 340:	1100000b 	tstne	r0, fp
 344:	0e030034 	mcreq	0, 0, r0, cr3, cr4, {1}
 348:	0b3b0b3a 	bleq	ec3038 <_start-0x3f144fc8>
 34c:	0c3f1349 	ldceq	3, cr1, [pc], #-292	; 230 <_start-0x40007dd0>
 350:	00000a02 	andeq	r0, r0, r2, lsl #20
	...

Disassembly of section .debug_aranges:

00000000 <.debug_aranges>:
   0:	0000001c 	andeq	r0, r0, ip, lsl r0
   4:	00000002 	andeq	r0, r0, r2
   8:	00040000 	andeq	r0, r4, r0
   c:	00000000 	andeq	r0, r0, r0
  10:	40008000 	andmi	r8, r0, r0
  14:	00000134 	andeq	r0, r0, r4, lsr r1
	...
  20:	0000001c 	andeq	r0, r0, ip, lsl r0
  24:	004b0002 	subeq	r0, fp, r2
  28:	00040000 	andeq	r0, r4, r0
  2c:	00000000 	andeq	r0, r0, r0
  30:	40008140 	andmi	r8, r0, r0, asr #2
  34:	00000094 	muleq	r0, r4, r0
	...
  40:	0000001c 	andeq	r0, r0, ip, lsl r0
  44:	009e0002 	addseq	r0, lr, r2
  48:	00040000 	andeq	r0, r4, r0
  4c:	00000000 	andeq	r0, r0, r0
  50:	400081d4 	ldrdmi	r8, [r0], -r4
  54:	000000b0 	strheq	r0, [r0], -r0	; <UNPREDICTABLE>
	...
  60:	0000001c 	andeq	r0, r0, ip, lsl r0
  64:	00f10002 	rscseq	r0, r1, r2
  68:	00040000 	andeq	r0, r4, r0
  6c:	00000000 	andeq	r0, r0, r0
  70:	40008284 	andmi	r8, r0, r4, lsl #5
  74:	000011f4 	strdeq	r1, [r0], -r4
	...
  80:	0000001c 	andeq	r0, r0, ip, lsl r0
  84:	05b30002 	ldreq	r0, [r3, #2]!
  88:	00040000 	andeq	r0, r4, r0
  8c:	00000000 	andeq	r0, r0, r0
  90:	40009478 	andmi	r9, r0, r8, ror r4
  94:	0000010c 	andeq	r0, r0, ip, lsl #2
	...
  a0:	0000001c 	andeq	r0, r0, ip, lsl r0
  a4:	07c40002 	strbeq	r0, [r4, r2]
  a8:	00040000 	andeq	r0, r4, r0
  ac:	00000000 	andeq	r0, r0, r0
  b0:	40009584 	andmi	r9, r0, r4, lsl #11
  b4:	00000494 	muleq	r0, r4, r4
	...

Disassembly of section .debug_loc:

00000000 <.debug_loc>:
   0:	00000000 	andeq	r0, r0, r0
   4:	00000004 	andeq	r0, r0, r4
   8:	007d0002 	rsbseq	r0, sp, r2
   c:	00000004 	andeq	r0, r0, r4
  10:	00000008 	andeq	r0, r0, r8
  14:	047d0002 	ldrbteq	r0, [sp], #-2
  18:	00000008 	andeq	r0, r0, r8
  1c:	00000050 	andeq	r0, r0, r0, asr r0
  20:	047b0002 	ldrbteq	r0, [fp], #-2
	...
  2c:	00000050 	andeq	r0, r0, r0, asr r0
  30:	00000054 	andeq	r0, r0, r4, asr r0
  34:	007d0002 	rsbseq	r0, sp, r2
  38:	00000054 	andeq	r0, r0, r4, asr r0
  3c:	00000058 	andeq	r0, r0, r8, asr r0
  40:	087d0002 	ldmdaeq	sp!, {r1}^
  44:	00000058 	andeq	r0, r0, r8, asr r0
  48:	000001f8 	strdeq	r0, [r0], -r8
  4c:	047b0002 	ldrbteq	r0, [fp], #-2
	...
  58:	000001f8 	strdeq	r0, [r0], -r8
  5c:	000001fc 	strdeq	r0, [r0], -ip
  60:	007d0002 	rsbseq	r0, sp, r2
  64:	000001fc 	strdeq	r0, [r0], -ip
  68:	00000200 	andeq	r0, r0, r0, lsl #4
  6c:	087d0002 	ldmdaeq	sp!, {r1}^
  70:	00000200 	andeq	r0, r0, r0, lsl #4
  74:	00000268 	andeq	r0, r0, r8, ror #4
  78:	047b0002 	ldrbteq	r0, [fp], #-2
	...
  84:	00000268 	andeq	r0, r0, r8, ror #4
  88:	0000026c 	andeq	r0, r0, ip, ror #4
  8c:	007d0002 	rsbseq	r0, sp, r2
  90:	0000026c 	andeq	r0, r0, ip, ror #4
  94:	00000270 	andeq	r0, r0, r0, ror r2
  98:	047d0002 	ldrbteq	r0, [sp], #-2
  9c:	00000270 	andeq	r0, r0, r0, ror r2
  a0:	000002fc 	strdeq	r0, [r0], -ip
  a4:	047b0002 	ldrbteq	r0, [fp], #-2
	...
  b0:	000002fc 	strdeq	r0, [r0], -ip
  b4:	00000300 	andeq	r0, r0, r0, lsl #6
  b8:	007d0002 	rsbseq	r0, sp, r2
  bc:	00000300 	andeq	r0, r0, r0, lsl #6
  c0:	00000304 	andeq	r0, r0, r4, lsl #6
  c4:	087d0002 	ldmdaeq	sp!, {r1}^
  c8:	00000304 	andeq	r0, r0, r4, lsl #6
  cc:	00000794 	muleq	r0, r4, r7
  d0:	047b0002 	ldrbteq	r0, [fp], #-2
	...
  dc:	00000794 	muleq	r0, r4, r7
  e0:	00000798 	muleq	r0, r8, r7
  e4:	007d0002 	rsbseq	r0, sp, r2
  e8:	00000798 	muleq	r0, r8, r7
  ec:	0000079c 	muleq	r0, ip, r7
  f0:	047d0002 	ldrbteq	r0, [sp], #-2
  f4:	0000079c 	muleq	r0, ip, r7
  f8:	00000814 	andeq	r0, r0, r4, lsl r8
  fc:	047b0002 	ldrbteq	r0, [fp], #-2
	...
 108:	00000814 	andeq	r0, r0, r4, lsl r8
 10c:	00000818 	andeq	r0, r0, r8, lsl r8
 110:	007d0002 	rsbseq	r0, sp, r2
 114:	00000818 	andeq	r0, r0, r8, lsl r8
 118:	0000081c 	andeq	r0, r0, ip, lsl r8
 11c:	087d0002 	ldmdaeq	sp!, {r1}^
 120:	0000081c 	andeq	r0, r0, ip, lsl r8
 124:	0000114c 	andeq	r1, r0, ip, asr #2
 128:	047b0002 	ldrbteq	r0, [fp], #-2
	...
 134:	0000114c 	andeq	r1, r0, ip, asr #2
 138:	00001150 	andeq	r1, r0, r0, asr r1
 13c:	007d0002 	rsbseq	r0, sp, r2
 140:	00001150 	andeq	r1, r0, r0, asr r1
 144:	00001154 	andeq	r1, r0, r4, asr r1
 148:	0c7d0002 	ldcleq	0, cr0, [sp], #-8
 14c:	00001154 	andeq	r1, r0, r4, asr r1
 150:	00001158 	andeq	r1, r0, r8, asr r1
 154:	147d0002 	ldrbtne	r0, [sp], #-2
 158:	00001158 	andeq	r1, r0, r8, asr r1
 15c:	0000119c 	muleq	r0, ip, r1
 160:	107b0002 	rsbsne	r0, fp, r2
	...
 16c:	0000119c 	muleq	r0, ip, r1
 170:	000011a0 	andeq	r1, r0, r0, lsr #3
 174:	007d0002 	rsbseq	r0, sp, r2
 178:	000011a0 	andeq	r1, r0, r0, lsr #3
 17c:	000011a4 	andeq	r1, r0, r4, lsr #3
 180:	107d0002 	rsbsne	r0, sp, r2
 184:	000011a4 	andeq	r1, r0, r4, lsr #3
 188:	000011a8 	andeq	r1, r0, r8, lsr #3
 18c:	187d0002 	ldmdane	sp!, {r1}^
 190:	000011a8 	andeq	r1, r0, r8, lsr #3
 194:	000011f4 	strdeq	r1, [r0], -r4
 198:	147b0002 	ldrbtne	r0, [fp], #-2
	...
 1a8:	00000004 	andeq	r0, r0, r4
 1ac:	007d0002 	rsbseq	r0, sp, r2
 1b0:	00000004 	andeq	r0, r0, r4
 1b4:	00000008 	andeq	r0, r0, r8
 1b8:	047d0002 	ldrbteq	r0, [sp], #-2
 1bc:	00000008 	andeq	r0, r0, r8
 1c0:	00000064 	andeq	r0, r0, r4, rrx
 1c4:	047b0002 	ldrbteq	r0, [fp], #-2
	...
 1d0:	00000064 	andeq	r0, r0, r4, rrx
 1d4:	00000068 	andeq	r0, r0, r8, rrx
 1d8:	007d0002 	rsbseq	r0, sp, r2
 1dc:	00000068 	andeq	r0, r0, r8, rrx
 1e0:	0000006c 	andeq	r0, r0, ip, rrx
 1e4:	087d0002 	ldmdaeq	sp!, {r1}^
 1e8:	0000006c 	andeq	r0, r0, ip, rrx
 1ec:	000000c0 	andeq	r0, r0, r0, asr #1
 1f0:	047b0002 	ldrbteq	r0, [fp], #-2
	...
 1fc:	000000c0 	andeq	r0, r0, r0, asr #1
 200:	000000c4 	andeq	r0, r0, r4, asr #1
 204:	007d0002 	rsbseq	r0, sp, r2
 208:	000000c4 	andeq	r0, r0, r4, asr #1
 20c:	000000c8 	andeq	r0, r0, r8, asr #1
 210:	087d0002 	ldmdaeq	sp!, {r1}^
 214:	000000c8 	andeq	r0, r0, r8, asr #1
 218:	0000010c 	andeq	r0, r0, ip, lsl #2
 21c:	047b0002 	ldrbteq	r0, [fp], #-2
	...
 22c:	00000004 	andeq	r0, r0, r4
 230:	007d0002 	rsbseq	r0, sp, r2
 234:	00000004 	andeq	r0, r0, r4
 238:	00000008 	andeq	r0, r0, r8
 23c:	047d0002 	ldrbteq	r0, [sp], #-2
 240:	00000008 	andeq	r0, r0, r8
 244:	00000070 	andeq	r0, r0, r0, ror r0
 248:	047b0002 	ldrbteq	r0, [fp], #-2
	...
 254:	00000070 	andeq	r0, r0, r0, ror r0
 258:	00000074 	andeq	r0, r0, r4, ror r0
 25c:	007d0002 	rsbseq	r0, sp, r2
 260:	00000074 	andeq	r0, r0, r4, ror r0
 264:	00000078 	andeq	r0, r0, r8, ror r0
 268:	047d0002 	ldrbteq	r0, [sp], #-2
 26c:	00000078 	andeq	r0, r0, r8, ror r0
 270:	00000108 	andeq	r0, r0, r8, lsl #2
 274:	047b0002 	ldrbteq	r0, [fp], #-2
	...
 280:	00000108 	andeq	r0, r0, r8, lsl #2
 284:	0000010c 	andeq	r0, r0, ip, lsl #2
 288:	007d0002 	rsbseq	r0, sp, r2
 28c:	0000010c 	andeq	r0, r0, ip, lsl #2
 290:	00000110 	andeq	r0, r0, r0, lsl r1
 294:	087d0002 	ldmdaeq	sp!, {r1}^
 298:	00000110 	andeq	r0, r0, r0, lsl r1
 29c:	00000164 	andeq	r0, r0, r4, ror #2
 2a0:	047b0002 	ldrbteq	r0, [fp], #-2
	...
 2ac:	00000164 	andeq	r0, r0, r4, ror #2
 2b0:	00000168 	andeq	r0, r0, r8, ror #2
 2b4:	007d0002 	rsbseq	r0, sp, r2
 2b8:	00000168 	andeq	r0, r0, r8, ror #2
 2bc:	0000016c 	andeq	r0, r0, ip, ror #2
 2c0:	087d0002 	ldmdaeq	sp!, {r1}^
 2c4:	0000016c 	andeq	r0, r0, ip, ror #2
 2c8:	000001b0 			; <UNDEFINED> instruction: 0x000001b0
 2cc:	047b0002 	ldrbteq	r0, [fp], #-2
	...
 2d8:	000001b0 			; <UNDEFINED> instruction: 0x000001b0
 2dc:	000001b4 			; <UNDEFINED> instruction: 0x000001b4
 2e0:	007d0002 	rsbseq	r0, sp, r2
 2e4:	000001b4 			; <UNDEFINED> instruction: 0x000001b4
 2e8:	000001b8 			; <UNDEFINED> instruction: 0x000001b8
 2ec:	047d0002 	ldrbteq	r0, [sp], #-2
 2f0:	000001b8 			; <UNDEFINED> instruction: 0x000001b8
 2f4:	000001f8 	strdeq	r0, [r0], -r8
 2f8:	047b0002 	ldrbteq	r0, [fp], #-2
	...
 304:	000001f8 	strdeq	r0, [r0], -r8
 308:	000001fc 	strdeq	r0, [r0], -ip
 30c:	007d0002 	rsbseq	r0, sp, r2
 310:	000001fc 	strdeq	r0, [r0], -ip
 314:	00000200 	andeq	r0, r0, r0, lsl #4
 318:	047d0002 	ldrbteq	r0, [sp], #-2
 31c:	00000200 	andeq	r0, r0, r0, lsl #4
 320:	00000294 	muleq	r0, r4, r2
 324:	047b0002 	ldrbteq	r0, [fp], #-2
	...
 330:	00000294 	muleq	r0, r4, r2
 334:	00000298 	muleq	r0, r8, r2
 338:	007d0002 	rsbseq	r0, sp, r2
 33c:	00000298 	muleq	r0, r8, r2
 340:	0000029c 	muleq	r0, ip, r2
 344:	047d0002 	ldrbteq	r0, [sp], #-2
 348:	0000029c 	muleq	r0, ip, r2
 34c:	00000328 	andeq	r0, r0, r8, lsr #6
 350:	047b0002 	ldrbteq	r0, [fp], #-2
	...
 35c:	00000328 	andeq	r0, r0, r8, lsr #6
 360:	0000032c 	andeq	r0, r0, ip, lsr #6
 364:	007d0002 	rsbseq	r0, sp, r2
 368:	0000032c 	andeq	r0, r0, ip, lsr #6
 36c:	00000330 	andeq	r0, r0, r0, lsr r3
 370:	047d0002 	ldrbteq	r0, [sp], #-2
 374:	00000330 	andeq	r0, r0, r0, lsr r3
 378:	00000448 	andeq	r0, r0, r8, asr #8
 37c:	047b0002 	ldrbteq	r0, [fp], #-2
	...
 388:	00000448 	andeq	r0, r0, r8, asr #8
 38c:	0000044c 	andeq	r0, r0, ip, asr #8
 390:	007d0002 	rsbseq	r0, sp, r2
 394:	0000044c 	andeq	r0, r0, ip, asr #8
 398:	00000450 	andeq	r0, r0, r0, asr r4
 39c:	087d0002 	ldmdaeq	sp!, {r1}^
 3a0:	00000450 	andeq	r0, r0, r0, asr r4
 3a4:	00000494 	muleq	r0, r4, r4
 3a8:	047b0002 	ldrbteq	r0, [fp], #-2
	...

Disassembly of section .debug_str:

00000000 <.debug_str>:
   0:	75625f5f 	strbvc	r5, [r2, #-3935]!	; 0xf5f
   4:	69746c69 	ldmdbvs	r4!, {r0, r3, r5, r6, sl, fp, sp, lr}^
   8:	61765f6e 	cmnvs	r6, lr, ror #30
   c:	73696c5f 	cmnvc	r9, #24320	; 0x5f00
  10:	69730074 	ldmdbvs	r3!, {r2, r4, r5, r6}^
  14:	656c706d 	strbvs	r7, [ip, #-109]!	; 0x6d
  18:	7274735f 	rsbsvc	r7, r4, #2080374785	; 0x7c000001
  1c:	6c756f74 	ldclvs	15, cr6, [r5], #-464	; 0xfffffe30
  20:	6c617600 	stclvs	6, cr7, [r1]
  24:	63006575 	movwvs	r6, #1397	; 0x575
  28:	746e756f 	strbtvc	r7, [lr], #-1391	; 0x56f
  2c:	696b7300 	stmdbvs	fp!, {r8, r9, ip, sp, lr}^
  30:	74615f70 	strbtvc	r5, [r1], #-3952	; 0xf70
  34:	5f00696f 	svcpl	0x0000696f
  38:	756f745f 	strbvc	r7, [pc, #-1119]!	; fffffbe1 <g_AD_Value+0xbfff585d>
  3c:	72657070 	rsbvc	r7, r5, #112	; 0x70
  40:	675f5f00 	ldrbvs	r5, [pc, -r0, lsl #30]
  44:	5f63756e 	svcpl	0x0063756e
  48:	6c5f6176 	ldfvse	f6, [pc], {118}	; 0x76
  4c:	00747369 	rsbseq	r7, r4, r9, ror #6
  50:	63657270 	cmnvs	r5, #7
  54:	6f697369 	svcvs	0x00697369
  58:	6e75006e 	cdpvs	0, 7, cr0, cr5, cr14, {3}
  5c:	6e676973 	mcrvs	9, 3, r6, cr7, cr3, {3}
  60:	63206465 	teqvs	r0, #1694498816	; 0x65000000
  64:	00726168 	rsbseq	r6, r2, r8, ror #2
  68:	65736162 	ldrbvs	r6, [r3, #-354]!	; 0x162
  6c:	554e4700 	strbpl	r4, [lr, #-1792]	; 0x700
  70:	34204320 	strtcc	r4, [r0], #-800	; 0x320
  74:	322e362e 	eorcc	r3, lr, #48234496	; 0x2e00000
  78:	6e6f6c00 	cdpvs	12, 6, cr6, cr15, cr0, {0}
  7c:	6e752067 	cdpvs	0, 7, cr2, cr5, cr7, {3}
  80:	6e676973 	mcrvs	9, 3, r6, cr7, cr3, {3}
  84:	69206465 	stmdbvs	r0!, {r0, r2, r5, r6, sl, sp, lr}
  88:	7300746e 	movwvc	r7, #1134	; 0x46e
  8c:	6c706d69 	ldclvs	13, cr6, [r0], #-420	; 0xfffffe5c
  90:	74735f65 	ldrbtvc	r5, [r3], #-3941	; 0xf65
  94:	6c6f7472 	cfstrdvs	mvd7, [pc], #-456	; fffffed4 <g_AD_Value+0xbfff5b50>
  98:	6d6f6300 	stclvs	3, cr6, [pc]	; a0 <_start-0x40007f60>
  9c:	2f6e6f6d 	svccs	0x006e6f6d
  a0:	2f637273 	svccs	0x00637273
  a4:	6e697270 	mcrvs	2, 3, r7, cr9, cr0, {3}
  a8:	632e6674 	teqvs	lr, #121634816	; 0x7400000
  ac:	616c6600 	cmnvs	ip, r0, lsl #12
  b0:	71007367 	tstvc	r0, r7, ror #6
  b4:	696c6175 	stmdbvs	ip!, {r0, r2, r4, r5, r6, r8, sp, lr}^
  b8:	72656966 	rsbvc	r6, r5, #1671168	; 0x198000
  bc:	73657200 	cmnvc	r5, #0
  c0:	00746c75 	rsbseq	r6, r4, r5, ror ip
  c4:	65706572 	ldrbvs	r6, [r0, #-1394]!	; 0x572
  c8:	73007461 	movwvc	r7, #1121	; 0x461
  cc:	6c6e7274 	sfmvs	f7, 2, [lr], #-464	; 0xfffffe30
  d0:	65006e65 	strvs	r6, [r0, #-3685]	; 0xe65
  d4:	0070646e 	rsbseq	r6, r0, lr, ror #8
  d8:	655c3a45 	ldrbvs	r3, [ip, #-2629]	; 0xa45
  dc:	70696c63 	rsbvc	r6, r9, r3, ror #24
  e0:	705f6573 	subsvc	r6, pc, r3, ror r5	; <UNPREDICTABLE>
  e4:	656a6f72 	strbvs	r6, [sl, #-3954]!	; 0xf72
  e8:	5c737463 	cfldrdpl	mvd7, [r3], #-396	; 0xfffffe74
  ec:	5f004441 	svcpl	0x00004441
  f0:	70797463 	rsbsvc	r7, r9, r3, ror #8
  f4:	69640065 	stmdbvs	r4!, {r0, r2, r5, r6}^
  f8:	73746967 	cmnvc	r4, #1687552	; 0x19c000
  fc:	69727000 	ldmdbvs	r2!, {ip, sp, lr}^
 100:	7562746e 	strbvc	r7, [r2, #-1134]!	; 0x46e
 104:	72656666 	rsbvc	r6, r5, #106954752	; 0x6600000
 108:	65696600 	strbvs	r6, [r9, #-1536]!	; 0x600
 10c:	775f646c 	ldrbvc	r6, [pc, -ip, ror #8]
 110:	68746469 	ldmdavs	r4!, {r0, r3, r5, r6, sl, sp, lr}^
 114:	67726100 	ldrbvs	r6, [r2, -r0, lsl #2]!
 118:	756e0073 	strbvc	r0, [lr, #-115]!	; 0x73
 11c:	7265626d 	rsbvc	r6, r5, #-805306362	; 0xd0000006
 120:	6e6f6c00 	cdpvs	12, 6, cr6, cr15, cr0, {0}
 124:	6e692067 	cdpvs	0, 6, cr2, cr9, cr7, {3}
 128:	69730074 	ldmdbvs	r3!, {r2, r4, r5, r6}^
 12c:	5f006e67 	svcpl	0x00006e67
 130:	7365725f 	cmnvc	r5, #-268435451	; 0xf0000005
 134:	7a697300 	bvc	1a5cd3c <_start-0x3e5ab2c4>
 138:	73760065 	cmnvc	r6, #101	; 0x65
 13c:	6e697270 	mcrvs	2, 3, r7, cr9, cr0, {3}
 140:	75006674 	strvc	r6, [r0, #-1652]	; 0x674
 144:	32747261 	rsbscc	r7, r4, #268435462	; 0x10000006
 148:	4e495500 	cdpmi	5, 4, cr5, cr9, cr0, {0}
 14c:	00325054 	eorseq	r5, r2, r4, asr r0
 150:	544e4955 	strbpl	r4, [lr], #-2389	; 0x955
 154:	00325053 	eorseq	r5, r2, r3, asr r0
 158:	44524255 	ldrbmi	r4, [r2], #-597	; 0x255
 15c:	00325649 	eorseq	r5, r2, r9, asr #12
 160:	72747370 	rsbsvc	r7, r4, #-1073741823	; 0xc0000001
 164:	53465500 	movtpl	r5, #25856	; 0x6500
 168:	32544154 	subscc	r4, r4, #21
 16c:	52545500 	subspl	r5, r4, #0
 170:	54415453 	strbpl	r5, [r1], #-1107	; 0x453
 174:	61750032 	cmnvs	r5, r2, lsr r0
 178:	695f7472 	ldmdbvs	pc, {r1, r4, r5, r6, sl, ip, sp, lr}^	; <UNPREDICTABLE>
 17c:	0074696e 	rsbseq	r6, r4, lr, ror #18
 180:	61746164 	cmnvs	r4, r4, ror #2
 184:	43465500 	movtmi	r5, #25856	; 0x6500
 188:	00324e4f 	eorseq	r4, r2, pc, asr #28
 18c:	48585455 	ldmdami	r8, {r0, r2, r4, r6, sl, ip, lr}^
 190:	4f430032 	svcmi	0x00430032
 194:	4e44504e 	cdpmi	0, 4, cr5, cr4, cr14, {2}
 198:	4f435500 	svcmi	0x00435500
 19c:	5500324e 	strpl	r3, [r0, #-590]	; 0x24e
 1a0:	4154534d 	cmpmi	r4, sp, asr #6
 1a4:	55003254 	strpl	r3, [r0, #-596]	; 0x254
 1a8:	4d544e49 	ldclmi	14, cr4, [r4, #-292]	; 0xfffffedc
 1ac:	4c550032 	mrrcmi	0, 3, r0, r5, cr2
 1b0:	324e4f43 	subcc	r4, lr, #268	; 0x10c
 1b4:	61706700 	cmnvs	r0, r0, lsl #14
 1b8:	75700031 	ldrbvc	r0, [r0, #-49]!	; 0x31
 1bc:	55006374 	strpl	r6, [r0, #-884]	; 0x374
 1c0:	54535245 	ldrbpl	r5, [r3], #-581	; 0x245
 1c4:	00325441 	eorseq	r5, r2, r1, asr #8
 1c8:	50445550 	subpl	r5, r4, r0, asr r5
 1cc:	63004e44 	movwvs	r4, #3652	; 0xe44
 1d0:	6f6d6d6f 	svcvs	0x006d6d6f
 1d4:	72732f6e 	rsbsvc	r2, r3, #440	; 0x1b8
 1d8:	61752f63 	cmnvs	r5, r3, ror #30
 1dc:	632e7472 	teqvs	lr, #1912602624	; 0x72000000
 1e0:	74757000 	ldrbtvc	r7, [r5]
 1e4:	4d550073 	ldclmi	0, cr0, [r5, #-460]	; 0xfffffe34
 1e8:	324e4f43 	subcc	r4, lr, #268	; 0x10c
 1ec:	58525500 	ldmdapl	r2, {r8, sl, ip, lr}^
 1f0:	55003248 	strpl	r3, [r0, #-584]	; 0x248
 1f4:	43415246 	movtmi	r5, #4678	; 0x1246
 1f8:	324c4156 	subcc	r4, ip, #-2147483627	; 0x80000015
 1fc:	6e695500 	cdpvs	5, 6, cr5, cr9, cr0, {0}
 200:	74614474 	strbtvc	r4, [r1], #-1140	; 0x474
 204:	52415500 	subpl	r5, r1, #0
 208:	4e495f54 	mcrmi	15, 2, r5, cr9, cr4, {2}
 20c:	41005449 	tstmi	r0, r9, asr #8
 210:	6f545f44 	svcvs	0x00545f44
 214:	7274535f 	rsbsvc	r5, r4, #2080374785	; 0x7c000001
 218:	52415500 	subpl	r5, r1, #0
 21c:	45535f54 	ldrbmi	r5, [r3, #-3924]	; 0xf54
 220:	425f444e 	subsmi	r4, pc, #1308622848	; 0x4e000000
 224:	00455459 	subeq	r5, r5, r9, asr r4
 228:	44415f67 	strbmi	r5, [r1], #-3943	; 0xf67
 22c:	6c61565f 	stclvs	6, cr5, [r1], #-380	; 0xfffffe84
 230:	50006575 	andpl	r6, r0, r5, ror r5
 234:	00727473 	rsbseq	r7, r2, r3, ror r4
 238:	54524155 	ldrbpl	r4, [r2], #-341	; 0x155
 23c:	4e45535f 	mcrmi	3, 2, r5, cr5, cr15, {2}
 240:	54535f44 	ldrbpl	r5, [r3], #-3908	; 0xf44
 244:	5f670052 	svcpl	0x00670052
 248:	565f4441 	ldrbpl	r4, [pc], -r1, asr #8
 24c:	65756c61 	ldrbvs	r6, [r5, #-3169]!	; 0xc61
 250:	7274535f 	rsbsvc	r5, r4, #2080374785	; 0x7c000001
 254:	5f444100 	svcpl	0x00444100
 258:	54494e49 	strbpl	r4, [r9], #-3657	; 0xe49
 25c:	69616d00 	stmdbvs	r1!, {r8, sl, fp, sp, lr}^
 260:	6547006e 	strbvs	r0, [r7, #-110]	; 0x6e
 264:	44415f74 	strbmi	r5, [r1], #-3956	; 0xf74
 268:	6c61565f 	stclvs	6, cr5, [r1], #-380	; 0xfffffe84
 26c:	55006575 	strpl	r6, [r0, #-1397]	; 0x575
 270:	5f545241 	svcpl	0x00545241
 274:	5f434552 	svcpl	0x00434552
 278:	45545942 	ldrbmi	r5, [r4, #-2370]	; 0x942
 27c:	2e646100 	powcss	f6, f4, f0
 280:	65440063 	strbvs	r0, [r4, #-99]	; 0x63
 284:	5f796c61 	svcpl	0x00796c61
 288:	5400734d 	strpl	r7, [r0], #-845	; 0x34d
 28c:	00656d69 	rsbeq	r6, r5, r9, ror #26

Disassembly of section .debug_frame:

00000000 <.debug_frame>:
   0:	0000000c 	andeq	r0, r0, ip
   4:	ffffffff 			; <UNDEFINED> instruction: 0xffffffff
   8:	7c020001 	stcvc	0, cr0, [r2], {1}
   c:	000d0c0e 	andeq	r0, sp, lr, lsl #24
  10:	00000014 	andeq	r0, r0, r4, lsl r0
  14:	00000000 	andeq	r0, r0, r0
  18:	40008284 	andmi	r8, r0, r4, lsl #5
  1c:	00000050 	andeq	r0, r0, r0, asr r0
  20:	8b040e42 	blhi	103930 <_start-0x3ff046d0>
  24:	0b0d4201 	bleq	350830 <_start-0x3fcb77d0>
  28:	00000018 	andeq	r0, r0, r8, lsl r0
  2c:	00000000 	andeq	r0, r0, r0
  30:	400082d4 	ldrdmi	r8, [r0], -r4
  34:	000001a8 	andeq	r0, r0, r8, lsr #3
  38:	8e080e42 	cdphi	14, 0, cr0, cr8, cr2, {2}
  3c:	42028b01 	andmi	r8, r2, #1024	; 0x400
  40:	00040b0c 	andeq	r0, r4, ip, lsl #22
  44:	00000018 	andeq	r0, r0, r8, lsl r0
  48:	00000000 	andeq	r0, r0, r0
  4c:	4000847c 	andmi	r8, r0, ip, ror r4
  50:	00000070 	andeq	r0, r0, r0, ror r0
  54:	8e080e42 	cdphi	14, 0, cr0, cr8, cr2, {2}
  58:	42028b01 	andmi	r8, r2, #1024	; 0x400
  5c:	00040b0c 	andeq	r0, r4, ip, lsl #22
  60:	00000014 	andeq	r0, r0, r4, lsl r0
  64:	00000000 	andeq	r0, r0, r0
  68:	400084ec 	andmi	r8, r0, ip, ror #9
  6c:	00000094 	muleq	r0, r4, r0
  70:	8b040e42 	blhi	103980 <_start-0x3ff04680>
  74:	0b0d4201 	bleq	350880 <_start-0x3fcb7780>
  78:	00000018 	andeq	r0, r0, r8, lsl r0
  7c:	00000000 	andeq	r0, r0, r0
  80:	40008580 	andmi	r8, r0, r0, lsl #11
  84:	00000498 	muleq	r0, r8, r4
  88:	8e080e42 	cdphi	14, 0, cr0, cr8, cr2, {2}
  8c:	42028b01 	andmi	r8, r2, #1024	; 0x400
  90:	00040b0c 	andeq	r0, r4, ip, lsl #22
  94:	00000014 	andeq	r0, r0, r4, lsl r0
  98:	00000000 	andeq	r0, r0, r0
  9c:	40008a18 	andmi	r8, r0, r8, lsl sl
  a0:	00000080 	andeq	r0, r0, r0, lsl #1
  a4:	8b040e42 	blhi	1039b4 <_start-0x3ff0464c>
  a8:	0b0d4201 	bleq	3508b4 <_start-0x3fcb774c>
  ac:	00000018 	andeq	r0, r0, r8, lsl r0
  b0:	00000000 	andeq	r0, r0, r0
  b4:	40008a98 	mulmi	r0, r8, sl
  b8:	00000938 	andeq	r0, r0, r8, lsr r9
  bc:	8e080e42 	cdphi	14, 0, cr0, cr8, cr2, {2}
  c0:	42028b01 	andmi	r8, r2, #1024	; 0x400
  c4:	00040b0c 	andeq	r0, r4, ip, lsl #22
  c8:	00000020 	andeq	r0, r0, r0, lsr #32
  cc:	00000000 	andeq	r0, r0, r0
  d0:	400093d0 	ldrdmi	r9, [r0], -r0
  d4:	00000050 	andeq	r0, r0, r0, asr r0
  d8:	830c0e42 	movwhi	r0, #52802	; 0xce42
  dc:	81028201 	tsthi	r2, r1, lsl #4
  e0:	140e4203 	strne	r4, [lr], #-515	; 0x203
  e4:	058b048e 	streq	r0, [fp, #1166]	; 0x48e
  e8:	100b0c42 	andne	r0, fp, r2, asr #24
  ec:	00000024 	andeq	r0, r0, r4, lsr #32
  f0:	00000000 	andeq	r0, r0, r0
  f4:	40009420 	andmi	r9, r0, r0, lsr #8
  f8:	00000058 	andeq	r0, r0, r8, asr r0
  fc:	83100e42 	tsthi	r0, #1056	; 0x420
 100:	81028201 	tsthi	r2, r1, lsl #4
 104:	42048003 	andmi	r8, r4, #3
 108:	058e180e 	streq	r1, [lr, #2062]	; 0x80e
 10c:	0c42068b 	mcrreq	6, 8, r0, r2, cr11
 110:	0000140b 	andeq	r1, r0, fp, lsl #8
 114:	0000000c 	andeq	r0, r0, ip
 118:	ffffffff 			; <UNDEFINED> instruction: 0xffffffff
 11c:	7c020001 	stcvc	0, cr0, [r2], {1}
 120:	000d0c0e 	andeq	r0, sp, lr, lsl #24
 124:	00000014 	andeq	r0, r0, r4, lsl r0
 128:	00000114 	andeq	r0, r0, r4, lsl r1
 12c:	40009478 	andmi	r9, r0, r8, ror r4
 130:	00000064 	andeq	r0, r0, r4, rrx
 134:	8b040e42 	blhi	103a44 <_start-0x3ff045bc>
 138:	0b0d4201 	bleq	350944 <_start-0x3fcb76bc>
 13c:	00000018 	andeq	r0, r0, r8, lsl r0
 140:	00000114 	andeq	r0, r0, r4, lsl r1
 144:	400094dc 	ldrdmi	r9, [r0], -ip
 148:	0000005c 	andeq	r0, r0, ip, asr r0
 14c:	8e080e42 	cdphi	14, 0, cr0, cr8, cr2, {2}
 150:	42028b01 	andmi	r8, r2, #1024	; 0x400
 154:	00040b0c 	andeq	r0, r4, ip, lsl #22
 158:	00000018 	andeq	r0, r0, r8, lsl r0
 15c:	00000114 	andeq	r0, r0, r4, lsl r1
 160:	40009538 	andmi	r9, r0, r8, lsr r5
 164:	0000004c 	andeq	r0, r0, ip, asr #32
 168:	8e080e42 	cdphi	14, 0, cr0, cr8, cr2, {2}
 16c:	42028b01 	andmi	r8, r2, #1024	; 0x400
 170:	00040b0c 	andeq	r0, r4, ip, lsl #22
 174:	0000000c 	andeq	r0, r0, ip
 178:	ffffffff 			; <UNDEFINED> instruction: 0xffffffff
 17c:	7c020001 	stcvc	0, cr0, [r2], {1}
 180:	000d0c0e 	andeq	r0, sp, lr, lsl #24
 184:	00000014 	andeq	r0, r0, r4, lsl r0
 188:	00000174 	andeq	r0, r0, r4, ror r1
 18c:	40009584 	andmi	r9, r0, r4, lsl #11
 190:	00000070 	andeq	r0, r0, r0, ror r0
 194:	8b040e42 	blhi	103aa4 <_start-0x3ff0455c>
 198:	0b0d4201 	bleq	3509a4 <_start-0x3fcb765c>
 19c:	00000014 	andeq	r0, r0, r4, lsl r0
 1a0:	00000174 	andeq	r0, r0, r4, ror r1
 1a4:	400095f4 	strdmi	r9, [r0], -r4
 1a8:	00000098 	muleq	r0, r8, r0
 1ac:	8b040e42 	blhi	103abc <_start-0x3ff04544>
 1b0:	0b0d4201 	bleq	3509bc <_start-0x3fcb7644>
 1b4:	00000018 	andeq	r0, r0, r8, lsl r0
 1b8:	00000174 	andeq	r0, r0, r4, ror r1
 1bc:	4000968c 	andmi	r9, r0, ip, lsl #13
 1c0:	0000005c 	andeq	r0, r0, ip, asr r0
 1c4:	8e080e42 	cdphi	14, 0, cr0, cr8, cr2, {2}
 1c8:	42028b01 	andmi	r8, r2, #1024	; 0x400
 1cc:	00040b0c 	andeq	r0, r4, ip, lsl #22
 1d0:	00000018 	andeq	r0, r0, r8, lsl r0
 1d4:	00000174 	andeq	r0, r0, r4, ror r1
 1d8:	400096e8 	andmi	r9, r0, r8, ror #13
 1dc:	0000004c 	andeq	r0, r0, ip, asr #32
 1e0:	8e080e42 	cdphi	14, 0, cr0, cr8, cr2, {2}
 1e4:	42028b01 	andmi	r8, r2, #1024	; 0x400
 1e8:	00040b0c 	andeq	r0, r4, ip, lsl #22
 1ec:	00000014 	andeq	r0, r0, r4, lsl r0
 1f0:	00000174 	andeq	r0, r0, r4, ror r1
 1f4:	40009734 	andmi	r9, r0, r4, lsr r7
 1f8:	00000048 	andeq	r0, r0, r8, asr #32
 1fc:	8b040e42 	blhi	103b0c <_start-0x3ff044f4>
 200:	0b0d4201 	bleq	350a0c <_start-0x3fcb75f4>
 204:	00000014 	andeq	r0, r0, r4, lsl r0
 208:	00000174 	andeq	r0, r0, r4, ror r1
 20c:	4000977c 	andmi	r9, r0, ip, ror r7
 210:	0000009c 	muleq	r0, ip, r0
 214:	8b040e42 	blhi	103b24 <_start-0x3ff044dc>
 218:	0b0d4201 	bleq	350a24 <_start-0x3fcb75dc>
 21c:	00000014 	andeq	r0, r0, r4, lsl r0
 220:	00000174 	andeq	r0, r0, r4, ror r1
 224:	40009818 	andmi	r9, r0, r8, lsl r8
 228:	00000094 	muleq	r0, r4, r0
 22c:	8b040e42 	blhi	103b3c <_start-0x3ff044c4>
 230:	0b0d4201 	bleq	350a3c <_start-0x3fcb75c4>
 234:	00000014 	andeq	r0, r0, r4, lsl r0
 238:	00000174 	andeq	r0, r0, r4, ror r1
 23c:	400098ac 	andmi	r9, r0, ip, lsr #17
 240:	00000120 	andeq	r0, r0, r0, lsr #2
 244:	8b040e42 	blhi	103b54 <_start-0x3ff044ac>
 248:	0b0d4201 	bleq	350a54 <_start-0x3fcb75ac>
 24c:	00000018 	andeq	r0, r0, r8, lsl r0
 250:	00000174 	andeq	r0, r0, r4, ror r1
 254:	400099cc 	andmi	r9, r0, ip, asr #19
 258:	0000004c 	andeq	r0, r0, ip, asr #32
 25c:	8e080e42 	cdphi	14, 0, cr0, cr8, cr2, {2}
 260:	42028b01 	andmi	r8, r2, #1024	; 0x400
 264:	00040b0c 	andeq	r0, r4, ip, lsl #22
